ARM GAS  C:\Users\Kayas\AppData\Local\Temp\ccI1sZTk.s 			page 1


   1              		.syntax unified
   2              		.cpu cortex-m0
   3              		.fpu softvfp
   4              		.eabi_attribute 20, 1
   5              		.eabi_attribute 21, 1
   6              		.eabi_attribute 23, 3
   7              		.eabi_attribute 24, 1
   8              		.eabi_attribute 25, 1
   9              		.eabi_attribute 26, 1
  10              		.eabi_attribute 30, 1
  11              		.eabi_attribute 34, 0
  12              		.eabi_attribute 18, 4
  13              		.thumb
  14              		.syntax unified
  15              		.file	"SPIM.c"
  16              		.text
  17              	.Ltext0:
  18              		.cfi_sections	.debug_frame
  19              		.section	.text.SPIM_EnableTxInt,"ax",%progbits
  20              		.align	2
  21              		.global	SPIM_EnableTxInt
  22              		.code	16
  23              		.thumb_func
  24              		.type	SPIM_EnableTxInt, %function
  25              	SPIM_EnableTxInt:
  26              	.LFB4:
  27              		.file 1 "Generated_Source\\PSoC4\\SPIM.c"
   1:Generated_Source\PSoC4/SPIM.c **** /*******************************************************************************
   2:Generated_Source\PSoC4/SPIM.c **** * File Name: SPIM.c
   3:Generated_Source\PSoC4/SPIM.c **** * Version 2.50
   4:Generated_Source\PSoC4/SPIM.c **** *
   5:Generated_Source\PSoC4/SPIM.c **** * Description:
   6:Generated_Source\PSoC4/SPIM.c **** *  This file provides all API functionality of the SPI Master component.
   7:Generated_Source\PSoC4/SPIM.c **** *
   8:Generated_Source\PSoC4/SPIM.c **** * Note:
   9:Generated_Source\PSoC4/SPIM.c **** *  None.
  10:Generated_Source\PSoC4/SPIM.c **** *
  11:Generated_Source\PSoC4/SPIM.c **** ********************************************************************************
  12:Generated_Source\PSoC4/SPIM.c **** * Copyright 2008-2015, Cypress Semiconductor Corporation.  All rights reserved.
  13:Generated_Source\PSoC4/SPIM.c **** * You may use this file only in accordance with the license, terms, conditions,
  14:Generated_Source\PSoC4/SPIM.c **** * disclaimers, and limitations in the end user license agreement accompanying
  15:Generated_Source\PSoC4/SPIM.c **** * the software package with which this file was provided.
  16:Generated_Source\PSoC4/SPIM.c **** *******************************************************************************/
  17:Generated_Source\PSoC4/SPIM.c **** 
  18:Generated_Source\PSoC4/SPIM.c **** #include "SPIM_PVT.h"
  19:Generated_Source\PSoC4/SPIM.c **** 
  20:Generated_Source\PSoC4/SPIM.c **** #if(SPIM_TX_SOFTWARE_BUF_ENABLED)
  21:Generated_Source\PSoC4/SPIM.c ****     volatile uint8 SPIM_txBuffer[SPIM_TX_BUFFER_SIZE];
  22:Generated_Source\PSoC4/SPIM.c ****     volatile uint8 SPIM_txBufferFull;
  23:Generated_Source\PSoC4/SPIM.c ****     volatile uint8 SPIM_txBufferRead;
  24:Generated_Source\PSoC4/SPIM.c ****     volatile uint8 SPIM_txBufferWrite;
  25:Generated_Source\PSoC4/SPIM.c **** #endif /* (SPIM_TX_SOFTWARE_BUF_ENABLED) */
  26:Generated_Source\PSoC4/SPIM.c **** 
  27:Generated_Source\PSoC4/SPIM.c **** #if(SPIM_RX_SOFTWARE_BUF_ENABLED)
  28:Generated_Source\PSoC4/SPIM.c ****     volatile uint8 SPIM_rxBuffer[SPIM_RX_BUFFER_SIZE];
  29:Generated_Source\PSoC4/SPIM.c ****     volatile uint8 SPIM_rxBufferFull;
  30:Generated_Source\PSoC4/SPIM.c ****     volatile uint8 SPIM_rxBufferRead;
ARM GAS  C:\Users\Kayas\AppData\Local\Temp\ccI1sZTk.s 			page 2


  31:Generated_Source\PSoC4/SPIM.c ****     volatile uint8 SPIM_rxBufferWrite;
  32:Generated_Source\PSoC4/SPIM.c **** #endif /* (SPIM_RX_SOFTWARE_BUF_ENABLED) */
  33:Generated_Source\PSoC4/SPIM.c **** 
  34:Generated_Source\PSoC4/SPIM.c **** uint8 SPIM_initVar = 0u;
  35:Generated_Source\PSoC4/SPIM.c **** 
  36:Generated_Source\PSoC4/SPIM.c **** volatile uint8 SPIM_swStatusTx;
  37:Generated_Source\PSoC4/SPIM.c **** volatile uint8 SPIM_swStatusRx;
  38:Generated_Source\PSoC4/SPIM.c **** 
  39:Generated_Source\PSoC4/SPIM.c **** 
  40:Generated_Source\PSoC4/SPIM.c **** /*******************************************************************************
  41:Generated_Source\PSoC4/SPIM.c **** * Function Name: SPIM_Init
  42:Generated_Source\PSoC4/SPIM.c **** ********************************************************************************
  43:Generated_Source\PSoC4/SPIM.c **** *
  44:Generated_Source\PSoC4/SPIM.c **** * Summary:
  45:Generated_Source\PSoC4/SPIM.c **** *  Inits/Restores default SPIM configuration provided with customizer.
  46:Generated_Source\PSoC4/SPIM.c **** *
  47:Generated_Source\PSoC4/SPIM.c **** * Parameters:
  48:Generated_Source\PSoC4/SPIM.c **** *  None.
  49:Generated_Source\PSoC4/SPIM.c **** *
  50:Generated_Source\PSoC4/SPIM.c **** * Return:
  51:Generated_Source\PSoC4/SPIM.c **** *  None.
  52:Generated_Source\PSoC4/SPIM.c **** *
  53:Generated_Source\PSoC4/SPIM.c **** * Side Effects:
  54:Generated_Source\PSoC4/SPIM.c **** *  When this function is called it initializes all of the necessary parameters
  55:Generated_Source\PSoC4/SPIM.c **** *  for execution. i.e. setting the initial interrupt mask, configuring the
  56:Generated_Source\PSoC4/SPIM.c **** *  interrupt service routine, configuring the bit-counter parameters and
  57:Generated_Source\PSoC4/SPIM.c **** *  clearing the FIFO and Status Register.
  58:Generated_Source\PSoC4/SPIM.c **** *
  59:Generated_Source\PSoC4/SPIM.c **** * Reentrant:
  60:Generated_Source\PSoC4/SPIM.c **** *  No.
  61:Generated_Source\PSoC4/SPIM.c **** *
  62:Generated_Source\PSoC4/SPIM.c **** *******************************************************************************/
  63:Generated_Source\PSoC4/SPIM.c **** void SPIM_Init(void) 
  64:Generated_Source\PSoC4/SPIM.c **** {
  65:Generated_Source\PSoC4/SPIM.c ****     /* Initialize the Bit counter */
  66:Generated_Source\PSoC4/SPIM.c ****     SPIM_COUNTER_PERIOD_REG = SPIM_BITCTR_INIT;
  67:Generated_Source\PSoC4/SPIM.c **** 
  68:Generated_Source\PSoC4/SPIM.c ****     /* Init TX ISR  */
  69:Generated_Source\PSoC4/SPIM.c ****     #if(0u != SPIM_INTERNAL_TX_INT_ENABLED)
  70:Generated_Source\PSoC4/SPIM.c ****         CyIntDisable         (SPIM_TX_ISR_NUMBER);
  71:Generated_Source\PSoC4/SPIM.c ****         CyIntSetPriority     (SPIM_TX_ISR_NUMBER,  SPIM_TX_ISR_PRIORITY);
  72:Generated_Source\PSoC4/SPIM.c ****         (void) CyIntSetVector(SPIM_TX_ISR_NUMBER, &SPIM_TX_ISR);
  73:Generated_Source\PSoC4/SPIM.c ****     #endif /* (0u != SPIM_INTERNAL_TX_INT_ENABLED) */
  74:Generated_Source\PSoC4/SPIM.c **** 
  75:Generated_Source\PSoC4/SPIM.c ****     /* Init RX ISR  */
  76:Generated_Source\PSoC4/SPIM.c ****     #if(0u != SPIM_INTERNAL_RX_INT_ENABLED)
  77:Generated_Source\PSoC4/SPIM.c ****         CyIntDisable         (SPIM_RX_ISR_NUMBER);
  78:Generated_Source\PSoC4/SPIM.c ****         CyIntSetPriority     (SPIM_RX_ISR_NUMBER,  SPIM_RX_ISR_PRIORITY);
  79:Generated_Source\PSoC4/SPIM.c ****         (void) CyIntSetVector(SPIM_RX_ISR_NUMBER, &SPIM_RX_ISR);
  80:Generated_Source\PSoC4/SPIM.c ****     #endif /* (0u != SPIM_INTERNAL_RX_INT_ENABLED) */
  81:Generated_Source\PSoC4/SPIM.c **** 
  82:Generated_Source\PSoC4/SPIM.c ****     /* Clear any stray data from the RX and TX FIFO */
  83:Generated_Source\PSoC4/SPIM.c ****     SPIM_ClearFIFO();
  84:Generated_Source\PSoC4/SPIM.c **** 
  85:Generated_Source\PSoC4/SPIM.c ****     #if(SPIM_RX_SOFTWARE_BUF_ENABLED)
  86:Generated_Source\PSoC4/SPIM.c ****         SPIM_rxBufferFull  = 0u;
  87:Generated_Source\PSoC4/SPIM.c ****         SPIM_rxBufferRead  = 0u;
ARM GAS  C:\Users\Kayas\AppData\Local\Temp\ccI1sZTk.s 			page 3


  88:Generated_Source\PSoC4/SPIM.c ****         SPIM_rxBufferWrite = 0u;
  89:Generated_Source\PSoC4/SPIM.c ****     #endif /* (SPIM_RX_SOFTWARE_BUF_ENABLED) */
  90:Generated_Source\PSoC4/SPIM.c **** 
  91:Generated_Source\PSoC4/SPIM.c ****     #if(SPIM_TX_SOFTWARE_BUF_ENABLED)
  92:Generated_Source\PSoC4/SPIM.c ****         SPIM_txBufferFull  = 0u;
  93:Generated_Source\PSoC4/SPIM.c ****         SPIM_txBufferRead  = 0u;
  94:Generated_Source\PSoC4/SPIM.c ****         SPIM_txBufferWrite = 0u;
  95:Generated_Source\PSoC4/SPIM.c ****     #endif /* (SPIM_TX_SOFTWARE_BUF_ENABLED) */
  96:Generated_Source\PSoC4/SPIM.c **** 
  97:Generated_Source\PSoC4/SPIM.c ****     (void) SPIM_ReadTxStatus(); /* Clear Tx status and swStatusTx */
  98:Generated_Source\PSoC4/SPIM.c ****     (void) SPIM_ReadRxStatus(); /* Clear Rx status and swStatusRx */
  99:Generated_Source\PSoC4/SPIM.c **** 
 100:Generated_Source\PSoC4/SPIM.c ****     /* Configure TX and RX interrupt mask */
 101:Generated_Source\PSoC4/SPIM.c ****     SPIM_TX_STATUS_MASK_REG = SPIM_TX_INIT_INTERRUPTS_MASK;
 102:Generated_Source\PSoC4/SPIM.c ****     SPIM_RX_STATUS_MASK_REG = SPIM_RX_INIT_INTERRUPTS_MASK;
 103:Generated_Source\PSoC4/SPIM.c **** }
 104:Generated_Source\PSoC4/SPIM.c **** 
 105:Generated_Source\PSoC4/SPIM.c **** 
 106:Generated_Source\PSoC4/SPIM.c **** /*******************************************************************************
 107:Generated_Source\PSoC4/SPIM.c **** * Function Name: SPIM_Enable
 108:Generated_Source\PSoC4/SPIM.c **** ********************************************************************************
 109:Generated_Source\PSoC4/SPIM.c **** *
 110:Generated_Source\PSoC4/SPIM.c **** * Summary:
 111:Generated_Source\PSoC4/SPIM.c **** *  Enable SPIM component.
 112:Generated_Source\PSoC4/SPIM.c **** *
 113:Generated_Source\PSoC4/SPIM.c **** * Parameters:
 114:Generated_Source\PSoC4/SPIM.c **** *  None.
 115:Generated_Source\PSoC4/SPIM.c **** *
 116:Generated_Source\PSoC4/SPIM.c **** * Return:
 117:Generated_Source\PSoC4/SPIM.c **** *  None.
 118:Generated_Source\PSoC4/SPIM.c **** *
 119:Generated_Source\PSoC4/SPIM.c **** *******************************************************************************/
 120:Generated_Source\PSoC4/SPIM.c **** void SPIM_Enable(void) 
 121:Generated_Source\PSoC4/SPIM.c **** {
 122:Generated_Source\PSoC4/SPIM.c ****     uint8 enableInterrupts;
 123:Generated_Source\PSoC4/SPIM.c **** 
 124:Generated_Source\PSoC4/SPIM.c ****     enableInterrupts = CyEnterCriticalSection();
 125:Generated_Source\PSoC4/SPIM.c ****     SPIM_COUNTER_CONTROL_REG |= SPIM_CNTR_ENABLE;
 126:Generated_Source\PSoC4/SPIM.c ****     SPIM_TX_STATUS_ACTL_REG  |= SPIM_INT_ENABLE;
 127:Generated_Source\PSoC4/SPIM.c ****     SPIM_RX_STATUS_ACTL_REG  |= SPIM_INT_ENABLE;
 128:Generated_Source\PSoC4/SPIM.c ****     CyExitCriticalSection(enableInterrupts);
 129:Generated_Source\PSoC4/SPIM.c **** 
 130:Generated_Source\PSoC4/SPIM.c ****     #if(0u != SPIM_INTERNAL_CLOCK)
 131:Generated_Source\PSoC4/SPIM.c ****         SPIM_IntClock_Enable();
 132:Generated_Source\PSoC4/SPIM.c ****     #endif /* (0u != SPIM_INTERNAL_CLOCK) */
 133:Generated_Source\PSoC4/SPIM.c **** 
 134:Generated_Source\PSoC4/SPIM.c ****     SPIM_EnableTxInt();
 135:Generated_Source\PSoC4/SPIM.c ****     SPIM_EnableRxInt();
 136:Generated_Source\PSoC4/SPIM.c **** }
 137:Generated_Source\PSoC4/SPIM.c **** 
 138:Generated_Source\PSoC4/SPIM.c **** 
 139:Generated_Source\PSoC4/SPIM.c **** /*******************************************************************************
 140:Generated_Source\PSoC4/SPIM.c **** * Function Name: SPIM_Start
 141:Generated_Source\PSoC4/SPIM.c **** ********************************************************************************
 142:Generated_Source\PSoC4/SPIM.c **** *
 143:Generated_Source\PSoC4/SPIM.c **** * Summary:
 144:Generated_Source\PSoC4/SPIM.c **** *  Initialize and Enable the SPI Master component.
ARM GAS  C:\Users\Kayas\AppData\Local\Temp\ccI1sZTk.s 			page 4


 145:Generated_Source\PSoC4/SPIM.c **** *
 146:Generated_Source\PSoC4/SPIM.c **** * Parameters:
 147:Generated_Source\PSoC4/SPIM.c **** *  None.
 148:Generated_Source\PSoC4/SPIM.c **** *
 149:Generated_Source\PSoC4/SPIM.c **** * Return:
 150:Generated_Source\PSoC4/SPIM.c **** *  None.
 151:Generated_Source\PSoC4/SPIM.c **** *
 152:Generated_Source\PSoC4/SPIM.c **** * Global variables:
 153:Generated_Source\PSoC4/SPIM.c **** *  SPIM_initVar - used to check initial configuration, modified on
 154:Generated_Source\PSoC4/SPIM.c **** *  first function call.
 155:Generated_Source\PSoC4/SPIM.c **** *
 156:Generated_Source\PSoC4/SPIM.c **** * Theory:
 157:Generated_Source\PSoC4/SPIM.c **** *  Enable the clock input to enable operation.
 158:Generated_Source\PSoC4/SPIM.c **** *
 159:Generated_Source\PSoC4/SPIM.c **** * Reentrant:
 160:Generated_Source\PSoC4/SPIM.c **** *  No.
 161:Generated_Source\PSoC4/SPIM.c **** *
 162:Generated_Source\PSoC4/SPIM.c **** *******************************************************************************/
 163:Generated_Source\PSoC4/SPIM.c **** void SPIM_Start(void) 
 164:Generated_Source\PSoC4/SPIM.c **** {
 165:Generated_Source\PSoC4/SPIM.c ****     if(0u == SPIM_initVar)
 166:Generated_Source\PSoC4/SPIM.c ****     {
 167:Generated_Source\PSoC4/SPIM.c ****         SPIM_Init();
 168:Generated_Source\PSoC4/SPIM.c ****         SPIM_initVar = 1u;
 169:Generated_Source\PSoC4/SPIM.c ****     }
 170:Generated_Source\PSoC4/SPIM.c **** 
 171:Generated_Source\PSoC4/SPIM.c ****     SPIM_Enable();
 172:Generated_Source\PSoC4/SPIM.c **** }
 173:Generated_Source\PSoC4/SPIM.c **** 
 174:Generated_Source\PSoC4/SPIM.c **** 
 175:Generated_Source\PSoC4/SPIM.c **** /*******************************************************************************
 176:Generated_Source\PSoC4/SPIM.c **** * Function Name: SPIM_Stop
 177:Generated_Source\PSoC4/SPIM.c **** ********************************************************************************
 178:Generated_Source\PSoC4/SPIM.c **** *
 179:Generated_Source\PSoC4/SPIM.c **** * Summary:
 180:Generated_Source\PSoC4/SPIM.c **** *  Disable the SPI Master component.
 181:Generated_Source\PSoC4/SPIM.c **** *
 182:Generated_Source\PSoC4/SPIM.c **** * Parameters:
 183:Generated_Source\PSoC4/SPIM.c **** *  None.
 184:Generated_Source\PSoC4/SPIM.c **** *
 185:Generated_Source\PSoC4/SPIM.c **** * Return:
 186:Generated_Source\PSoC4/SPIM.c **** *  None.
 187:Generated_Source\PSoC4/SPIM.c **** *
 188:Generated_Source\PSoC4/SPIM.c **** * Theory:
 189:Generated_Source\PSoC4/SPIM.c **** *  Disable the clock input to enable operation.
 190:Generated_Source\PSoC4/SPIM.c **** *
 191:Generated_Source\PSoC4/SPIM.c **** *******************************************************************************/
 192:Generated_Source\PSoC4/SPIM.c **** void SPIM_Stop(void) 
 193:Generated_Source\PSoC4/SPIM.c **** {
 194:Generated_Source\PSoC4/SPIM.c ****     uint8 enableInterrupts;
 195:Generated_Source\PSoC4/SPIM.c **** 
 196:Generated_Source\PSoC4/SPIM.c ****     enableInterrupts = CyEnterCriticalSection();
 197:Generated_Source\PSoC4/SPIM.c ****     SPIM_TX_STATUS_ACTL_REG &= ((uint8) ~SPIM_INT_ENABLE);
 198:Generated_Source\PSoC4/SPIM.c ****     SPIM_RX_STATUS_ACTL_REG &= ((uint8) ~SPIM_INT_ENABLE);
 199:Generated_Source\PSoC4/SPIM.c ****     CyExitCriticalSection(enableInterrupts);
 200:Generated_Source\PSoC4/SPIM.c **** 
 201:Generated_Source\PSoC4/SPIM.c ****     #if(0u != SPIM_INTERNAL_CLOCK)
ARM GAS  C:\Users\Kayas\AppData\Local\Temp\ccI1sZTk.s 			page 5


 202:Generated_Source\PSoC4/SPIM.c ****         SPIM_IntClock_Disable();
 203:Generated_Source\PSoC4/SPIM.c ****     #endif /* (0u != SPIM_INTERNAL_CLOCK) */
 204:Generated_Source\PSoC4/SPIM.c **** 
 205:Generated_Source\PSoC4/SPIM.c ****     SPIM_DisableTxInt();
 206:Generated_Source\PSoC4/SPIM.c ****     SPIM_DisableRxInt();
 207:Generated_Source\PSoC4/SPIM.c **** }
 208:Generated_Source\PSoC4/SPIM.c **** 
 209:Generated_Source\PSoC4/SPIM.c **** 
 210:Generated_Source\PSoC4/SPIM.c **** /*******************************************************************************
 211:Generated_Source\PSoC4/SPIM.c **** * Function Name: SPIM_EnableTxInt
 212:Generated_Source\PSoC4/SPIM.c **** ********************************************************************************
 213:Generated_Source\PSoC4/SPIM.c **** *
 214:Generated_Source\PSoC4/SPIM.c **** * Summary:
 215:Generated_Source\PSoC4/SPIM.c **** *  Enable internal Tx interrupt generation.
 216:Generated_Source\PSoC4/SPIM.c **** *
 217:Generated_Source\PSoC4/SPIM.c **** * Parameters:
 218:Generated_Source\PSoC4/SPIM.c **** *  None.
 219:Generated_Source\PSoC4/SPIM.c **** *
 220:Generated_Source\PSoC4/SPIM.c **** * Return:
 221:Generated_Source\PSoC4/SPIM.c **** *  None.
 222:Generated_Source\PSoC4/SPIM.c **** *
 223:Generated_Source\PSoC4/SPIM.c **** * Theory:
 224:Generated_Source\PSoC4/SPIM.c **** *  Enable the internal Tx interrupt output -or- the interrupt component itself.
 225:Generated_Source\PSoC4/SPIM.c **** *
 226:Generated_Source\PSoC4/SPIM.c **** *******************************************************************************/
 227:Generated_Source\PSoC4/SPIM.c **** void SPIM_EnableTxInt(void) 
 228:Generated_Source\PSoC4/SPIM.c **** {
  28              		.loc 1 228 0
  29              		.cfi_startproc
  30              		@ args = 0, pretend = 0, frame = 0
  31              		@ frame_needed = 0, uses_anonymous_args = 0
  32 0000 10B5     		push	{r4, lr}
  33              		.cfi_def_cfa_offset 8
  34              		.cfi_offset 4, -8
  35              		.cfi_offset 14, -4
 229:Generated_Source\PSoC4/SPIM.c ****     #if(0u != SPIM_INTERNAL_TX_INT_ENABLED)
 230:Generated_Source\PSoC4/SPIM.c ****         CyIntEnable(SPIM_TX_ISR_NUMBER);
  36              		.loc 1 230 0
  37 0002 0220     		movs	r0, #2
  38 0004 FFF7FEFF 		bl	CyIntEnable
  39              	.LVL0:
 231:Generated_Source\PSoC4/SPIM.c ****     #endif /* (0u != SPIM_INTERNAL_TX_INT_ENABLED) */
 232:Generated_Source\PSoC4/SPIM.c **** }
  40              		.loc 1 232 0
  41              		@ sp needed
  42 0008 10BD     		pop	{r4, pc}
  43              		.cfi_endproc
  44              	.LFE4:
  45              		.size	SPIM_EnableTxInt, .-SPIM_EnableTxInt
  46 000a C046     		.section	.text.SPIM_EnableRxInt,"ax",%progbits
  47              		.align	2
  48              		.global	SPIM_EnableRxInt
  49              		.code	16
  50              		.thumb_func
  51              		.type	SPIM_EnableRxInt, %function
  52              	SPIM_EnableRxInt:
  53              	.LFB5:
ARM GAS  C:\Users\Kayas\AppData\Local\Temp\ccI1sZTk.s 			page 6


 233:Generated_Source\PSoC4/SPIM.c **** 
 234:Generated_Source\PSoC4/SPIM.c **** 
 235:Generated_Source\PSoC4/SPIM.c **** /*******************************************************************************
 236:Generated_Source\PSoC4/SPIM.c **** * Function Name: SPIM_EnableRxInt
 237:Generated_Source\PSoC4/SPIM.c **** ********************************************************************************
 238:Generated_Source\PSoC4/SPIM.c **** *
 239:Generated_Source\PSoC4/SPIM.c **** * Summary:
 240:Generated_Source\PSoC4/SPIM.c **** *  Enable internal Rx interrupt generation.
 241:Generated_Source\PSoC4/SPIM.c **** *
 242:Generated_Source\PSoC4/SPIM.c **** * Parameters:
 243:Generated_Source\PSoC4/SPIM.c **** *  None.
 244:Generated_Source\PSoC4/SPIM.c **** *
 245:Generated_Source\PSoC4/SPIM.c **** * Return:
 246:Generated_Source\PSoC4/SPIM.c **** *  None.
 247:Generated_Source\PSoC4/SPIM.c **** *
 248:Generated_Source\PSoC4/SPIM.c **** * Theory:
 249:Generated_Source\PSoC4/SPIM.c **** *  Enable the internal Rx interrupt output -or- the interrupt component itself.
 250:Generated_Source\PSoC4/SPIM.c **** *
 251:Generated_Source\PSoC4/SPIM.c **** *******************************************************************************/
 252:Generated_Source\PSoC4/SPIM.c **** void SPIM_EnableRxInt(void) 
 253:Generated_Source\PSoC4/SPIM.c **** {
  54              		.loc 1 253 0
  55              		.cfi_startproc
  56              		@ args = 0, pretend = 0, frame = 0
  57              		@ frame_needed = 0, uses_anonymous_args = 0
  58 0000 10B5     		push	{r4, lr}
  59              		.cfi_def_cfa_offset 8
  60              		.cfi_offset 4, -8
  61              		.cfi_offset 14, -4
 254:Generated_Source\PSoC4/SPIM.c ****     #if(0u != SPIM_INTERNAL_RX_INT_ENABLED)
 255:Generated_Source\PSoC4/SPIM.c ****         CyIntEnable(SPIM_RX_ISR_NUMBER);
  62              		.loc 1 255 0
  63 0002 0020     		movs	r0, #0
  64 0004 FFF7FEFF 		bl	CyIntEnable
  65              	.LVL1:
 256:Generated_Source\PSoC4/SPIM.c ****     #endif /* (0u != SPIM_INTERNAL_RX_INT_ENABLED) */
 257:Generated_Source\PSoC4/SPIM.c **** }
  66              		.loc 1 257 0
  67              		@ sp needed
  68 0008 10BD     		pop	{r4, pc}
  69              		.cfi_endproc
  70              	.LFE5:
  71              		.size	SPIM_EnableRxInt, .-SPIM_EnableRxInt
  72 000a C046     		.section	.text.SPIM_Enable,"ax",%progbits
  73              		.align	2
  74              		.global	SPIM_Enable
  75              		.code	16
  76              		.thumb_func
  77              		.type	SPIM_Enable, %function
  78              	SPIM_Enable:
  79              	.LFB1:
 121:Generated_Source\PSoC4/SPIM.c ****     uint8 enableInterrupts;
  80              		.loc 1 121 0
  81              		.cfi_startproc
  82              		@ args = 0, pretend = 0, frame = 0
  83              		@ frame_needed = 0, uses_anonymous_args = 0
  84 0000 10B5     		push	{r4, lr}
ARM GAS  C:\Users\Kayas\AppData\Local\Temp\ccI1sZTk.s 			page 7


  85              		.cfi_def_cfa_offset 8
  86              		.cfi_offset 4, -8
  87              		.cfi_offset 14, -4
 124:Generated_Source\PSoC4/SPIM.c ****     SPIM_COUNTER_CONTROL_REG |= SPIM_CNTR_ENABLE;
  88              		.loc 1 124 0
  89 0002 FFF7FEFF 		bl	CyEnterCriticalSection
  90              	.LVL2:
 125:Generated_Source\PSoC4/SPIM.c ****     SPIM_TX_STATUS_ACTL_REG  |= SPIM_INT_ENABLE;
  91              		.loc 1 125 0
  92 0006 0D4A     		ldr	r2, .L4
  93 0008 1178     		ldrb	r1, [r2]
  94 000a 2023     		movs	r3, #32
  95 000c 0B43     		orrs	r3, r1
  96 000e DBB2     		uxtb	r3, r3
  97 0010 1370     		strb	r3, [r2]
 126:Generated_Source\PSoC4/SPIM.c ****     SPIM_RX_STATUS_ACTL_REG  |= SPIM_INT_ENABLE;
  98              		.loc 1 126 0
  99 0012 0B49     		ldr	r1, .L4+4
 100 0014 0A78     		ldrb	r2, [r1]
 101 0016 1023     		movs	r3, #16
 102 0018 1A43     		orrs	r2, r3
 103 001a D2B2     		uxtb	r2, r2
 104 001c 0A70     		strb	r2, [r1]
 127:Generated_Source\PSoC4/SPIM.c ****     CyExitCriticalSection(enableInterrupts);
 105              		.loc 1 127 0
 106 001e 094A     		ldr	r2, .L4+8
 107 0020 1178     		ldrb	r1, [r2]
 108 0022 0B43     		orrs	r3, r1
 109 0024 DBB2     		uxtb	r3, r3
 110 0026 1370     		strb	r3, [r2]
 128:Generated_Source\PSoC4/SPIM.c **** 
 111              		.loc 1 128 0
 112 0028 FFF7FEFF 		bl	CyExitCriticalSection
 113              	.LVL3:
 131:Generated_Source\PSoC4/SPIM.c ****     #endif /* (0u != SPIM_INTERNAL_CLOCK) */
 114              		.loc 1 131 0
 115 002c FFF7FEFF 		bl	SPIM_IntClock_Start
 116              	.LVL4:
 134:Generated_Source\PSoC4/SPIM.c ****     SPIM_EnableRxInt();
 117              		.loc 1 134 0
 118 0030 FFF7FEFF 		bl	SPIM_EnableTxInt
 119              	.LVL5:
 135:Generated_Source\PSoC4/SPIM.c **** }
 120              		.loc 1 135 0
 121 0034 FFF7FEFF 		bl	SPIM_EnableRxInt
 122              	.LVL6:
 136:Generated_Source\PSoC4/SPIM.c **** 
 123              		.loc 1 136 0
 124              		@ sp needed
 125 0038 10BD     		pop	{r4, pc}
 126              	.L5:
 127 003a C046     		.align	2
 128              	.L4:
 129 003c 93000F40 		.word	1074725011
 130 0040 91000F40 		.word	1074725009
 131 0044 92000F40 		.word	1074725010
 132              		.cfi_endproc
ARM GAS  C:\Users\Kayas\AppData\Local\Temp\ccI1sZTk.s 			page 8


 133              	.LFE1:
 134              		.size	SPIM_Enable, .-SPIM_Enable
 135              		.section	.text.SPIM_DisableTxInt,"ax",%progbits
 136              		.align	2
 137              		.global	SPIM_DisableTxInt
 138              		.code	16
 139              		.thumb_func
 140              		.type	SPIM_DisableTxInt, %function
 141              	SPIM_DisableTxInt:
 142              	.LFB6:
 258:Generated_Source\PSoC4/SPIM.c **** 
 259:Generated_Source\PSoC4/SPIM.c **** 
 260:Generated_Source\PSoC4/SPIM.c **** /*******************************************************************************
 261:Generated_Source\PSoC4/SPIM.c **** * Function Name: SPIM_DisableTxInt
 262:Generated_Source\PSoC4/SPIM.c **** ********************************************************************************
 263:Generated_Source\PSoC4/SPIM.c **** *
 264:Generated_Source\PSoC4/SPIM.c **** * Summary:
 265:Generated_Source\PSoC4/SPIM.c **** *  Disable internal Tx interrupt generation.
 266:Generated_Source\PSoC4/SPIM.c **** *
 267:Generated_Source\PSoC4/SPIM.c **** * Parameters:
 268:Generated_Source\PSoC4/SPIM.c **** *  None.
 269:Generated_Source\PSoC4/SPIM.c **** *
 270:Generated_Source\PSoC4/SPIM.c **** * Return:
 271:Generated_Source\PSoC4/SPIM.c **** *  None.
 272:Generated_Source\PSoC4/SPIM.c **** *
 273:Generated_Source\PSoC4/SPIM.c **** * Theory:
 274:Generated_Source\PSoC4/SPIM.c **** *  Disable the internal Tx interrupt output -or- the interrupt component itself.
 275:Generated_Source\PSoC4/SPIM.c **** *
 276:Generated_Source\PSoC4/SPIM.c **** *******************************************************************************/
 277:Generated_Source\PSoC4/SPIM.c **** void SPIM_DisableTxInt(void) 
 278:Generated_Source\PSoC4/SPIM.c **** {
 143              		.loc 1 278 0
 144              		.cfi_startproc
 145              		@ args = 0, pretend = 0, frame = 0
 146              		@ frame_needed = 0, uses_anonymous_args = 0
 147 0000 10B5     		push	{r4, lr}
 148              		.cfi_def_cfa_offset 8
 149              		.cfi_offset 4, -8
 150              		.cfi_offset 14, -4
 279:Generated_Source\PSoC4/SPIM.c ****     #if(0u != SPIM_INTERNAL_TX_INT_ENABLED)
 280:Generated_Source\PSoC4/SPIM.c ****         CyIntDisable(SPIM_TX_ISR_NUMBER);
 151              		.loc 1 280 0
 152 0002 0220     		movs	r0, #2
 153 0004 FFF7FEFF 		bl	CyIntDisable
 154              	.LVL7:
 281:Generated_Source\PSoC4/SPIM.c ****     #endif /* (0u != SPIM_INTERNAL_TX_INT_ENABLED) */
 282:Generated_Source\PSoC4/SPIM.c **** }
 155              		.loc 1 282 0
 156              		@ sp needed
 157 0008 10BD     		pop	{r4, pc}
 158              		.cfi_endproc
 159              	.LFE6:
 160              		.size	SPIM_DisableTxInt, .-SPIM_DisableTxInt
 161 000a C046     		.section	.text.SPIM_DisableRxInt,"ax",%progbits
 162              		.align	2
 163              		.global	SPIM_DisableRxInt
 164              		.code	16
ARM GAS  C:\Users\Kayas\AppData\Local\Temp\ccI1sZTk.s 			page 9


 165              		.thumb_func
 166              		.type	SPIM_DisableRxInt, %function
 167              	SPIM_DisableRxInt:
 168              	.LFB7:
 283:Generated_Source\PSoC4/SPIM.c **** 
 284:Generated_Source\PSoC4/SPIM.c **** 
 285:Generated_Source\PSoC4/SPIM.c **** /*******************************************************************************
 286:Generated_Source\PSoC4/SPIM.c **** * Function Name: SPIM_DisableRxInt
 287:Generated_Source\PSoC4/SPIM.c **** ********************************************************************************
 288:Generated_Source\PSoC4/SPIM.c **** *
 289:Generated_Source\PSoC4/SPIM.c **** * Summary:
 290:Generated_Source\PSoC4/SPIM.c **** *  Disable internal Rx interrupt generation.
 291:Generated_Source\PSoC4/SPIM.c **** *
 292:Generated_Source\PSoC4/SPIM.c **** * Parameters:
 293:Generated_Source\PSoC4/SPIM.c **** *  None.
 294:Generated_Source\PSoC4/SPIM.c **** *
 295:Generated_Source\PSoC4/SPIM.c **** * Return:
 296:Generated_Source\PSoC4/SPIM.c **** *  None.
 297:Generated_Source\PSoC4/SPIM.c **** *
 298:Generated_Source\PSoC4/SPIM.c **** * Theory:
 299:Generated_Source\PSoC4/SPIM.c **** *  Disable the internal Rx interrupt output -or- the interrupt component itself.
 300:Generated_Source\PSoC4/SPIM.c **** *
 301:Generated_Source\PSoC4/SPIM.c **** *******************************************************************************/
 302:Generated_Source\PSoC4/SPIM.c **** void SPIM_DisableRxInt(void) 
 303:Generated_Source\PSoC4/SPIM.c **** {
 169              		.loc 1 303 0
 170              		.cfi_startproc
 171              		@ args = 0, pretend = 0, frame = 0
 172              		@ frame_needed = 0, uses_anonymous_args = 0
 173 0000 10B5     		push	{r4, lr}
 174              		.cfi_def_cfa_offset 8
 175              		.cfi_offset 4, -8
 176              		.cfi_offset 14, -4
 304:Generated_Source\PSoC4/SPIM.c ****     #if(0u != SPIM_INTERNAL_RX_INT_ENABLED)
 305:Generated_Source\PSoC4/SPIM.c ****         CyIntDisable(SPIM_RX_ISR_NUMBER);
 177              		.loc 1 305 0
 178 0002 0020     		movs	r0, #0
 179 0004 FFF7FEFF 		bl	CyIntDisable
 180              	.LVL8:
 306:Generated_Source\PSoC4/SPIM.c ****     #endif /* (0u != SPIM_INTERNAL_RX_INT_ENABLED) */
 307:Generated_Source\PSoC4/SPIM.c **** }
 181              		.loc 1 307 0
 182              		@ sp needed
 183 0008 10BD     		pop	{r4, pc}
 184              		.cfi_endproc
 185              	.LFE7:
 186              		.size	SPIM_DisableRxInt, .-SPIM_DisableRxInt
 187 000a C046     		.section	.text.SPIM_Stop,"ax",%progbits
 188              		.align	2
 189              		.global	SPIM_Stop
 190              		.code	16
 191              		.thumb_func
 192              		.type	SPIM_Stop, %function
 193              	SPIM_Stop:
 194              	.LFB3:
 193:Generated_Source\PSoC4/SPIM.c ****     uint8 enableInterrupts;
 195              		.loc 1 193 0
ARM GAS  C:\Users\Kayas\AppData\Local\Temp\ccI1sZTk.s 			page 10


 196              		.cfi_startproc
 197              		@ args = 0, pretend = 0, frame = 0
 198              		@ frame_needed = 0, uses_anonymous_args = 0
 199 0000 10B5     		push	{r4, lr}
 200              		.cfi_def_cfa_offset 8
 201              		.cfi_offset 4, -8
 202              		.cfi_offset 14, -4
 196:Generated_Source\PSoC4/SPIM.c ****     SPIM_TX_STATUS_ACTL_REG &= ((uint8) ~SPIM_INT_ENABLE);
 203              		.loc 1 196 0
 204 0002 FFF7FEFF 		bl	CyEnterCriticalSection
 205              	.LVL9:
 197:Generated_Source\PSoC4/SPIM.c ****     SPIM_RX_STATUS_ACTL_REG &= ((uint8) ~SPIM_INT_ENABLE);
 206              		.loc 1 197 0
 207 0006 094A     		ldr	r2, .L9
 208 0008 1378     		ldrb	r3, [r2]
 209 000a 1021     		movs	r1, #16
 210 000c 8B43     		bics	r3, r1
 211 000e 1370     		strb	r3, [r2]
 198:Generated_Source\PSoC4/SPIM.c ****     CyExitCriticalSection(enableInterrupts);
 212              		.loc 1 198 0
 213 0010 074A     		ldr	r2, .L9+4
 214 0012 1378     		ldrb	r3, [r2]
 215 0014 8B43     		bics	r3, r1
 216 0016 1370     		strb	r3, [r2]
 199:Generated_Source\PSoC4/SPIM.c **** 
 217              		.loc 1 199 0
 218 0018 FFF7FEFF 		bl	CyExitCriticalSection
 219              	.LVL10:
 202:Generated_Source\PSoC4/SPIM.c ****     #endif /* (0u != SPIM_INTERNAL_CLOCK) */
 220              		.loc 1 202 0
 221 001c FFF7FEFF 		bl	SPIM_IntClock_Stop
 222              	.LVL11:
 205:Generated_Source\PSoC4/SPIM.c ****     SPIM_DisableRxInt();
 223              		.loc 1 205 0
 224 0020 FFF7FEFF 		bl	SPIM_DisableTxInt
 225              	.LVL12:
 206:Generated_Source\PSoC4/SPIM.c **** }
 226              		.loc 1 206 0
 227 0024 FFF7FEFF 		bl	SPIM_DisableRxInt
 228              	.LVL13:
 207:Generated_Source\PSoC4/SPIM.c **** 
 229              		.loc 1 207 0
 230              		@ sp needed
 231 0028 10BD     		pop	{r4, pc}
 232              	.L10:
 233 002a C046     		.align	2
 234              	.L9:
 235 002c 91000F40 		.word	1074725009
 236 0030 92000F40 		.word	1074725010
 237              		.cfi_endproc
 238              	.LFE3:
 239              		.size	SPIM_Stop, .-SPIM_Stop
 240              		.section	.text.SPIM_SetTxInterruptMode,"ax",%progbits
 241              		.align	2
 242              		.global	SPIM_SetTxInterruptMode
 243              		.code	16
 244              		.thumb_func
ARM GAS  C:\Users\Kayas\AppData\Local\Temp\ccI1sZTk.s 			page 11


 245              		.type	SPIM_SetTxInterruptMode, %function
 246              	SPIM_SetTxInterruptMode:
 247              	.LFB8:
 308:Generated_Source\PSoC4/SPIM.c **** 
 309:Generated_Source\PSoC4/SPIM.c **** 
 310:Generated_Source\PSoC4/SPIM.c **** /*******************************************************************************
 311:Generated_Source\PSoC4/SPIM.c **** * Function Name: SPIM_SetTxInterruptMode
 312:Generated_Source\PSoC4/SPIM.c **** ********************************************************************************
 313:Generated_Source\PSoC4/SPIM.c **** *
 314:Generated_Source\PSoC4/SPIM.c **** * Summary:
 315:Generated_Source\PSoC4/SPIM.c **** *  Configure which status bits trigger an interrupt event.
 316:Generated_Source\PSoC4/SPIM.c **** *
 317:Generated_Source\PSoC4/SPIM.c **** * Parameters:
 318:Generated_Source\PSoC4/SPIM.c **** *  intSrc: An or'd combination of the desired status bit masks (defined in the
 319:Generated_Source\PSoC4/SPIM.c **** *  header file).
 320:Generated_Source\PSoC4/SPIM.c **** *
 321:Generated_Source\PSoC4/SPIM.c **** * Return:
 322:Generated_Source\PSoC4/SPIM.c **** *  None.
 323:Generated_Source\PSoC4/SPIM.c **** *
 324:Generated_Source\PSoC4/SPIM.c **** * Theory:
 325:Generated_Source\PSoC4/SPIM.c **** *  Enables the output of specific status bits to the interrupt controller.
 326:Generated_Source\PSoC4/SPIM.c **** *
 327:Generated_Source\PSoC4/SPIM.c **** *******************************************************************************/
 328:Generated_Source\PSoC4/SPIM.c **** void SPIM_SetTxInterruptMode(uint8 intSrc) 
 329:Generated_Source\PSoC4/SPIM.c **** {
 248              		.loc 1 329 0
 249              		.cfi_startproc
 250              		@ args = 0, pretend = 0, frame = 0
 251              		@ frame_needed = 0, uses_anonymous_args = 0
 252              		@ link register save eliminated.
 253              	.LVL14:
 330:Generated_Source\PSoC4/SPIM.c ****     SPIM_TX_STATUS_MASK_REG = intSrc;
 254              		.loc 1 330 0
 255 0000 014B     		ldr	r3, .L12
 256 0002 1870     		strb	r0, [r3]
 331:Generated_Source\PSoC4/SPIM.c **** }
 257              		.loc 1 331 0
 258              		@ sp needed
 259 0004 7047     		bx	lr
 260              	.L13:
 261 0006 C046     		.align	2
 262              	.L12:
 263 0008 81000F40 		.word	1074724993
 264              		.cfi_endproc
 265              	.LFE8:
 266              		.size	SPIM_SetTxInterruptMode, .-SPIM_SetTxInterruptMode
 267              		.section	.text.SPIM_SetRxInterruptMode,"ax",%progbits
 268              		.align	2
 269              		.global	SPIM_SetRxInterruptMode
 270              		.code	16
 271              		.thumb_func
 272              		.type	SPIM_SetRxInterruptMode, %function
 273              	SPIM_SetRxInterruptMode:
 274              	.LFB9:
 332:Generated_Source\PSoC4/SPIM.c **** 
 333:Generated_Source\PSoC4/SPIM.c **** 
 334:Generated_Source\PSoC4/SPIM.c **** /*******************************************************************************
ARM GAS  C:\Users\Kayas\AppData\Local\Temp\ccI1sZTk.s 			page 12


 335:Generated_Source\PSoC4/SPIM.c **** * Function Name: SPIM_SetRxInterruptMode
 336:Generated_Source\PSoC4/SPIM.c **** ********************************************************************************
 337:Generated_Source\PSoC4/SPIM.c **** *
 338:Generated_Source\PSoC4/SPIM.c **** * Summary:
 339:Generated_Source\PSoC4/SPIM.c **** *  Configure which status bits trigger an interrupt event.
 340:Generated_Source\PSoC4/SPIM.c **** *
 341:Generated_Source\PSoC4/SPIM.c **** * Parameters:
 342:Generated_Source\PSoC4/SPIM.c **** *  intSrc: An or'd combination of the desired status bit masks (defined in the
 343:Generated_Source\PSoC4/SPIM.c **** *  header file).
 344:Generated_Source\PSoC4/SPIM.c **** *
 345:Generated_Source\PSoC4/SPIM.c **** * Return:
 346:Generated_Source\PSoC4/SPIM.c **** *  None.
 347:Generated_Source\PSoC4/SPIM.c **** *
 348:Generated_Source\PSoC4/SPIM.c **** * Theory:
 349:Generated_Source\PSoC4/SPIM.c **** *  Enables the output of specific status bits to the interrupt controller.
 350:Generated_Source\PSoC4/SPIM.c **** *
 351:Generated_Source\PSoC4/SPIM.c **** *******************************************************************************/
 352:Generated_Source\PSoC4/SPIM.c **** void SPIM_SetRxInterruptMode(uint8 intSrc) 
 353:Generated_Source\PSoC4/SPIM.c **** {
 275              		.loc 1 353 0
 276              		.cfi_startproc
 277              		@ args = 0, pretend = 0, frame = 0
 278              		@ frame_needed = 0, uses_anonymous_args = 0
 279              		@ link register save eliminated.
 280              	.LVL15:
 354:Generated_Source\PSoC4/SPIM.c ****     SPIM_RX_STATUS_MASK_REG  = intSrc;
 281              		.loc 1 354 0
 282 0000 014B     		ldr	r3, .L15
 283 0002 1870     		strb	r0, [r3]
 355:Generated_Source\PSoC4/SPIM.c **** }
 284              		.loc 1 355 0
 285              		@ sp needed
 286 0004 7047     		bx	lr
 287              	.L16:
 288 0006 C046     		.align	2
 289              	.L15:
 290 0008 82000F40 		.word	1074724994
 291              		.cfi_endproc
 292              	.LFE9:
 293              		.size	SPIM_SetRxInterruptMode, .-SPIM_SetRxInterruptMode
 294              		.section	.text.SPIM_ReadTxStatus,"ax",%progbits
 295              		.align	2
 296              		.global	SPIM_ReadTxStatus
 297              		.code	16
 298              		.thumb_func
 299              		.type	SPIM_ReadTxStatus, %function
 300              	SPIM_ReadTxStatus:
 301              	.LFB10:
 356:Generated_Source\PSoC4/SPIM.c **** 
 357:Generated_Source\PSoC4/SPIM.c **** 
 358:Generated_Source\PSoC4/SPIM.c **** /*******************************************************************************
 359:Generated_Source\PSoC4/SPIM.c **** * Function Name: SPIM_ReadTxStatus
 360:Generated_Source\PSoC4/SPIM.c **** ********************************************************************************
 361:Generated_Source\PSoC4/SPIM.c **** *
 362:Generated_Source\PSoC4/SPIM.c **** * Summary:
 363:Generated_Source\PSoC4/SPIM.c **** *  Read the Tx status register for the component.
 364:Generated_Source\PSoC4/SPIM.c **** *
ARM GAS  C:\Users\Kayas\AppData\Local\Temp\ccI1sZTk.s 			page 13


 365:Generated_Source\PSoC4/SPIM.c **** * Parameters:
 366:Generated_Source\PSoC4/SPIM.c **** *  None.
 367:Generated_Source\PSoC4/SPIM.c **** *
 368:Generated_Source\PSoC4/SPIM.c **** * Return:
 369:Generated_Source\PSoC4/SPIM.c **** *  Contents of the Tx status register.
 370:Generated_Source\PSoC4/SPIM.c **** *
 371:Generated_Source\PSoC4/SPIM.c **** * Global variables:
 372:Generated_Source\PSoC4/SPIM.c **** *  SPIM_swStatusTx - used to store in software status register,
 373:Generated_Source\PSoC4/SPIM.c **** *  modified every function call - resets to zero.
 374:Generated_Source\PSoC4/SPIM.c **** *
 375:Generated_Source\PSoC4/SPIM.c **** * Theory:
 376:Generated_Source\PSoC4/SPIM.c **** *  Allows the user and the API to read the Tx status register for error
 377:Generated_Source\PSoC4/SPIM.c **** *  detection and flow control.
 378:Generated_Source\PSoC4/SPIM.c **** *
 379:Generated_Source\PSoC4/SPIM.c **** * Side Effects:
 380:Generated_Source\PSoC4/SPIM.c **** *  Clear Tx status register of the component.
 381:Generated_Source\PSoC4/SPIM.c **** *
 382:Generated_Source\PSoC4/SPIM.c **** * Reentrant:
 383:Generated_Source\PSoC4/SPIM.c **** *  No.
 384:Generated_Source\PSoC4/SPIM.c **** *
 385:Generated_Source\PSoC4/SPIM.c **** *******************************************************************************/
 386:Generated_Source\PSoC4/SPIM.c **** uint8 SPIM_ReadTxStatus(void) 
 387:Generated_Source\PSoC4/SPIM.c **** {
 302              		.loc 1 387 0
 303              		.cfi_startproc
 304              		@ args = 0, pretend = 0, frame = 0
 305              		@ frame_needed = 0, uses_anonymous_args = 0
 306 0000 10B5     		push	{r4, lr}
 307              		.cfi_def_cfa_offset 8
 308              		.cfi_offset 4, -8
 309              		.cfi_offset 14, -4
 388:Generated_Source\PSoC4/SPIM.c ****     uint8 tmpStatus;
 389:Generated_Source\PSoC4/SPIM.c **** 
 390:Generated_Source\PSoC4/SPIM.c ****     #if(SPIM_TX_SOFTWARE_BUF_ENABLED)
 391:Generated_Source\PSoC4/SPIM.c ****         /* Disable TX interrupt to protect global veriables */
 392:Generated_Source\PSoC4/SPIM.c ****         SPIM_DisableTxInt();
 310              		.loc 1 392 0
 311 0002 FFF7FEFF 		bl	SPIM_DisableTxInt
 312              	.LVL16:
 393:Generated_Source\PSoC4/SPIM.c **** 
 394:Generated_Source\PSoC4/SPIM.c ****         tmpStatus = SPIM_GET_STATUS_TX(SPIM_swStatusTx);
 313              		.loc 1 394 0
 314 0006 064B     		ldr	r3, .L18
 315 0008 1978     		ldrb	r1, [r3]
 316 000a 064A     		ldr	r2, .L18+4
 317 000c 1478     		ldrb	r4, [r2]
 318 000e 0923     		movs	r3, #9
 319 0010 1C40     		ands	r4, r3
 320 0012 0C43     		orrs	r4, r1
 321              	.LVL17:
 395:Generated_Source\PSoC4/SPIM.c ****         SPIM_swStatusTx = 0u;
 322              		.loc 1 395 0
 323 0014 0023     		movs	r3, #0
 324 0016 1370     		strb	r3, [r2]
 396:Generated_Source\PSoC4/SPIM.c **** 
 397:Generated_Source\PSoC4/SPIM.c ****         SPIM_EnableTxInt();
 325              		.loc 1 397 0
ARM GAS  C:\Users\Kayas\AppData\Local\Temp\ccI1sZTk.s 			page 14


 326 0018 FFF7FEFF 		bl	SPIM_EnableTxInt
 327              	.LVL18:
 398:Generated_Source\PSoC4/SPIM.c **** 
 399:Generated_Source\PSoC4/SPIM.c ****     #else
 400:Generated_Source\PSoC4/SPIM.c **** 
 401:Generated_Source\PSoC4/SPIM.c ****         tmpStatus = SPIM_TX_STATUS_REG;
 402:Generated_Source\PSoC4/SPIM.c **** 
 403:Generated_Source\PSoC4/SPIM.c ****     #endif /* (SPIM_TX_SOFTWARE_BUF_ENABLED) */
 404:Generated_Source\PSoC4/SPIM.c **** 
 405:Generated_Source\PSoC4/SPIM.c ****     return(tmpStatus);
 406:Generated_Source\PSoC4/SPIM.c **** }
 328              		.loc 1 406 0
 329 001c 2000     		movs	r0, r4
 330              		@ sp needed
 331              	.LVL19:
 332 001e 10BD     		pop	{r4, pc}
 333              	.L19:
 334              		.align	2
 335              	.L18:
 336 0020 61000F40 		.word	1074724961
 337 0024 00000000 		.word	SPIM_swStatusTx
 338              		.cfi_endproc
 339              	.LFE10:
 340              		.size	SPIM_ReadTxStatus, .-SPIM_ReadTxStatus
 341              		.section	.text.SPIM_ReadRxStatus,"ax",%progbits
 342              		.align	2
 343              		.global	SPIM_ReadRxStatus
 344              		.code	16
 345              		.thumb_func
 346              		.type	SPIM_ReadRxStatus, %function
 347              	SPIM_ReadRxStatus:
 348              	.LFB11:
 407:Generated_Source\PSoC4/SPIM.c **** 
 408:Generated_Source\PSoC4/SPIM.c **** 
 409:Generated_Source\PSoC4/SPIM.c **** /*******************************************************************************
 410:Generated_Source\PSoC4/SPIM.c **** * Function Name: SPIM_ReadRxStatus
 411:Generated_Source\PSoC4/SPIM.c **** ********************************************************************************
 412:Generated_Source\PSoC4/SPIM.c **** *
 413:Generated_Source\PSoC4/SPIM.c **** * Summary:
 414:Generated_Source\PSoC4/SPIM.c **** *  Read the Rx status register for the component.
 415:Generated_Source\PSoC4/SPIM.c **** *
 416:Generated_Source\PSoC4/SPIM.c **** * Parameters:
 417:Generated_Source\PSoC4/SPIM.c **** *  None.
 418:Generated_Source\PSoC4/SPIM.c **** *
 419:Generated_Source\PSoC4/SPIM.c **** * Return:
 420:Generated_Source\PSoC4/SPIM.c **** *  Contents of the Rx status register.
 421:Generated_Source\PSoC4/SPIM.c **** *
 422:Generated_Source\PSoC4/SPIM.c **** * Global variables:
 423:Generated_Source\PSoC4/SPIM.c **** *  SPIM_swStatusRx - used to store in software Rx status register,
 424:Generated_Source\PSoC4/SPIM.c **** *  modified every function call - resets to zero.
 425:Generated_Source\PSoC4/SPIM.c **** *
 426:Generated_Source\PSoC4/SPIM.c **** * Theory:
 427:Generated_Source\PSoC4/SPIM.c **** *  Allows the user and the API to read the Rx status register for error
 428:Generated_Source\PSoC4/SPIM.c **** *  detection and flow control.
 429:Generated_Source\PSoC4/SPIM.c **** *
 430:Generated_Source\PSoC4/SPIM.c **** * Side Effects:
 431:Generated_Source\PSoC4/SPIM.c **** *  Clear Rx status register of the component.
ARM GAS  C:\Users\Kayas\AppData\Local\Temp\ccI1sZTk.s 			page 15


 432:Generated_Source\PSoC4/SPIM.c **** *
 433:Generated_Source\PSoC4/SPIM.c **** * Reentrant:
 434:Generated_Source\PSoC4/SPIM.c **** *  No.
 435:Generated_Source\PSoC4/SPIM.c **** *
 436:Generated_Source\PSoC4/SPIM.c **** *******************************************************************************/
 437:Generated_Source\PSoC4/SPIM.c **** uint8 SPIM_ReadRxStatus(void) 
 438:Generated_Source\PSoC4/SPIM.c **** {
 349              		.loc 1 438 0
 350              		.cfi_startproc
 351              		@ args = 0, pretend = 0, frame = 0
 352              		@ frame_needed = 0, uses_anonymous_args = 0
 353 0000 10B5     		push	{r4, lr}
 354              		.cfi_def_cfa_offset 8
 355              		.cfi_offset 4, -8
 356              		.cfi_offset 14, -4
 439:Generated_Source\PSoC4/SPIM.c ****     uint8 tmpStatus;
 440:Generated_Source\PSoC4/SPIM.c **** 
 441:Generated_Source\PSoC4/SPIM.c ****     #if(SPIM_RX_SOFTWARE_BUF_ENABLED)
 442:Generated_Source\PSoC4/SPIM.c ****         /* Disable RX interrupt to protect global veriables */
 443:Generated_Source\PSoC4/SPIM.c ****         SPIM_DisableRxInt();
 357              		.loc 1 443 0
 358 0002 FFF7FEFF 		bl	SPIM_DisableRxInt
 359              	.LVL20:
 444:Generated_Source\PSoC4/SPIM.c **** 
 445:Generated_Source\PSoC4/SPIM.c ****         tmpStatus = SPIM_GET_STATUS_RX(SPIM_swStatusRx);
 360              		.loc 1 445 0
 361 0006 064B     		ldr	r3, .L21
 362 0008 1978     		ldrb	r1, [r3]
 363 000a 064A     		ldr	r2, .L21+4
 364 000c 1478     		ldrb	r4, [r2]
 365 000e 4023     		movs	r3, #64
 366 0010 1C40     		ands	r4, r3
 367 0012 0C43     		orrs	r4, r1
 368              	.LVL21:
 446:Generated_Source\PSoC4/SPIM.c ****         SPIM_swStatusRx = 0u;
 369              		.loc 1 446 0
 370 0014 0023     		movs	r3, #0
 371 0016 1370     		strb	r3, [r2]
 447:Generated_Source\PSoC4/SPIM.c **** 
 448:Generated_Source\PSoC4/SPIM.c ****         SPIM_EnableRxInt();
 372              		.loc 1 448 0
 373 0018 FFF7FEFF 		bl	SPIM_EnableRxInt
 374              	.LVL22:
 449:Generated_Source\PSoC4/SPIM.c **** 
 450:Generated_Source\PSoC4/SPIM.c ****     #else
 451:Generated_Source\PSoC4/SPIM.c **** 
 452:Generated_Source\PSoC4/SPIM.c ****         tmpStatus = SPIM_RX_STATUS_REG;
 453:Generated_Source\PSoC4/SPIM.c **** 
 454:Generated_Source\PSoC4/SPIM.c ****     #endif /* (SPIM_RX_SOFTWARE_BUF_ENABLED) */
 455:Generated_Source\PSoC4/SPIM.c **** 
 456:Generated_Source\PSoC4/SPIM.c ****     return(tmpStatus);
 457:Generated_Source\PSoC4/SPIM.c **** }
 375              		.loc 1 457 0
 376 001c 2000     		movs	r0, r4
 377              		@ sp needed
 378              	.LVL23:
 379 001e 10BD     		pop	{r4, pc}
ARM GAS  C:\Users\Kayas\AppData\Local\Temp\ccI1sZTk.s 			page 16


 380              	.L22:
 381              		.align	2
 382              	.L21:
 383 0020 62000F40 		.word	1074724962
 384 0024 00000000 		.word	SPIM_swStatusRx
 385              		.cfi_endproc
 386              	.LFE11:
 387              		.size	SPIM_ReadRxStatus, .-SPIM_ReadRxStatus
 388              		.section	.text.SPIM_WriteTxData,"ax",%progbits
 389              		.align	2
 390              		.global	SPIM_WriteTxData
 391              		.code	16
 392              		.thumb_func
 393              		.type	SPIM_WriteTxData, %function
 394              	SPIM_WriteTxData:
 395              	.LFB12:
 458:Generated_Source\PSoC4/SPIM.c **** 
 459:Generated_Source\PSoC4/SPIM.c **** 
 460:Generated_Source\PSoC4/SPIM.c **** /*******************************************************************************
 461:Generated_Source\PSoC4/SPIM.c **** * Function Name: SPIM_WriteTxData
 462:Generated_Source\PSoC4/SPIM.c **** ********************************************************************************
 463:Generated_Source\PSoC4/SPIM.c **** *
 464:Generated_Source\PSoC4/SPIM.c **** * Summary:
 465:Generated_Source\PSoC4/SPIM.c **** *  Write a byte of data to be sent across the SPI.
 466:Generated_Source\PSoC4/SPIM.c **** *
 467:Generated_Source\PSoC4/SPIM.c **** * Parameters:
 468:Generated_Source\PSoC4/SPIM.c **** *  txDataByte: The data value to send across the SPI.
 469:Generated_Source\PSoC4/SPIM.c **** *
 470:Generated_Source\PSoC4/SPIM.c **** * Return:
 471:Generated_Source\PSoC4/SPIM.c **** *  None.
 472:Generated_Source\PSoC4/SPIM.c **** *
 473:Generated_Source\PSoC4/SPIM.c **** * Global variables:
 474:Generated_Source\PSoC4/SPIM.c **** *  SPIM_txBufferWrite - used for the account of the bytes which
 475:Generated_Source\PSoC4/SPIM.c **** *  have been written down in the TX software buffer, modified every function
 476:Generated_Source\PSoC4/SPIM.c **** *  call if TX Software Buffer is used.
 477:Generated_Source\PSoC4/SPIM.c **** *  SPIM_txBufferRead - used for the account of the bytes which
 478:Generated_Source\PSoC4/SPIM.c **** *  have been read from the TX software buffer.
 479:Generated_Source\PSoC4/SPIM.c **** *  SPIM_txBuffer[SPIM_TX_BUFFER_SIZE] - used to store
 480:Generated_Source\PSoC4/SPIM.c **** *  data to sending, modified every function call if TX Software Buffer is used.
 481:Generated_Source\PSoC4/SPIM.c **** *
 482:Generated_Source\PSoC4/SPIM.c **** * Theory:
 483:Generated_Source\PSoC4/SPIM.c **** *  Allows the user to transmit any byte of data in a single transfer.
 484:Generated_Source\PSoC4/SPIM.c **** *
 485:Generated_Source\PSoC4/SPIM.c **** * Side Effects:
 486:Generated_Source\PSoC4/SPIM.c **** *  If this function is called again before the previous byte is finished then
 487:Generated_Source\PSoC4/SPIM.c **** *  the next byte will be appended to the transfer with no time between
 488:Generated_Source\PSoC4/SPIM.c **** *  the byte transfers. Clear Tx status register of the component.
 489:Generated_Source\PSoC4/SPIM.c **** *
 490:Generated_Source\PSoC4/SPIM.c **** * Reentrant:
 491:Generated_Source\PSoC4/SPIM.c **** *  No.
 492:Generated_Source\PSoC4/SPIM.c **** *
 493:Generated_Source\PSoC4/SPIM.c **** *******************************************************************************/
 494:Generated_Source\PSoC4/SPIM.c **** void SPIM_WriteTxData(uint8 txData) 
 495:Generated_Source\PSoC4/SPIM.c **** {
 396              		.loc 1 495 0
 397              		.cfi_startproc
 398              		@ args = 0, pretend = 0, frame = 0
ARM GAS  C:\Users\Kayas\AppData\Local\Temp\ccI1sZTk.s 			page 17


 399              		@ frame_needed = 0, uses_anonymous_args = 0
 400              	.LVL24:
 401 0000 10B5     		push	{r4, lr}
 402              		.cfi_def_cfa_offset 8
 403              		.cfi_offset 4, -8
 404              		.cfi_offset 14, -4
 405 0002 0400     		movs	r4, r0
 406              	.L25:
 496:Generated_Source\PSoC4/SPIM.c ****     #if(SPIM_TX_SOFTWARE_BUF_ENABLED)
 497:Generated_Source\PSoC4/SPIM.c **** 
 498:Generated_Source\PSoC4/SPIM.c ****         uint8 tempStatus;
 499:Generated_Source\PSoC4/SPIM.c ****         uint8 tmpTxBufferRead;
 500:Generated_Source\PSoC4/SPIM.c **** 
 501:Generated_Source\PSoC4/SPIM.c ****         /* Block if TX buffer is FULL: don't overwrite */
 502:Generated_Source\PSoC4/SPIM.c ****         do
 503:Generated_Source\PSoC4/SPIM.c ****         {
 504:Generated_Source\PSoC4/SPIM.c ****             tmpTxBufferRead = SPIM_txBufferRead;
 407              		.loc 1 504 0
 408 0004 2B4B     		ldr	r3, .L32
 409 0006 1B78     		ldrb	r3, [r3]
 410 0008 DBB2     		uxtb	r3, r3
 411              	.LVL25:
 505:Generated_Source\PSoC4/SPIM.c ****             if(0u == tmpTxBufferRead)
 412              		.loc 1 505 0
 413 000a 002B     		cmp	r3, #0
 414 000c 02D0     		beq	.L31
 506:Generated_Source\PSoC4/SPIM.c ****             {
 507:Generated_Source\PSoC4/SPIM.c ****                 tmpTxBufferRead = (SPIM_TX_BUFFER_SIZE - 1u);
 508:Generated_Source\PSoC4/SPIM.c ****             }
 509:Generated_Source\PSoC4/SPIM.c ****             else
 510:Generated_Source\PSoC4/SPIM.c ****             {
 511:Generated_Source\PSoC4/SPIM.c ****                 tmpTxBufferRead--;
 415              		.loc 1 511 0
 416 000e 013B     		subs	r3, r3, #1
 417              	.LVL26:
 418 0010 DBB2     		uxtb	r3, r3
 419              	.LVL27:
 420 0012 00E0     		b	.L24
 421              	.L31:
 507:Generated_Source\PSoC4/SPIM.c ****             }
 422              		.loc 1 507 0
 423 0014 0723     		movs	r3, #7
 424              	.LVL28:
 425              	.L24:
 512:Generated_Source\PSoC4/SPIM.c ****             }
 513:Generated_Source\PSoC4/SPIM.c **** 
 514:Generated_Source\PSoC4/SPIM.c ****         }while(tmpTxBufferRead == SPIM_txBufferWrite);
 426              		.loc 1 514 0
 427 0016 284A     		ldr	r2, .L32+4
 428 0018 1278     		ldrb	r2, [r2]
 429 001a D2B2     		uxtb	r2, r2
 430 001c 9342     		cmp	r3, r2
 431 001e F1D0     		beq	.L25
 515:Generated_Source\PSoC4/SPIM.c **** 
 516:Generated_Source\PSoC4/SPIM.c ****         /* Disable TX interrupt to protect global veriables */
 517:Generated_Source\PSoC4/SPIM.c ****         SPIM_DisableTxInt();
 432              		.loc 1 517 0
ARM GAS  C:\Users\Kayas\AppData\Local\Temp\ccI1sZTk.s 			page 18


 433 0020 FFF7FEFF 		bl	SPIM_DisableTxInt
 434              	.LVL29:
 518:Generated_Source\PSoC4/SPIM.c **** 
 519:Generated_Source\PSoC4/SPIM.c ****         tempStatus = SPIM_GET_STATUS_TX(SPIM_swStatusTx);
 435              		.loc 1 519 0
 436 0024 254B     		ldr	r3, .L32+8
 437 0026 1878     		ldrb	r0, [r3]
 438 0028 2549     		ldr	r1, .L32+12
 439 002a 0B78     		ldrb	r3, [r1]
 440 002c 0922     		movs	r2, #9
 441 002e 1340     		ands	r3, r2
 442 0030 0343     		orrs	r3, r0
 443              	.LVL30:
 520:Generated_Source\PSoC4/SPIM.c ****         SPIM_swStatusTx = tempStatus;
 444              		.loc 1 520 0
 445 0032 0B70     		strb	r3, [r1]
 521:Generated_Source\PSoC4/SPIM.c **** 
 522:Generated_Source\PSoC4/SPIM.c **** 
 523:Generated_Source\PSoC4/SPIM.c ****         if((SPIM_txBufferRead == SPIM_txBufferWrite) &&
 446              		.loc 1 523 0
 447 0034 1F4B     		ldr	r3, .L32
 448              	.LVL31:
 449 0036 1A78     		ldrb	r2, [r3]
 450 0038 D2B2     		uxtb	r2, r2
 451 003a 1F4B     		ldr	r3, .L32+4
 452 003c 1B78     		ldrb	r3, [r3]
 453 003e DBB2     		uxtb	r3, r3
 454 0040 9A42     		cmp	r2, r3
 455 0042 05D1     		bne	.L26
 524:Generated_Source\PSoC4/SPIM.c ****            (0u != (SPIM_swStatusTx & SPIM_STS_TX_FIFO_NOT_FULL)))
 456              		.loc 1 524 0 discriminator 1
 457 0044 0B78     		ldrb	r3, [r1]
 523:Generated_Source\PSoC4/SPIM.c ****            (0u != (SPIM_swStatusTx & SPIM_STS_TX_FIFO_NOT_FULL)))
 458              		.loc 1 523 0 discriminator 1
 459 0046 5B07     		lsls	r3, r3, #29
 460 0048 02D5     		bpl	.L26
 525:Generated_Source\PSoC4/SPIM.c ****         {
 526:Generated_Source\PSoC4/SPIM.c ****             /* Put data element into the TX FIFO */
 527:Generated_Source\PSoC4/SPIM.c ****             CY_SET_REG8(SPIM_TXDATA_PTR, txData);
 461              		.loc 1 527 0
 462 004a 1E4B     		ldr	r3, .L32+16
 463 004c 1C70     		strb	r4, [r3]
 464              	.LVL32:
 465 004e 2DE0     		b	.L27
 466              	.LVL33:
 467              	.L26:
 528:Generated_Source\PSoC4/SPIM.c ****         }
 529:Generated_Source\PSoC4/SPIM.c ****         else
 530:Generated_Source\PSoC4/SPIM.c ****         {
 531:Generated_Source\PSoC4/SPIM.c ****             /* Add to the TX software buffer */
 532:Generated_Source\PSoC4/SPIM.c ****             SPIM_txBufferWrite++;
 468              		.loc 1 532 0
 469 0050 194A     		ldr	r2, .L32+4
 470 0052 1378     		ldrb	r3, [r2]
 471 0054 0133     		adds	r3, r3, #1
 472 0056 DBB2     		uxtb	r3, r3
 473 0058 1370     		strb	r3, [r2]
ARM GAS  C:\Users\Kayas\AppData\Local\Temp\ccI1sZTk.s 			page 19


 474              	.LVL34:
 533:Generated_Source\PSoC4/SPIM.c ****             if(SPIM_txBufferWrite >= SPIM_TX_BUFFER_SIZE)
 475              		.loc 1 533 0
 476 005a 1378     		ldrb	r3, [r2]
 477 005c DBB2     		uxtb	r3, r3
 478 005e 072B     		cmp	r3, #7
 479 0060 02D9     		bls	.L28
 534:Generated_Source\PSoC4/SPIM.c ****             {
 535:Generated_Source\PSoC4/SPIM.c ****                 SPIM_txBufferWrite = 0u;
 480              		.loc 1 535 0
 481 0062 0022     		movs	r2, #0
 482 0064 144B     		ldr	r3, .L32+4
 483 0066 1A70     		strb	r2, [r3]
 484              	.L28:
 536:Generated_Source\PSoC4/SPIM.c ****             }
 537:Generated_Source\PSoC4/SPIM.c **** 
 538:Generated_Source\PSoC4/SPIM.c ****             if(SPIM_txBufferWrite == SPIM_txBufferRead)
 485              		.loc 1 538 0
 486 0068 134B     		ldr	r3, .L32+4
 487 006a 1A78     		ldrb	r2, [r3]
 488 006c D2B2     		uxtb	r2, r2
 489 006e 114B     		ldr	r3, .L32
 490 0070 1B78     		ldrb	r3, [r3]
 491 0072 DBB2     		uxtb	r3, r3
 492 0074 9A42     		cmp	r2, r3
 493 0076 0ED1     		bne	.L29
 539:Generated_Source\PSoC4/SPIM.c ****             {
 540:Generated_Source\PSoC4/SPIM.c ****                 SPIM_txBufferRead++;
 494              		.loc 1 540 0
 495 0078 0E4A     		ldr	r2, .L32
 496 007a 1378     		ldrb	r3, [r2]
 497 007c 0133     		adds	r3, r3, #1
 498 007e DBB2     		uxtb	r3, r3
 499 0080 1370     		strb	r3, [r2]
 541:Generated_Source\PSoC4/SPIM.c ****                 if(SPIM_txBufferRead >= SPIM_TX_BUFFER_SIZE)
 500              		.loc 1 541 0
 501 0082 1378     		ldrb	r3, [r2]
 502 0084 DBB2     		uxtb	r3, r3
 503 0086 072B     		cmp	r3, #7
 504 0088 02D9     		bls	.L30
 542:Generated_Source\PSoC4/SPIM.c ****                 {
 543:Generated_Source\PSoC4/SPIM.c ****                     SPIM_txBufferRead = 0u;
 505              		.loc 1 543 0
 506 008a 0022     		movs	r2, #0
 507 008c 094B     		ldr	r3, .L32
 508 008e 1A70     		strb	r2, [r3]
 509              	.L30:
 544:Generated_Source\PSoC4/SPIM.c ****                 }
 545:Generated_Source\PSoC4/SPIM.c ****                 SPIM_txBufferFull = 1u;
 510              		.loc 1 545 0
 511 0090 0122     		movs	r2, #1
 512 0092 0D4B     		ldr	r3, .L32+20
 513 0094 1A70     		strb	r2, [r3]
 514              	.L29:
 546:Generated_Source\PSoC4/SPIM.c ****             }
 547:Generated_Source\PSoC4/SPIM.c **** 
 548:Generated_Source\PSoC4/SPIM.c ****             SPIM_txBuffer[SPIM_txBufferWrite] = txData;
ARM GAS  C:\Users\Kayas\AppData\Local\Temp\ccI1sZTk.s 			page 20


 515              		.loc 1 548 0
 516 0096 084B     		ldr	r3, .L32+4
 517 0098 1B78     		ldrb	r3, [r3]
 518 009a DBB2     		uxtb	r3, r3
 519 009c 0B4A     		ldr	r2, .L32+24
 520 009e D454     		strb	r4, [r2, r3]
 549:Generated_Source\PSoC4/SPIM.c **** 
 550:Generated_Source\PSoC4/SPIM.c ****             SPIM_TX_STATUS_MASK_REG |= SPIM_STS_TX_FIFO_NOT_FULL;
 521              		.loc 1 550 0
 522 00a0 0B4A     		ldr	r2, .L32+28
 523 00a2 1178     		ldrb	r1, [r2]
 524 00a4 0423     		movs	r3, #4
 525 00a6 0B43     		orrs	r3, r1
 526 00a8 DBB2     		uxtb	r3, r3
 527 00aa 1370     		strb	r3, [r2]
 528              	.L27:
 551:Generated_Source\PSoC4/SPIM.c ****         }
 552:Generated_Source\PSoC4/SPIM.c **** 
 553:Generated_Source\PSoC4/SPIM.c ****         SPIM_EnableTxInt();
 529              		.loc 1 553 0
 530 00ac FFF7FEFF 		bl	SPIM_EnableTxInt
 531              	.LVL35:
 554:Generated_Source\PSoC4/SPIM.c **** 
 555:Generated_Source\PSoC4/SPIM.c ****     #else
 556:Generated_Source\PSoC4/SPIM.c ****         /* Wait until TX FIFO has a place */
 557:Generated_Source\PSoC4/SPIM.c ****         while(0u == (SPIM_TX_STATUS_REG & SPIM_STS_TX_FIFO_NOT_FULL))
 558:Generated_Source\PSoC4/SPIM.c ****         {
 559:Generated_Source\PSoC4/SPIM.c ****         }
 560:Generated_Source\PSoC4/SPIM.c **** 
 561:Generated_Source\PSoC4/SPIM.c ****         /* Put data element into the TX FIFO */
 562:Generated_Source\PSoC4/SPIM.c ****         CY_SET_REG8(SPIM_TXDATA_PTR, txData);
 563:Generated_Source\PSoC4/SPIM.c **** 
 564:Generated_Source\PSoC4/SPIM.c ****     #endif /* (SPIM_TX_SOFTWARE_BUF_ENABLED) */
 565:Generated_Source\PSoC4/SPIM.c **** }
 532              		.loc 1 565 0
 533              		@ sp needed
 534 00b0 10BD     		pop	{r4, pc}
 535              	.L33:
 536 00b2 C046     		.align	2
 537              	.L32:
 538 00b4 00000000 		.word	SPIM_txBufferRead
 539 00b8 00000000 		.word	SPIM_txBufferWrite
 540 00bc 61000F40 		.word	1074724961
 541 00c0 00000000 		.word	SPIM_swStatusTx
 542 00c4 42000F40 		.word	1074724930
 543 00c8 00000000 		.word	SPIM_txBufferFull
 544 00cc 00000000 		.word	SPIM_txBuffer
 545 00d0 81000F40 		.word	1074724993
 546              		.cfi_endproc
 547              	.LFE12:
 548              		.size	SPIM_WriteTxData, .-SPIM_WriteTxData
 549              		.section	.text.SPIM_ReadRxData,"ax",%progbits
 550              		.align	2
 551              		.global	SPIM_ReadRxData
 552              		.code	16
 553              		.thumb_func
 554              		.type	SPIM_ReadRxData, %function
ARM GAS  C:\Users\Kayas\AppData\Local\Temp\ccI1sZTk.s 			page 21


 555              	SPIM_ReadRxData:
 556              	.LFB13:
 566:Generated_Source\PSoC4/SPIM.c **** 
 567:Generated_Source\PSoC4/SPIM.c **** 
 568:Generated_Source\PSoC4/SPIM.c **** /*******************************************************************************
 569:Generated_Source\PSoC4/SPIM.c **** * Function Name: SPIM_ReadRxData
 570:Generated_Source\PSoC4/SPIM.c **** ********************************************************************************
 571:Generated_Source\PSoC4/SPIM.c **** *
 572:Generated_Source\PSoC4/SPIM.c **** * Summary:
 573:Generated_Source\PSoC4/SPIM.c **** *  Read the next byte of data received across the SPI.
 574:Generated_Source\PSoC4/SPIM.c **** *
 575:Generated_Source\PSoC4/SPIM.c **** * Parameters:
 576:Generated_Source\PSoC4/SPIM.c **** *  None.
 577:Generated_Source\PSoC4/SPIM.c **** *
 578:Generated_Source\PSoC4/SPIM.c **** * Return:
 579:Generated_Source\PSoC4/SPIM.c **** *  The next byte of data read from the FIFO.
 580:Generated_Source\PSoC4/SPIM.c **** *
 581:Generated_Source\PSoC4/SPIM.c **** * Global variables:
 582:Generated_Source\PSoC4/SPIM.c **** *  SPIM_rxBufferWrite - used for the account of the bytes which
 583:Generated_Source\PSoC4/SPIM.c **** *  have been written down in the RX software buffer.
 584:Generated_Source\PSoC4/SPIM.c **** *  SPIM_rxBufferRead - used for the account of the bytes which
 585:Generated_Source\PSoC4/SPIM.c **** *  have been read from the RX software buffer, modified every function
 586:Generated_Source\PSoC4/SPIM.c **** *  call if RX Software Buffer is used.
 587:Generated_Source\PSoC4/SPIM.c **** *  SPIM_rxBuffer[SPIM_RX_BUFFER_SIZE] - used to store
 588:Generated_Source\PSoC4/SPIM.c **** *  received data.
 589:Generated_Source\PSoC4/SPIM.c **** *
 590:Generated_Source\PSoC4/SPIM.c **** * Theory:
 591:Generated_Source\PSoC4/SPIM.c **** *  Allows the user to read a byte of data received.
 592:Generated_Source\PSoC4/SPIM.c **** *
 593:Generated_Source\PSoC4/SPIM.c **** * Side Effects:
 594:Generated_Source\PSoC4/SPIM.c **** *  Will return invalid data if the FIFO is empty. The user should Call
 595:Generated_Source\PSoC4/SPIM.c **** *  GetRxBufferSize() and if it returns a non-zero value then it is safe to call
 596:Generated_Source\PSoC4/SPIM.c **** *  ReadByte() function.
 597:Generated_Source\PSoC4/SPIM.c **** *
 598:Generated_Source\PSoC4/SPIM.c **** * Reentrant:
 599:Generated_Source\PSoC4/SPIM.c **** *  No.
 600:Generated_Source\PSoC4/SPIM.c **** *
 601:Generated_Source\PSoC4/SPIM.c **** *******************************************************************************/
 602:Generated_Source\PSoC4/SPIM.c **** uint8 SPIM_ReadRxData(void) 
 603:Generated_Source\PSoC4/SPIM.c **** {
 557              		.loc 1 603 0
 558              		.cfi_startproc
 559              		@ args = 0, pretend = 0, frame = 0
 560              		@ frame_needed = 0, uses_anonymous_args = 0
 561 0000 10B5     		push	{r4, lr}
 562              		.cfi_def_cfa_offset 8
 563              		.cfi_offset 4, -8
 564              		.cfi_offset 14, -4
 604:Generated_Source\PSoC4/SPIM.c ****     uint8 rxData;
 605:Generated_Source\PSoC4/SPIM.c **** 
 606:Generated_Source\PSoC4/SPIM.c ****     #if(SPIM_RX_SOFTWARE_BUF_ENABLED)
 607:Generated_Source\PSoC4/SPIM.c **** 
 608:Generated_Source\PSoC4/SPIM.c ****         /* Disable RX interrupt to protect global veriables */
 609:Generated_Source\PSoC4/SPIM.c ****         SPIM_DisableRxInt();
 565              		.loc 1 609 0
 566 0002 FFF7FEFF 		bl	SPIM_DisableRxInt
 567              	.LVL36:
ARM GAS  C:\Users\Kayas\AppData\Local\Temp\ccI1sZTk.s 			page 22


 610:Generated_Source\PSoC4/SPIM.c **** 
 611:Generated_Source\PSoC4/SPIM.c ****         if(SPIM_rxBufferRead != SPIM_rxBufferWrite)
 568              		.loc 1 611 0
 569 0006 134B     		ldr	r3, .L37
 570 0008 1A78     		ldrb	r2, [r3]
 571 000a D2B2     		uxtb	r2, r2
 572 000c 124B     		ldr	r3, .L37+4
 573 000e 1B78     		ldrb	r3, [r3]
 574 0010 DBB2     		uxtb	r3, r3
 575 0012 9A42     		cmp	r2, r3
 576 0014 13D0     		beq	.L35
 612:Generated_Source\PSoC4/SPIM.c ****         {
 613:Generated_Source\PSoC4/SPIM.c ****             if(0u == SPIM_rxBufferFull)
 577              		.loc 1 613 0
 578 0016 114B     		ldr	r3, .L37+8
 579 0018 1B78     		ldrb	r3, [r3]
 580 001a 002B     		cmp	r3, #0
 581 001c 0CD1     		bne	.L36
 614:Generated_Source\PSoC4/SPIM.c ****             {
 615:Generated_Source\PSoC4/SPIM.c ****                 SPIM_rxBufferRead++;
 582              		.loc 1 615 0
 583 001e 0D4A     		ldr	r2, .L37
 584 0020 1378     		ldrb	r3, [r2]
 585 0022 0133     		adds	r3, r3, #1
 586 0024 DBB2     		uxtb	r3, r3
 587 0026 1370     		strb	r3, [r2]
 616:Generated_Source\PSoC4/SPIM.c ****                 if(SPIM_rxBufferRead >= SPIM_RX_BUFFER_SIZE)
 588              		.loc 1 616 0
 589 0028 1378     		ldrb	r3, [r2]
 590 002a DBB2     		uxtb	r3, r3
 591 002c 072B     		cmp	r3, #7
 592 002e 06D9     		bls	.L35
 617:Generated_Source\PSoC4/SPIM.c ****                 {
 618:Generated_Source\PSoC4/SPIM.c ****                     SPIM_rxBufferRead = 0u;
 593              		.loc 1 618 0
 594 0030 0022     		movs	r2, #0
 595 0032 084B     		ldr	r3, .L37
 596 0034 1A70     		strb	r2, [r3]
 597 0036 02E0     		b	.L35
 598              	.L36:
 619:Generated_Source\PSoC4/SPIM.c ****                 }
 620:Generated_Source\PSoC4/SPIM.c ****             }
 621:Generated_Source\PSoC4/SPIM.c ****             else
 622:Generated_Source\PSoC4/SPIM.c ****             {
 623:Generated_Source\PSoC4/SPIM.c ****                 SPIM_rxBufferFull = 0u;
 599              		.loc 1 623 0
 600 0038 0022     		movs	r2, #0
 601 003a 084B     		ldr	r3, .L37+8
 602 003c 1A70     		strb	r2, [r3]
 603              	.L35:
 624:Generated_Source\PSoC4/SPIM.c ****             }
 625:Generated_Source\PSoC4/SPIM.c ****         }
 626:Generated_Source\PSoC4/SPIM.c **** 
 627:Generated_Source\PSoC4/SPIM.c ****         rxData = SPIM_rxBuffer[SPIM_rxBufferRead];
 604              		.loc 1 627 0
 605 003e 054B     		ldr	r3, .L37
 606 0040 1B78     		ldrb	r3, [r3]
ARM GAS  C:\Users\Kayas\AppData\Local\Temp\ccI1sZTk.s 			page 23


 607 0042 DBB2     		uxtb	r3, r3
 608 0044 064A     		ldr	r2, .L37+12
 609 0046 D45C     		ldrb	r4, [r2, r3]
 610 0048 E4B2     		uxtb	r4, r4
 611              	.LVL37:
 628:Generated_Source\PSoC4/SPIM.c **** 
 629:Generated_Source\PSoC4/SPIM.c ****         SPIM_EnableRxInt();
 612              		.loc 1 629 0
 613 004a FFF7FEFF 		bl	SPIM_EnableRxInt
 614              	.LVL38:
 630:Generated_Source\PSoC4/SPIM.c **** 
 631:Generated_Source\PSoC4/SPIM.c ****     #else
 632:Generated_Source\PSoC4/SPIM.c **** 
 633:Generated_Source\PSoC4/SPIM.c ****         rxData = CY_GET_REG8(SPIM_RXDATA_PTR);
 634:Generated_Source\PSoC4/SPIM.c **** 
 635:Generated_Source\PSoC4/SPIM.c ****     #endif /* (SPIM_RX_SOFTWARE_BUF_ENABLED) */
 636:Generated_Source\PSoC4/SPIM.c **** 
 637:Generated_Source\PSoC4/SPIM.c ****     return(rxData);
 638:Generated_Source\PSoC4/SPIM.c **** }
 615              		.loc 1 638 0
 616 004e 2000     		movs	r0, r4
 617              		@ sp needed
 618              	.LVL39:
 619 0050 10BD     		pop	{r4, pc}
 620              	.L38:
 621 0052 C046     		.align	2
 622              	.L37:
 623 0054 00000000 		.word	SPIM_rxBufferRead
 624 0058 00000000 		.word	SPIM_rxBufferWrite
 625 005c 00000000 		.word	SPIM_rxBufferFull
 626 0060 00000000 		.word	SPIM_rxBuffer
 627              		.cfi_endproc
 628              	.LFE13:
 629              		.size	SPIM_ReadRxData, .-SPIM_ReadRxData
 630              		.section	.text.SPIM_GetRxBufferSize,"ax",%progbits
 631              		.align	2
 632              		.global	SPIM_GetRxBufferSize
 633              		.code	16
 634              		.thumb_func
 635              		.type	SPIM_GetRxBufferSize, %function
 636              	SPIM_GetRxBufferSize:
 637              	.LFB14:
 639:Generated_Source\PSoC4/SPIM.c **** 
 640:Generated_Source\PSoC4/SPIM.c **** 
 641:Generated_Source\PSoC4/SPIM.c **** /*******************************************************************************
 642:Generated_Source\PSoC4/SPIM.c **** * Function Name: SPIM_GetRxBufferSize
 643:Generated_Source\PSoC4/SPIM.c **** ********************************************************************************
 644:Generated_Source\PSoC4/SPIM.c **** *
 645:Generated_Source\PSoC4/SPIM.c **** * Summary:
 646:Generated_Source\PSoC4/SPIM.c **** *  Returns the number of bytes/words of data currently held in the RX buffer.
 647:Generated_Source\PSoC4/SPIM.c **** *  If RX Software Buffer not used then function return 0 if FIFO empty or 1 if
 648:Generated_Source\PSoC4/SPIM.c **** *  FIFO not empty. In another case function return size of RX Software Buffer.
 649:Generated_Source\PSoC4/SPIM.c **** *
 650:Generated_Source\PSoC4/SPIM.c **** * Parameters:
 651:Generated_Source\PSoC4/SPIM.c **** *  None.
 652:Generated_Source\PSoC4/SPIM.c **** *
 653:Generated_Source\PSoC4/SPIM.c **** * Return:
ARM GAS  C:\Users\Kayas\AppData\Local\Temp\ccI1sZTk.s 			page 24


 654:Generated_Source\PSoC4/SPIM.c **** *  Integer count of the number of bytes/words in the RX buffer.
 655:Generated_Source\PSoC4/SPIM.c **** *
 656:Generated_Source\PSoC4/SPIM.c **** * Global variables:
 657:Generated_Source\PSoC4/SPIM.c **** *  SPIM_rxBufferWrite - used for the account of the bytes which
 658:Generated_Source\PSoC4/SPIM.c **** *  have been written down in the RX software buffer.
 659:Generated_Source\PSoC4/SPIM.c **** *  SPIM_rxBufferRead - used for the account of the bytes which
 660:Generated_Source\PSoC4/SPIM.c **** *  have been read from the RX software buffer.
 661:Generated_Source\PSoC4/SPIM.c **** *
 662:Generated_Source\PSoC4/SPIM.c **** * Side Effects:
 663:Generated_Source\PSoC4/SPIM.c **** *  Clear status register of the component.
 664:Generated_Source\PSoC4/SPIM.c **** *
 665:Generated_Source\PSoC4/SPIM.c **** *******************************************************************************/
 666:Generated_Source\PSoC4/SPIM.c **** uint8 SPIM_GetRxBufferSize(void) 
 667:Generated_Source\PSoC4/SPIM.c **** {
 638              		.loc 1 667 0
 639              		.cfi_startproc
 640              		@ args = 0, pretend = 0, frame = 0
 641              		@ frame_needed = 0, uses_anonymous_args = 0
 642 0000 10B5     		push	{r4, lr}
 643              		.cfi_def_cfa_offset 8
 644              		.cfi_offset 4, -8
 645              		.cfi_offset 14, -4
 668:Generated_Source\PSoC4/SPIM.c ****     uint8 size;
 669:Generated_Source\PSoC4/SPIM.c **** 
 670:Generated_Source\PSoC4/SPIM.c ****     #if(SPIM_RX_SOFTWARE_BUF_ENABLED)
 671:Generated_Source\PSoC4/SPIM.c **** 
 672:Generated_Source\PSoC4/SPIM.c ****         /* Disable RX interrupt to protect global veriables */
 673:Generated_Source\PSoC4/SPIM.c ****         SPIM_DisableRxInt();
 646              		.loc 1 673 0
 647 0002 FFF7FEFF 		bl	SPIM_DisableRxInt
 648              	.LVL40:
 674:Generated_Source\PSoC4/SPIM.c **** 
 675:Generated_Source\PSoC4/SPIM.c ****         if(SPIM_rxBufferRead == SPIM_rxBufferWrite)
 649              		.loc 1 675 0
 650 0006 124B     		ldr	r3, .L43
 651 0008 1A78     		ldrb	r2, [r3]
 652 000a D2B2     		uxtb	r2, r2
 653 000c 114B     		ldr	r3, .L43+4
 654 000e 1B78     		ldrb	r3, [r3]
 655 0010 DBB2     		uxtb	r3, r3
 656 0012 9A42     		cmp	r2, r3
 657 0014 16D0     		beq	.L42
 676:Generated_Source\PSoC4/SPIM.c ****         {
 677:Generated_Source\PSoC4/SPIM.c ****             size = 0u;
 678:Generated_Source\PSoC4/SPIM.c ****         }
 679:Generated_Source\PSoC4/SPIM.c ****         else if(SPIM_rxBufferRead < SPIM_rxBufferWrite)
 658              		.loc 1 679 0
 659 0016 0E4B     		ldr	r3, .L43
 660 0018 1A78     		ldrb	r2, [r3]
 661 001a D2B2     		uxtb	r2, r2
 662 001c 0D4B     		ldr	r3, .L43+4
 663 001e 1B78     		ldrb	r3, [r3]
 664 0020 DBB2     		uxtb	r3, r3
 665 0022 9A42     		cmp	r2, r3
 666 0024 06D2     		bcs	.L41
 680:Generated_Source\PSoC4/SPIM.c ****         {
 681:Generated_Source\PSoC4/SPIM.c ****             size = (SPIM_rxBufferWrite - SPIM_rxBufferRead);
ARM GAS  C:\Users\Kayas\AppData\Local\Temp\ccI1sZTk.s 			page 25


 667              		.loc 1 681 0
 668 0026 0B4B     		ldr	r3, .L43+4
 669 0028 1B78     		ldrb	r3, [r3]
 670 002a 094A     		ldr	r2, .L43
 671 002c 1478     		ldrb	r4, [r2]
 672 002e 1C1B     		subs	r4, r3, r4
 673 0030 E4B2     		uxtb	r4, r4
 674              	.LVL41:
 675 0032 08E0     		b	.L40
 676              	.LVL42:
 677              	.L41:
 682:Generated_Source\PSoC4/SPIM.c ****         }
 683:Generated_Source\PSoC4/SPIM.c ****         else
 684:Generated_Source\PSoC4/SPIM.c ****         {
 685:Generated_Source\PSoC4/SPIM.c ****             size = (SPIM_RX_BUFFER_SIZE - SPIM_rxBufferRead) + SPIM_rxBufferWrite;
 678              		.loc 1 685 0
 679 0034 074B     		ldr	r3, .L43+4
 680 0036 1B78     		ldrb	r3, [r3]
 681 0038 054A     		ldr	r2, .L43
 682 003a 1478     		ldrb	r4, [r2]
 683 003c 1C1B     		subs	r4, r3, r4
 684 003e 0834     		adds	r4, r4, #8
 685 0040 E4B2     		uxtb	r4, r4
 686              	.LVL43:
 687 0042 00E0     		b	.L40
 688              	.LVL44:
 689              	.L42:
 677:Generated_Source\PSoC4/SPIM.c ****         }
 690              		.loc 1 677 0
 691 0044 0024     		movs	r4, #0
 692              	.L40:
 693              	.LVL45:
 686:Generated_Source\PSoC4/SPIM.c ****         }
 687:Generated_Source\PSoC4/SPIM.c **** 
 688:Generated_Source\PSoC4/SPIM.c ****         SPIM_EnableRxInt();
 694              		.loc 1 688 0
 695 0046 FFF7FEFF 		bl	SPIM_EnableRxInt
 696              	.LVL46:
 689:Generated_Source\PSoC4/SPIM.c **** 
 690:Generated_Source\PSoC4/SPIM.c ****     #else
 691:Generated_Source\PSoC4/SPIM.c **** 
 692:Generated_Source\PSoC4/SPIM.c ****         /* We can only know if there is data in the RX FIFO */
 693:Generated_Source\PSoC4/SPIM.c ****         size = (0u != (SPIM_RX_STATUS_REG & SPIM_STS_RX_FIFO_NOT_EMPTY)) ? 1u : 0u;
 694:Generated_Source\PSoC4/SPIM.c **** 
 695:Generated_Source\PSoC4/SPIM.c ****     #endif /* (SPIM_TX_SOFTWARE_BUF_ENABLED) */
 696:Generated_Source\PSoC4/SPIM.c **** 
 697:Generated_Source\PSoC4/SPIM.c ****     return(size);
 698:Generated_Source\PSoC4/SPIM.c **** }
 697              		.loc 1 698 0
 698 004a 2000     		movs	r0, r4
 699              		@ sp needed
 700              	.LVL47:
 701 004c 10BD     		pop	{r4, pc}
 702              	.L44:
 703 004e C046     		.align	2
 704              	.L43:
 705 0050 00000000 		.word	SPIM_rxBufferRead
ARM GAS  C:\Users\Kayas\AppData\Local\Temp\ccI1sZTk.s 			page 26


 706 0054 00000000 		.word	SPIM_rxBufferWrite
 707              		.cfi_endproc
 708              	.LFE14:
 709              		.size	SPIM_GetRxBufferSize, .-SPIM_GetRxBufferSize
 710              		.section	.text.SPIM_GetTxBufferSize,"ax",%progbits
 711              		.align	2
 712              		.global	SPIM_GetTxBufferSize
 713              		.code	16
 714              		.thumb_func
 715              		.type	SPIM_GetTxBufferSize, %function
 716              	SPIM_GetTxBufferSize:
 717              	.LFB15:
 699:Generated_Source\PSoC4/SPIM.c **** 
 700:Generated_Source\PSoC4/SPIM.c **** 
 701:Generated_Source\PSoC4/SPIM.c **** /*******************************************************************************
 702:Generated_Source\PSoC4/SPIM.c **** * Function Name: SPIM_GetTxBufferSize
 703:Generated_Source\PSoC4/SPIM.c **** ********************************************************************************
 704:Generated_Source\PSoC4/SPIM.c **** *
 705:Generated_Source\PSoC4/SPIM.c **** * Summary:
 706:Generated_Source\PSoC4/SPIM.c **** *  Returns the number of bytes/words of data currently held in the TX buffer.
 707:Generated_Source\PSoC4/SPIM.c **** *  If TX Software Buffer not used then function return 0 - if FIFO empty, 1 - if
 708:Generated_Source\PSoC4/SPIM.c **** *  FIFO not full, 4 - if FIFO full. In another case function return size of TX
 709:Generated_Source\PSoC4/SPIM.c **** *  Software Buffer.
 710:Generated_Source\PSoC4/SPIM.c **** *
 711:Generated_Source\PSoC4/SPIM.c **** * Parameters:
 712:Generated_Source\PSoC4/SPIM.c **** *  None.
 713:Generated_Source\PSoC4/SPIM.c **** *
 714:Generated_Source\PSoC4/SPIM.c **** * Return:
 715:Generated_Source\PSoC4/SPIM.c **** *  Integer count of the number of bytes/words in the TX buffer.
 716:Generated_Source\PSoC4/SPIM.c **** *
 717:Generated_Source\PSoC4/SPIM.c **** * Global variables:
 718:Generated_Source\PSoC4/SPIM.c **** *  SPIM_txBufferWrite - used for the account of the bytes which
 719:Generated_Source\PSoC4/SPIM.c **** *  have been written down in the TX software buffer.
 720:Generated_Source\PSoC4/SPIM.c **** *  SPIM_txBufferRead - used for the account of the bytes which
 721:Generated_Source\PSoC4/SPIM.c **** *  have been read from the TX software buffer.
 722:Generated_Source\PSoC4/SPIM.c **** *
 723:Generated_Source\PSoC4/SPIM.c **** * Side Effects:
 724:Generated_Source\PSoC4/SPIM.c **** *  Clear status register of the component.
 725:Generated_Source\PSoC4/SPIM.c **** *
 726:Generated_Source\PSoC4/SPIM.c **** *******************************************************************************/
 727:Generated_Source\PSoC4/SPIM.c **** uint8  SPIM_GetTxBufferSize(void) 
 728:Generated_Source\PSoC4/SPIM.c **** {
 718              		.loc 1 728 0
 719              		.cfi_startproc
 720              		@ args = 0, pretend = 0, frame = 0
 721              		@ frame_needed = 0, uses_anonymous_args = 0
 722 0000 10B5     		push	{r4, lr}
 723              		.cfi_def_cfa_offset 8
 724              		.cfi_offset 4, -8
 725              		.cfi_offset 14, -4
 729:Generated_Source\PSoC4/SPIM.c ****     uint8 size;
 730:Generated_Source\PSoC4/SPIM.c **** 
 731:Generated_Source\PSoC4/SPIM.c ****     #if(SPIM_TX_SOFTWARE_BUF_ENABLED)
 732:Generated_Source\PSoC4/SPIM.c ****         /* Disable TX interrupt to protect global veriables */
 733:Generated_Source\PSoC4/SPIM.c ****         SPIM_DisableTxInt();
 726              		.loc 1 733 0
 727 0002 FFF7FEFF 		bl	SPIM_DisableTxInt
ARM GAS  C:\Users\Kayas\AppData\Local\Temp\ccI1sZTk.s 			page 27


 728              	.LVL48:
 734:Generated_Source\PSoC4/SPIM.c **** 
 735:Generated_Source\PSoC4/SPIM.c ****         if(SPIM_txBufferRead == SPIM_txBufferWrite)
 729              		.loc 1 735 0
 730 0006 124B     		ldr	r3, .L49
 731 0008 1A78     		ldrb	r2, [r3]
 732 000a D2B2     		uxtb	r2, r2
 733 000c 114B     		ldr	r3, .L49+4
 734 000e 1B78     		ldrb	r3, [r3]
 735 0010 DBB2     		uxtb	r3, r3
 736 0012 9A42     		cmp	r2, r3
 737 0014 16D0     		beq	.L48
 736:Generated_Source\PSoC4/SPIM.c ****         {
 737:Generated_Source\PSoC4/SPIM.c ****             size = 0u;
 738:Generated_Source\PSoC4/SPIM.c ****         }
 739:Generated_Source\PSoC4/SPIM.c ****         else if(SPIM_txBufferRead < SPIM_txBufferWrite)
 738              		.loc 1 739 0
 739 0016 0E4B     		ldr	r3, .L49
 740 0018 1A78     		ldrb	r2, [r3]
 741 001a D2B2     		uxtb	r2, r2
 742 001c 0D4B     		ldr	r3, .L49+4
 743 001e 1B78     		ldrb	r3, [r3]
 744 0020 DBB2     		uxtb	r3, r3
 745 0022 9A42     		cmp	r2, r3
 746 0024 06D2     		bcs	.L47
 740:Generated_Source\PSoC4/SPIM.c ****         {
 741:Generated_Source\PSoC4/SPIM.c ****             size = (SPIM_txBufferWrite - SPIM_txBufferRead);
 747              		.loc 1 741 0
 748 0026 0B4B     		ldr	r3, .L49+4
 749 0028 1B78     		ldrb	r3, [r3]
 750 002a 094A     		ldr	r2, .L49
 751 002c 1478     		ldrb	r4, [r2]
 752 002e 1C1B     		subs	r4, r3, r4
 753 0030 E4B2     		uxtb	r4, r4
 754              	.LVL49:
 755 0032 08E0     		b	.L46
 756              	.LVL50:
 757              	.L47:
 742:Generated_Source\PSoC4/SPIM.c ****         }
 743:Generated_Source\PSoC4/SPIM.c ****         else
 744:Generated_Source\PSoC4/SPIM.c ****         {
 745:Generated_Source\PSoC4/SPIM.c ****             size = (SPIM_TX_BUFFER_SIZE - SPIM_txBufferRead) + SPIM_txBufferWrite;
 758              		.loc 1 745 0
 759 0034 074B     		ldr	r3, .L49+4
 760 0036 1B78     		ldrb	r3, [r3]
 761 0038 054A     		ldr	r2, .L49
 762 003a 1478     		ldrb	r4, [r2]
 763 003c 1C1B     		subs	r4, r3, r4
 764 003e 0834     		adds	r4, r4, #8
 765 0040 E4B2     		uxtb	r4, r4
 766              	.LVL51:
 767 0042 00E0     		b	.L46
 768              	.LVL52:
 769              	.L48:
 737:Generated_Source\PSoC4/SPIM.c ****         }
 770              		.loc 1 737 0
 771 0044 0024     		movs	r4, #0
ARM GAS  C:\Users\Kayas\AppData\Local\Temp\ccI1sZTk.s 			page 28


 772              	.L46:
 773              	.LVL53:
 746:Generated_Source\PSoC4/SPIM.c ****         }
 747:Generated_Source\PSoC4/SPIM.c **** 
 748:Generated_Source\PSoC4/SPIM.c ****         SPIM_EnableTxInt();
 774              		.loc 1 748 0
 775 0046 FFF7FEFF 		bl	SPIM_EnableTxInt
 776              	.LVL54:
 749:Generated_Source\PSoC4/SPIM.c **** 
 750:Generated_Source\PSoC4/SPIM.c ****     #else
 751:Generated_Source\PSoC4/SPIM.c **** 
 752:Generated_Source\PSoC4/SPIM.c ****         size = SPIM_TX_STATUS_REG;
 753:Generated_Source\PSoC4/SPIM.c **** 
 754:Generated_Source\PSoC4/SPIM.c ****         if(0u != (size & SPIM_STS_TX_FIFO_EMPTY))
 755:Generated_Source\PSoC4/SPIM.c ****         {
 756:Generated_Source\PSoC4/SPIM.c ****             size = 0u;
 757:Generated_Source\PSoC4/SPIM.c ****         }
 758:Generated_Source\PSoC4/SPIM.c ****         else if(0u != (size & SPIM_STS_TX_FIFO_NOT_FULL))
 759:Generated_Source\PSoC4/SPIM.c ****         {
 760:Generated_Source\PSoC4/SPIM.c ****             size = 1u;
 761:Generated_Source\PSoC4/SPIM.c ****         }
 762:Generated_Source\PSoC4/SPIM.c ****         else
 763:Generated_Source\PSoC4/SPIM.c ****         {
 764:Generated_Source\PSoC4/SPIM.c ****             size = SPIM_FIFO_SIZE;
 765:Generated_Source\PSoC4/SPIM.c ****         }
 766:Generated_Source\PSoC4/SPIM.c **** 
 767:Generated_Source\PSoC4/SPIM.c ****     #endif /* (SPIM_TX_SOFTWARE_BUF_ENABLED) */
 768:Generated_Source\PSoC4/SPIM.c **** 
 769:Generated_Source\PSoC4/SPIM.c ****     return(size);
 770:Generated_Source\PSoC4/SPIM.c **** }
 777              		.loc 1 770 0
 778 004a 2000     		movs	r0, r4
 779              		@ sp needed
 780              	.LVL55:
 781 004c 10BD     		pop	{r4, pc}
 782              	.L50:
 783 004e C046     		.align	2
 784              	.L49:
 785 0050 00000000 		.word	SPIM_txBufferRead
 786 0054 00000000 		.word	SPIM_txBufferWrite
 787              		.cfi_endproc
 788              	.LFE15:
 789              		.size	SPIM_GetTxBufferSize, .-SPIM_GetTxBufferSize
 790              		.section	.text.SPIM_ClearRxBuffer,"ax",%progbits
 791              		.align	2
 792              		.global	SPIM_ClearRxBuffer
 793              		.code	16
 794              		.thumb_func
 795              		.type	SPIM_ClearRxBuffer, %function
 796              	SPIM_ClearRxBuffer:
 797              	.LFB16:
 771:Generated_Source\PSoC4/SPIM.c **** 
 772:Generated_Source\PSoC4/SPIM.c **** 
 773:Generated_Source\PSoC4/SPIM.c **** /*******************************************************************************
 774:Generated_Source\PSoC4/SPIM.c **** * Function Name: SPIM_ClearRxBuffer
 775:Generated_Source\PSoC4/SPIM.c **** ********************************************************************************
 776:Generated_Source\PSoC4/SPIM.c **** *
ARM GAS  C:\Users\Kayas\AppData\Local\Temp\ccI1sZTk.s 			page 29


 777:Generated_Source\PSoC4/SPIM.c **** * Summary:
 778:Generated_Source\PSoC4/SPIM.c **** *  Clear the RX RAM buffer by setting the read and write pointers both to zero.
 779:Generated_Source\PSoC4/SPIM.c **** *
 780:Generated_Source\PSoC4/SPIM.c **** * Parameters:
 781:Generated_Source\PSoC4/SPIM.c **** *  None.
 782:Generated_Source\PSoC4/SPIM.c **** *
 783:Generated_Source\PSoC4/SPIM.c **** * Return:
 784:Generated_Source\PSoC4/SPIM.c **** *  None.
 785:Generated_Source\PSoC4/SPIM.c **** *
 786:Generated_Source\PSoC4/SPIM.c **** * Global variables:
 787:Generated_Source\PSoC4/SPIM.c **** *  SPIM_rxBufferWrite - used for the account of the bytes which
 788:Generated_Source\PSoC4/SPIM.c **** *  have been written down in the RX software buffer, modified every function
 789:Generated_Source\PSoC4/SPIM.c **** *  call - resets to zero.
 790:Generated_Source\PSoC4/SPIM.c **** *  SPIM_rxBufferRead - used for the account of the bytes which
 791:Generated_Source\PSoC4/SPIM.c **** *  have been read from the RX software buffer, modified every function call -
 792:Generated_Source\PSoC4/SPIM.c **** *  resets to zero.
 793:Generated_Source\PSoC4/SPIM.c **** *
 794:Generated_Source\PSoC4/SPIM.c **** * Theory:
 795:Generated_Source\PSoC4/SPIM.c **** *  Setting the pointers to zero makes the system believe there is no data to
 796:Generated_Source\PSoC4/SPIM.c **** *  read and writing will resume at address 0 overwriting any data that may have
 797:Generated_Source\PSoC4/SPIM.c **** *  remained in the RAM.
 798:Generated_Source\PSoC4/SPIM.c **** *
 799:Generated_Source\PSoC4/SPIM.c **** * Side Effects:
 800:Generated_Source\PSoC4/SPIM.c **** *  Any received data not read from the RAM buffer will be lost when overwritten.
 801:Generated_Source\PSoC4/SPIM.c **** *
 802:Generated_Source\PSoC4/SPIM.c **** * Reentrant:
 803:Generated_Source\PSoC4/SPIM.c **** *  No.
 804:Generated_Source\PSoC4/SPIM.c **** *
 805:Generated_Source\PSoC4/SPIM.c **** *******************************************************************************/
 806:Generated_Source\PSoC4/SPIM.c **** void SPIM_ClearRxBuffer(void) 
 807:Generated_Source\PSoC4/SPIM.c **** {
 798              		.loc 1 807 0
 799              		.cfi_startproc
 800              		@ args = 0, pretend = 0, frame = 0
 801              		@ frame_needed = 0, uses_anonymous_args = 0
 802 0000 10B5     		push	{r4, lr}
 803              		.cfi_def_cfa_offset 8
 804              		.cfi_offset 4, -8
 805              		.cfi_offset 14, -4
 808:Generated_Source\PSoC4/SPIM.c ****     /* Clear Hardware RX FIFO */
 809:Generated_Source\PSoC4/SPIM.c ****     while(0u !=(SPIM_RX_STATUS_REG & SPIM_STS_RX_FIFO_NOT_EMPTY))
 806              		.loc 1 809 0
 807 0002 01E0     		b	.L52
 808              	.L53:
 810:Generated_Source\PSoC4/SPIM.c ****     {
 811:Generated_Source\PSoC4/SPIM.c ****         (void) CY_GET_REG8(SPIM_RXDATA_PTR);
 809              		.loc 1 811 0
 810 0004 084B     		ldr	r3, .L54
 811 0006 1B78     		ldrb	r3, [r3]
 812              	.L52:
 809:Generated_Source\PSoC4/SPIM.c ****     {
 813              		.loc 1 809 0
 814 0008 084B     		ldr	r3, .L54+4
 815 000a 1B78     		ldrb	r3, [r3]
 816 000c 9B06     		lsls	r3, r3, #26
 817 000e F9D4     		bmi	.L53
 812:Generated_Source\PSoC4/SPIM.c ****     }
ARM GAS  C:\Users\Kayas\AppData\Local\Temp\ccI1sZTk.s 			page 30


 813:Generated_Source\PSoC4/SPIM.c **** 
 814:Generated_Source\PSoC4/SPIM.c ****     #if(SPIM_RX_SOFTWARE_BUF_ENABLED)
 815:Generated_Source\PSoC4/SPIM.c ****         /* Disable RX interrupt to protect global veriables */
 816:Generated_Source\PSoC4/SPIM.c ****         SPIM_DisableRxInt();
 818              		.loc 1 816 0
 819 0010 FFF7FEFF 		bl	SPIM_DisableRxInt
 820              	.LVL56:
 817:Generated_Source\PSoC4/SPIM.c **** 
 818:Generated_Source\PSoC4/SPIM.c ****         SPIM_rxBufferFull  = 0u;
 821              		.loc 1 818 0
 822 0014 0023     		movs	r3, #0
 823 0016 064A     		ldr	r2, .L54+8
 824 0018 1370     		strb	r3, [r2]
 819:Generated_Source\PSoC4/SPIM.c ****         SPIM_rxBufferRead  = 0u;
 825              		.loc 1 819 0
 826 001a 064A     		ldr	r2, .L54+12
 827 001c 1370     		strb	r3, [r2]
 820:Generated_Source\PSoC4/SPIM.c ****         SPIM_rxBufferWrite = 0u;
 828              		.loc 1 820 0
 829 001e 064A     		ldr	r2, .L54+16
 830 0020 1370     		strb	r3, [r2]
 821:Generated_Source\PSoC4/SPIM.c **** 
 822:Generated_Source\PSoC4/SPIM.c ****         SPIM_EnableRxInt();
 831              		.loc 1 822 0
 832 0022 FFF7FEFF 		bl	SPIM_EnableRxInt
 833              	.LVL57:
 823:Generated_Source\PSoC4/SPIM.c ****     #endif /* (SPIM_RX_SOFTWARE_BUF_ENABLED) */
 824:Generated_Source\PSoC4/SPIM.c **** }
 834              		.loc 1 824 0
 835              		@ sp needed
 836 0026 10BD     		pop	{r4, pc}
 837              	.L55:
 838              		.align	2
 839              	.L54:
 840 0028 52000F40 		.word	1074724946
 841 002c 62000F40 		.word	1074724962
 842 0030 00000000 		.word	SPIM_rxBufferFull
 843 0034 00000000 		.word	SPIM_rxBufferRead
 844 0038 00000000 		.word	SPIM_rxBufferWrite
 845              		.cfi_endproc
 846              	.LFE16:
 847              		.size	SPIM_ClearRxBuffer, .-SPIM_ClearRxBuffer
 848              		.section	.text.SPIM_ClearTxBuffer,"ax",%progbits
 849              		.align	2
 850              		.global	SPIM_ClearTxBuffer
 851              		.code	16
 852              		.thumb_func
 853              		.type	SPIM_ClearTxBuffer, %function
 854              	SPIM_ClearTxBuffer:
 855              	.LFB17:
 825:Generated_Source\PSoC4/SPIM.c **** 
 826:Generated_Source\PSoC4/SPIM.c **** 
 827:Generated_Source\PSoC4/SPIM.c **** /*******************************************************************************
 828:Generated_Source\PSoC4/SPIM.c **** * Function Name: SPIM_ClearTxBuffer
 829:Generated_Source\PSoC4/SPIM.c **** ********************************************************************************
 830:Generated_Source\PSoC4/SPIM.c **** *
 831:Generated_Source\PSoC4/SPIM.c **** * Summary:
ARM GAS  C:\Users\Kayas\AppData\Local\Temp\ccI1sZTk.s 			page 31


 832:Generated_Source\PSoC4/SPIM.c **** *  Clear the TX RAM buffer by setting the read and write pointers both to zero.
 833:Generated_Source\PSoC4/SPIM.c **** *
 834:Generated_Source\PSoC4/SPIM.c **** * Parameters:
 835:Generated_Source\PSoC4/SPIM.c **** *  None.
 836:Generated_Source\PSoC4/SPIM.c **** *
 837:Generated_Source\PSoC4/SPIM.c **** * Return:
 838:Generated_Source\PSoC4/SPIM.c **** *  None.
 839:Generated_Source\PSoC4/SPIM.c **** *
 840:Generated_Source\PSoC4/SPIM.c **** * Global variables:
 841:Generated_Source\PSoC4/SPIM.c **** *  SPIM_txBufferWrite - used for the account of the bytes which
 842:Generated_Source\PSoC4/SPIM.c **** *  have been written down in the TX software buffer, modified every function
 843:Generated_Source\PSoC4/SPIM.c **** *  call - resets to zero.
 844:Generated_Source\PSoC4/SPIM.c **** *  SPIM_txBufferRead - used for the account of the bytes which
 845:Generated_Source\PSoC4/SPIM.c **** *  have been read from the TX software buffer, modified every function call -
 846:Generated_Source\PSoC4/SPIM.c **** *  resets to zero.
 847:Generated_Source\PSoC4/SPIM.c **** *
 848:Generated_Source\PSoC4/SPIM.c **** * Theory:
 849:Generated_Source\PSoC4/SPIM.c **** *  Setting the pointers to zero makes the system believe there is no data to
 850:Generated_Source\PSoC4/SPIM.c **** *  read and writing will resume at address 0 overwriting any data that may have
 851:Generated_Source\PSoC4/SPIM.c **** *  remained in the RAM.
 852:Generated_Source\PSoC4/SPIM.c **** *
 853:Generated_Source\PSoC4/SPIM.c **** * Side Effects:
 854:Generated_Source\PSoC4/SPIM.c **** *  Any data not yet transmitted from the RAM buffer will be lost when
 855:Generated_Source\PSoC4/SPIM.c **** *  overwritten.
 856:Generated_Source\PSoC4/SPIM.c **** *
 857:Generated_Source\PSoC4/SPIM.c **** * Reentrant:
 858:Generated_Source\PSoC4/SPIM.c **** *  No.
 859:Generated_Source\PSoC4/SPIM.c **** *
 860:Generated_Source\PSoC4/SPIM.c **** *******************************************************************************/
 861:Generated_Source\PSoC4/SPIM.c **** void SPIM_ClearTxBuffer(void) 
 862:Generated_Source\PSoC4/SPIM.c **** {
 856              		.loc 1 862 0
 857              		.cfi_startproc
 858              		@ args = 0, pretend = 0, frame = 0
 859              		@ frame_needed = 0, uses_anonymous_args = 0
 860 0000 10B5     		push	{r4, lr}
 861              		.cfi_def_cfa_offset 8
 862              		.cfi_offset 4, -8
 863              		.cfi_offset 14, -4
 863:Generated_Source\PSoC4/SPIM.c ****     uint8 enableInterrupts;
 864:Generated_Source\PSoC4/SPIM.c **** 
 865:Generated_Source\PSoC4/SPIM.c ****     enableInterrupts = CyEnterCriticalSection();
 864              		.loc 1 865 0
 865 0002 FFF7FEFF 		bl	CyEnterCriticalSection
 866              	.LVL58:
 866:Generated_Source\PSoC4/SPIM.c ****     /* Clear TX FIFO */
 867:Generated_Source\PSoC4/SPIM.c ****     SPIM_AUX_CONTROL_DP0_REG |= ((uint8)  SPIM_TX_FIFO_CLR);
 867              		.loc 1 867 0
 868 0006 0E4A     		ldr	r2, .L57
 869 0008 1178     		ldrb	r1, [r2]
 870 000a 0123     		movs	r3, #1
 871 000c 0B43     		orrs	r3, r1
 872 000e DBB2     		uxtb	r3, r3
 873 0010 1370     		strb	r3, [r2]
 868:Generated_Source\PSoC4/SPIM.c ****     SPIM_AUX_CONTROL_DP0_REG &= ((uint8) ~SPIM_TX_FIFO_CLR);
 874              		.loc 1 868 0
 875 0012 1378     		ldrb	r3, [r2]
ARM GAS  C:\Users\Kayas\AppData\Local\Temp\ccI1sZTk.s 			page 32


 876 0014 0121     		movs	r1, #1
 877 0016 8B43     		bics	r3, r1
 878 0018 1370     		strb	r3, [r2]
 869:Generated_Source\PSoC4/SPIM.c **** 
 870:Generated_Source\PSoC4/SPIM.c ****     #if(SPIM_USE_SECOND_DATAPATH)
 871:Generated_Source\PSoC4/SPIM.c ****         /* Clear TX FIFO for 2nd Datapath */
 872:Generated_Source\PSoC4/SPIM.c ****         SPIM_AUX_CONTROL_DP1_REG |= ((uint8)  SPIM_TX_FIFO_CLR);
 873:Generated_Source\PSoC4/SPIM.c ****         SPIM_AUX_CONTROL_DP1_REG &= ((uint8) ~SPIM_TX_FIFO_CLR);
 874:Generated_Source\PSoC4/SPIM.c ****     #endif /* (SPIM_USE_SECOND_DATAPATH) */
 875:Generated_Source\PSoC4/SPIM.c ****     CyExitCriticalSection(enableInterrupts);
 879              		.loc 1 875 0
 880 001a FFF7FEFF 		bl	CyExitCriticalSection
 881              	.LVL59:
 876:Generated_Source\PSoC4/SPIM.c **** 
 877:Generated_Source\PSoC4/SPIM.c ****     #if(SPIM_TX_SOFTWARE_BUF_ENABLED)
 878:Generated_Source\PSoC4/SPIM.c ****         /* Disable TX interrupt to protect global veriables */
 879:Generated_Source\PSoC4/SPIM.c ****         SPIM_DisableTxInt();
 882              		.loc 1 879 0
 883 001e FFF7FEFF 		bl	SPIM_DisableTxInt
 884              	.LVL60:
 880:Generated_Source\PSoC4/SPIM.c **** 
 881:Generated_Source\PSoC4/SPIM.c ****         SPIM_txBufferFull  = 0u;
 885              		.loc 1 881 0
 886 0022 0023     		movs	r3, #0
 887 0024 074A     		ldr	r2, .L57+4
 888 0026 1370     		strb	r3, [r2]
 882:Generated_Source\PSoC4/SPIM.c ****         SPIM_txBufferRead  = 0u;
 889              		.loc 1 882 0
 890 0028 074A     		ldr	r2, .L57+8
 891 002a 1370     		strb	r3, [r2]
 883:Generated_Source\PSoC4/SPIM.c ****         SPIM_txBufferWrite = 0u;
 892              		.loc 1 883 0
 893 002c 074A     		ldr	r2, .L57+12
 894 002e 1370     		strb	r3, [r2]
 884:Generated_Source\PSoC4/SPIM.c **** 
 885:Generated_Source\PSoC4/SPIM.c ****         /* Buffer is EMPTY: disable TX FIFO NOT FULL interrupt */
 886:Generated_Source\PSoC4/SPIM.c ****         SPIM_TX_STATUS_MASK_REG &= ((uint8) ~SPIM_STS_TX_FIFO_NOT_FULL);
 895              		.loc 1 886 0
 896 0030 074A     		ldr	r2, .L57+16
 897 0032 1378     		ldrb	r3, [r2]
 898 0034 0421     		movs	r1, #4
 899 0036 8B43     		bics	r3, r1
 900 0038 1370     		strb	r3, [r2]
 887:Generated_Source\PSoC4/SPIM.c **** 
 888:Generated_Source\PSoC4/SPIM.c ****         SPIM_EnableTxInt();
 901              		.loc 1 888 0
 902 003a FFF7FEFF 		bl	SPIM_EnableTxInt
 903              	.LVL61:
 889:Generated_Source\PSoC4/SPIM.c ****     #endif /* (SPIM_TX_SOFTWARE_BUF_ENABLED) */
 890:Generated_Source\PSoC4/SPIM.c **** }
 904              		.loc 1 890 0
 905              		@ sp needed
 906 003e 10BD     		pop	{r4, pc}
 907              	.L58:
 908              		.align	2
 909              	.L57:
 910 0040 92000F40 		.word	1074725010
ARM GAS  C:\Users\Kayas\AppData\Local\Temp\ccI1sZTk.s 			page 33


 911 0044 00000000 		.word	SPIM_txBufferFull
 912 0048 00000000 		.word	SPIM_txBufferRead
 913 004c 00000000 		.word	SPIM_txBufferWrite
 914 0050 81000F40 		.word	1074724993
 915              		.cfi_endproc
 916              	.LFE17:
 917              		.size	SPIM_ClearTxBuffer, .-SPIM_ClearTxBuffer
 918              		.section	.text.SPIM_PutArray,"ax",%progbits
 919              		.align	2
 920              		.global	SPIM_PutArray
 921              		.code	16
 922              		.thumb_func
 923              		.type	SPIM_PutArray, %function
 924              	SPIM_PutArray:
 925              	.LFB18:
 891:Generated_Source\PSoC4/SPIM.c **** 
 892:Generated_Source\PSoC4/SPIM.c **** 
 893:Generated_Source\PSoC4/SPIM.c **** #if(0u != SPIM_BIDIRECTIONAL_MODE)
 894:Generated_Source\PSoC4/SPIM.c ****     /*******************************************************************************
 895:Generated_Source\PSoC4/SPIM.c ****     * Function Name: SPIM_TxEnable
 896:Generated_Source\PSoC4/SPIM.c ****     ********************************************************************************
 897:Generated_Source\PSoC4/SPIM.c ****     *
 898:Generated_Source\PSoC4/SPIM.c ****     * Summary:
 899:Generated_Source\PSoC4/SPIM.c ****     *  If the SPI master is configured to use a single bi-directional pin then this
 900:Generated_Source\PSoC4/SPIM.c ****     *  will set the bi-directional pin to transmit.
 901:Generated_Source\PSoC4/SPIM.c ****     *
 902:Generated_Source\PSoC4/SPIM.c ****     * Parameters:
 903:Generated_Source\PSoC4/SPIM.c ****     *  None.
 904:Generated_Source\PSoC4/SPIM.c ****     *
 905:Generated_Source\PSoC4/SPIM.c ****     * Return:
 906:Generated_Source\PSoC4/SPIM.c ****     *  None.
 907:Generated_Source\PSoC4/SPIM.c ****     *
 908:Generated_Source\PSoC4/SPIM.c ****     *******************************************************************************/
 909:Generated_Source\PSoC4/SPIM.c ****     void SPIM_TxEnable(void) 
 910:Generated_Source\PSoC4/SPIM.c ****     {
 911:Generated_Source\PSoC4/SPIM.c ****         SPIM_CONTROL_REG |= SPIM_CTRL_TX_SIGNAL_EN;
 912:Generated_Source\PSoC4/SPIM.c ****     }
 913:Generated_Source\PSoC4/SPIM.c **** 
 914:Generated_Source\PSoC4/SPIM.c **** 
 915:Generated_Source\PSoC4/SPIM.c ****     /*******************************************************************************
 916:Generated_Source\PSoC4/SPIM.c ****     * Function Name: SPIM_TxDisable
 917:Generated_Source\PSoC4/SPIM.c ****     ********************************************************************************
 918:Generated_Source\PSoC4/SPIM.c ****     *
 919:Generated_Source\PSoC4/SPIM.c ****     * Summary:
 920:Generated_Source\PSoC4/SPIM.c ****     *  If the SPI master is configured to use a single bi-directional pin then this
 921:Generated_Source\PSoC4/SPIM.c ****     *  will set the bi-directional pin to receive.
 922:Generated_Source\PSoC4/SPIM.c ****     *
 923:Generated_Source\PSoC4/SPIM.c ****     * Parameters:
 924:Generated_Source\PSoC4/SPIM.c ****     *  None.
 925:Generated_Source\PSoC4/SPIM.c ****     *
 926:Generated_Source\PSoC4/SPIM.c ****     * Return:
 927:Generated_Source\PSoC4/SPIM.c ****     *  None.
 928:Generated_Source\PSoC4/SPIM.c ****     *
 929:Generated_Source\PSoC4/SPIM.c ****     *******************************************************************************/
 930:Generated_Source\PSoC4/SPIM.c ****     void SPIM_TxDisable(void) 
 931:Generated_Source\PSoC4/SPIM.c ****     {
 932:Generated_Source\PSoC4/SPIM.c ****         SPIM_CONTROL_REG &= ((uint8) ~SPIM_CTRL_TX_SIGNAL_EN);
ARM GAS  C:\Users\Kayas\AppData\Local\Temp\ccI1sZTk.s 			page 34


 933:Generated_Source\PSoC4/SPIM.c ****     }
 934:Generated_Source\PSoC4/SPIM.c **** 
 935:Generated_Source\PSoC4/SPIM.c **** #endif /* (0u != SPIM_BIDIRECTIONAL_MODE) */
 936:Generated_Source\PSoC4/SPIM.c **** 
 937:Generated_Source\PSoC4/SPIM.c **** 
 938:Generated_Source\PSoC4/SPIM.c **** /*******************************************************************************
 939:Generated_Source\PSoC4/SPIM.c **** * Function Name: SPIM_PutArray
 940:Generated_Source\PSoC4/SPIM.c **** ********************************************************************************
 941:Generated_Source\PSoC4/SPIM.c **** *
 942:Generated_Source\PSoC4/SPIM.c **** * Summary:
 943:Generated_Source\PSoC4/SPIM.c **** *  Write available data from ROM/RAM to the TX buffer while space is available
 944:Generated_Source\PSoC4/SPIM.c **** *  in the TX buffer. Keep trying until all data is passed to the TX buffer.
 945:Generated_Source\PSoC4/SPIM.c **** *
 946:Generated_Source\PSoC4/SPIM.c **** * Parameters:
 947:Generated_Source\PSoC4/SPIM.c **** *  *buffer: Pointer to the location in RAM containing the data to send
 948:Generated_Source\PSoC4/SPIM.c **** *  byteCount: The number of bytes to move to the transmit buffer.
 949:Generated_Source\PSoC4/SPIM.c **** *
 950:Generated_Source\PSoC4/SPIM.c **** * Return:
 951:Generated_Source\PSoC4/SPIM.c **** *  None.
 952:Generated_Source\PSoC4/SPIM.c **** *
 953:Generated_Source\PSoC4/SPIM.c **** * Side Effects:
 954:Generated_Source\PSoC4/SPIM.c **** *  Will stay in this routine until all data has been sent.  May get locked in
 955:Generated_Source\PSoC4/SPIM.c **** *  this loop if data is not being initiated by the master if there is not
 956:Generated_Source\PSoC4/SPIM.c **** *  enough room in the TX FIFO.
 957:Generated_Source\PSoC4/SPIM.c **** *
 958:Generated_Source\PSoC4/SPIM.c **** * Reentrant:
 959:Generated_Source\PSoC4/SPIM.c **** *  No.
 960:Generated_Source\PSoC4/SPIM.c **** *
 961:Generated_Source\PSoC4/SPIM.c **** *******************************************************************************/
 962:Generated_Source\PSoC4/SPIM.c **** void SPIM_PutArray(const uint8 buffer[], uint8 byteCount)
 963:Generated_Source\PSoC4/SPIM.c ****                                                                           
 964:Generated_Source\PSoC4/SPIM.c **** {
 926              		.loc 1 964 0
 927              		.cfi_startproc
 928              		@ args = 0, pretend = 0, frame = 0
 929              		@ frame_needed = 0, uses_anonymous_args = 0
 930              	.LVL62:
 931 0000 70B5     		push	{r4, r5, r6, lr}
 932              		.cfi_def_cfa_offset 16
 933              		.cfi_offset 4, -16
 934              		.cfi_offset 5, -12
 935              		.cfi_offset 6, -8
 936              		.cfi_offset 14, -4
 937 0002 0600     		movs	r6, r0
 938 0004 0C00     		movs	r4, r1
 939              	.LVL63:
 965:Generated_Source\PSoC4/SPIM.c ****     uint8 bufIndex;
 966:Generated_Source\PSoC4/SPIM.c **** 
 967:Generated_Source\PSoC4/SPIM.c ****     bufIndex = 0u;
 940              		.loc 1 967 0
 941 0006 0025     		movs	r5, #0
 968:Generated_Source\PSoC4/SPIM.c **** 
 969:Generated_Source\PSoC4/SPIM.c ****     while(byteCount > 0u)
 942              		.loc 1 969 0
 943 0008 06E0     		b	.L60
 944              	.LVL64:
 945              	.L61:
ARM GAS  C:\Users\Kayas\AppData\Local\Temp\ccI1sZTk.s 			page 35


 970:Generated_Source\PSoC4/SPIM.c ****     {
 971:Generated_Source\PSoC4/SPIM.c ****         SPIM_WriteTxData(buffer[bufIndex]);
 946              		.loc 1 971 0
 947 000a 705D     		ldrb	r0, [r6, r5]
 948 000c FFF7FEFF 		bl	SPIM_WriteTxData
 949              	.LVL65:
 972:Generated_Source\PSoC4/SPIM.c ****         bufIndex++;
 950              		.loc 1 972 0
 951 0010 0135     		adds	r5, r5, #1
 952              	.LVL66:
 953 0012 EDB2     		uxtb	r5, r5
 954              	.LVL67:
 973:Generated_Source\PSoC4/SPIM.c ****         byteCount--;
 955              		.loc 1 973 0
 956 0014 013C     		subs	r4, r4, #1
 957              	.LVL68:
 958 0016 E4B2     		uxtb	r4, r4
 959              	.LVL69:
 960              	.L60:
 969:Generated_Source\PSoC4/SPIM.c ****     {
 961              		.loc 1 969 0
 962 0018 002C     		cmp	r4, #0
 963 001a F6D1     		bne	.L61
 974:Generated_Source\PSoC4/SPIM.c ****     }
 975:Generated_Source\PSoC4/SPIM.c **** }
 964              		.loc 1 975 0
 965              		@ sp needed
 966              	.LVL70:
 967              	.LVL71:
 968              	.LVL72:
 969 001c 70BD     		pop	{r4, r5, r6, pc}
 970              		.cfi_endproc
 971              	.LFE18:
 972              		.size	SPIM_PutArray, .-SPIM_PutArray
 973 001e C046     		.section	.text.SPIM_ClearFIFO,"ax",%progbits
 974              		.align	2
 975              		.global	SPIM_ClearFIFO
 976              		.code	16
 977              		.thumb_func
 978              		.type	SPIM_ClearFIFO, %function
 979              	SPIM_ClearFIFO:
 980              	.LFB19:
 976:Generated_Source\PSoC4/SPIM.c **** 
 977:Generated_Source\PSoC4/SPIM.c **** 
 978:Generated_Source\PSoC4/SPIM.c **** /*******************************************************************************
 979:Generated_Source\PSoC4/SPIM.c **** * Function Name: SPIM_ClearFIFO
 980:Generated_Source\PSoC4/SPIM.c **** ********************************************************************************
 981:Generated_Source\PSoC4/SPIM.c **** *
 982:Generated_Source\PSoC4/SPIM.c **** * Summary:
 983:Generated_Source\PSoC4/SPIM.c **** *  Clear the RX and TX FIFO's of all data for a fresh start.
 984:Generated_Source\PSoC4/SPIM.c **** *
 985:Generated_Source\PSoC4/SPIM.c **** * Parameters:
 986:Generated_Source\PSoC4/SPIM.c **** *  None.
 987:Generated_Source\PSoC4/SPIM.c **** *
 988:Generated_Source\PSoC4/SPIM.c **** * Return:
 989:Generated_Source\PSoC4/SPIM.c **** *  None.
 990:Generated_Source\PSoC4/SPIM.c **** *
ARM GAS  C:\Users\Kayas\AppData\Local\Temp\ccI1sZTk.s 			page 36


 991:Generated_Source\PSoC4/SPIM.c **** * Side Effects:
 992:Generated_Source\PSoC4/SPIM.c **** *  Clear status register of the component.
 993:Generated_Source\PSoC4/SPIM.c **** *
 994:Generated_Source\PSoC4/SPIM.c **** *******************************************************************************/
 995:Generated_Source\PSoC4/SPIM.c **** void SPIM_ClearFIFO(void) 
 996:Generated_Source\PSoC4/SPIM.c **** {
 981              		.loc 1 996 0
 982              		.cfi_startproc
 983              		@ args = 0, pretend = 0, frame = 0
 984              		@ frame_needed = 0, uses_anonymous_args = 0
 985 0000 10B5     		push	{r4, lr}
 986              		.cfi_def_cfa_offset 8
 987              		.cfi_offset 4, -8
 988              		.cfi_offset 14, -4
 997:Generated_Source\PSoC4/SPIM.c ****     uint8 enableInterrupts;
 998:Generated_Source\PSoC4/SPIM.c **** 
 999:Generated_Source\PSoC4/SPIM.c ****     /* Clear Hardware RX FIFO */
1000:Generated_Source\PSoC4/SPIM.c ****     while(0u !=(SPIM_RX_STATUS_REG & SPIM_STS_RX_FIFO_NOT_EMPTY))
 989              		.loc 1 1000 0
 990 0002 01E0     		b	.L63
 991              	.L64:
1001:Generated_Source\PSoC4/SPIM.c ****     {
1002:Generated_Source\PSoC4/SPIM.c ****         (void) CY_GET_REG8(SPIM_RXDATA_PTR);
 992              		.loc 1 1002 0
 993 0004 0A4B     		ldr	r3, .L65
 994 0006 1B78     		ldrb	r3, [r3]
 995              	.L63:
1000:Generated_Source\PSoC4/SPIM.c ****     {
 996              		.loc 1 1000 0
 997 0008 0A4B     		ldr	r3, .L65+4
 998 000a 1B78     		ldrb	r3, [r3]
 999 000c 9B06     		lsls	r3, r3, #26
 1000 000e F9D4     		bmi	.L64
1003:Generated_Source\PSoC4/SPIM.c ****     }
1004:Generated_Source\PSoC4/SPIM.c **** 
1005:Generated_Source\PSoC4/SPIM.c ****     enableInterrupts = CyEnterCriticalSection();
 1001              		.loc 1 1005 0
 1002 0010 FFF7FEFF 		bl	CyEnterCriticalSection
 1003              	.LVL73:
1006:Generated_Source\PSoC4/SPIM.c ****     /* Clear TX FIFO */
1007:Generated_Source\PSoC4/SPIM.c ****     SPIM_AUX_CONTROL_DP0_REG |= ((uint8)  SPIM_TX_FIFO_CLR);
 1004              		.loc 1 1007 0
 1005 0014 084A     		ldr	r2, .L65+8
 1006 0016 1178     		ldrb	r1, [r2]
 1007 0018 0123     		movs	r3, #1
 1008 001a 0B43     		orrs	r3, r1
 1009 001c DBB2     		uxtb	r3, r3
 1010 001e 1370     		strb	r3, [r2]
1008:Generated_Source\PSoC4/SPIM.c ****     SPIM_AUX_CONTROL_DP0_REG &= ((uint8) ~SPIM_TX_FIFO_CLR);
 1011              		.loc 1 1008 0
 1012 0020 1378     		ldrb	r3, [r2]
 1013 0022 0121     		movs	r1, #1
 1014 0024 8B43     		bics	r3, r1
 1015 0026 1370     		strb	r3, [r2]
1009:Generated_Source\PSoC4/SPIM.c **** 
1010:Generated_Source\PSoC4/SPIM.c ****     #if(SPIM_USE_SECOND_DATAPATH)
1011:Generated_Source\PSoC4/SPIM.c ****         /* Clear TX FIFO for 2nd Datapath */
ARM GAS  C:\Users\Kayas\AppData\Local\Temp\ccI1sZTk.s 			page 37


1012:Generated_Source\PSoC4/SPIM.c ****         SPIM_AUX_CONTROL_DP1_REG |= ((uint8)  SPIM_TX_FIFO_CLR);
1013:Generated_Source\PSoC4/SPIM.c ****         SPIM_AUX_CONTROL_DP1_REG &= ((uint8) ~SPIM_TX_FIFO_CLR);
1014:Generated_Source\PSoC4/SPIM.c ****     #endif /* (SPIM_USE_SECOND_DATAPATH) */
1015:Generated_Source\PSoC4/SPIM.c ****     CyExitCriticalSection(enableInterrupts);
 1016              		.loc 1 1015 0
 1017 0028 FFF7FEFF 		bl	CyExitCriticalSection
 1018              	.LVL74:
1016:Generated_Source\PSoC4/SPIM.c **** }
 1019              		.loc 1 1016 0
 1020              		@ sp needed
 1021 002c 10BD     		pop	{r4, pc}
 1022              	.L66:
 1023 002e C046     		.align	2
 1024              	.L65:
 1025 0030 52000F40 		.word	1074724946
 1026 0034 62000F40 		.word	1074724962
 1027 0038 92000F40 		.word	1074725010
 1028              		.cfi_endproc
 1029              	.LFE19:
 1030              		.size	SPIM_ClearFIFO, .-SPIM_ClearFIFO
 1031              		.section	.text.SPIM_Init,"ax",%progbits
 1032              		.align	2
 1033              		.global	SPIM_Init
 1034              		.code	16
 1035              		.thumb_func
 1036              		.type	SPIM_Init, %function
 1037              	SPIM_Init:
 1038              	.LFB0:
  64:Generated_Source\PSoC4/SPIM.c ****     /* Initialize the Bit counter */
 1039              		.loc 1 64 0
 1040              		.cfi_startproc
 1041              		@ args = 0, pretend = 0, frame = 0
 1042              		@ frame_needed = 0, uses_anonymous_args = 0
 1043 0000 10B5     		push	{r4, lr}
 1044              		.cfi_def_cfa_offset 8
 1045              		.cfi_offset 4, -8
 1046              		.cfi_offset 14, -4
  66:Generated_Source\PSoC4/SPIM.c **** 
 1047              		.loc 1 66 0
 1048 0002 0F22     		movs	r2, #15
 1049 0004 184B     		ldr	r3, .L68
 1050 0006 1A70     		strb	r2, [r3]
  70:Generated_Source\PSoC4/SPIM.c ****         CyIntSetPriority     (SPIM_TX_ISR_NUMBER,  SPIM_TX_ISR_PRIORITY);
 1051              		.loc 1 70 0
 1052 0008 0220     		movs	r0, #2
 1053 000a FFF7FEFF 		bl	CyIntDisable
 1054              	.LVL75:
  71:Generated_Source\PSoC4/SPIM.c ****         (void) CyIntSetVector(SPIM_TX_ISR_NUMBER, &SPIM_TX_ISR);
 1055              		.loc 1 71 0
 1056 000e 0321     		movs	r1, #3
 1057 0010 0220     		movs	r0, #2
 1058 0012 FFF7FEFF 		bl	CyIntSetPriority
 1059              	.LVL76:
  72:Generated_Source\PSoC4/SPIM.c ****     #endif /* (0u != SPIM_INTERNAL_TX_INT_ENABLED) */
 1060              		.loc 1 72 0
 1061 0016 1549     		ldr	r1, .L68+4
 1062 0018 0220     		movs	r0, #2
ARM GAS  C:\Users\Kayas\AppData\Local\Temp\ccI1sZTk.s 			page 38


 1063 001a FFF7FEFF 		bl	CyIntSetVector
 1064              	.LVL77:
  77:Generated_Source\PSoC4/SPIM.c ****         CyIntSetPriority     (SPIM_RX_ISR_NUMBER,  SPIM_RX_ISR_PRIORITY);
 1065              		.loc 1 77 0
 1066 001e 0020     		movs	r0, #0
 1067 0020 FFF7FEFF 		bl	CyIntDisable
 1068              	.LVL78:
  78:Generated_Source\PSoC4/SPIM.c ****         (void) CyIntSetVector(SPIM_RX_ISR_NUMBER, &SPIM_RX_ISR);
 1069              		.loc 1 78 0
 1070 0024 0321     		movs	r1, #3
 1071 0026 0020     		movs	r0, #0
 1072 0028 FFF7FEFF 		bl	CyIntSetPriority
 1073              	.LVL79:
  79:Generated_Source\PSoC4/SPIM.c ****     #endif /* (0u != SPIM_INTERNAL_RX_INT_ENABLED) */
 1074              		.loc 1 79 0
 1075 002c 1049     		ldr	r1, .L68+8
 1076 002e 0020     		movs	r0, #0
 1077 0030 FFF7FEFF 		bl	CyIntSetVector
 1078              	.LVL80:
  83:Generated_Source\PSoC4/SPIM.c **** 
 1079              		.loc 1 83 0
 1080 0034 FFF7FEFF 		bl	SPIM_ClearFIFO
 1081              	.LVL81:
  86:Generated_Source\PSoC4/SPIM.c ****         SPIM_rxBufferRead  = 0u;
 1082              		.loc 1 86 0
 1083 0038 0024     		movs	r4, #0
 1084 003a 0E4B     		ldr	r3, .L68+12
 1085 003c 1C70     		strb	r4, [r3]
  87:Generated_Source\PSoC4/SPIM.c ****         SPIM_rxBufferWrite = 0u;
 1086              		.loc 1 87 0
 1087 003e 0E4B     		ldr	r3, .L68+16
 1088 0040 1C70     		strb	r4, [r3]
  88:Generated_Source\PSoC4/SPIM.c ****     #endif /* (SPIM_RX_SOFTWARE_BUF_ENABLED) */
 1089              		.loc 1 88 0
 1090 0042 0E4B     		ldr	r3, .L68+20
 1091 0044 1C70     		strb	r4, [r3]
  92:Generated_Source\PSoC4/SPIM.c ****         SPIM_txBufferRead  = 0u;
 1092              		.loc 1 92 0
 1093 0046 0E4B     		ldr	r3, .L68+24
 1094 0048 1C70     		strb	r4, [r3]
  93:Generated_Source\PSoC4/SPIM.c ****         SPIM_txBufferWrite = 0u;
 1095              		.loc 1 93 0
 1096 004a 0E4B     		ldr	r3, .L68+28
 1097 004c 1C70     		strb	r4, [r3]
  94:Generated_Source\PSoC4/SPIM.c ****     #endif /* (SPIM_TX_SOFTWARE_BUF_ENABLED) */
 1098              		.loc 1 94 0
 1099 004e 0E4B     		ldr	r3, .L68+32
 1100 0050 1C70     		strb	r4, [r3]
  97:Generated_Source\PSoC4/SPIM.c ****     (void) SPIM_ReadRxStatus(); /* Clear Rx status and swStatusRx */
 1101              		.loc 1 97 0
 1102 0052 FFF7FEFF 		bl	SPIM_ReadTxStatus
 1103              	.LVL82:
  98:Generated_Source\PSoC4/SPIM.c **** 
 1104              		.loc 1 98 0
 1105 0056 FFF7FEFF 		bl	SPIM_ReadRxStatus
 1106              	.LVL83:
 101:Generated_Source\PSoC4/SPIM.c ****     SPIM_RX_STATUS_MASK_REG = SPIM_RX_INIT_INTERRUPTS_MASK;
ARM GAS  C:\Users\Kayas\AppData\Local\Temp\ccI1sZTk.s 			page 39


 1107              		.loc 1 101 0
 1108 005a 0C4B     		ldr	r3, .L68+36
 1109 005c 1C70     		strb	r4, [r3]
 102:Generated_Source\PSoC4/SPIM.c **** }
 1110              		.loc 1 102 0
 1111 005e 2022     		movs	r2, #32
 1112 0060 0B4B     		ldr	r3, .L68+40
 1113 0062 1A70     		strb	r2, [r3]
 103:Generated_Source\PSoC4/SPIM.c **** 
 1114              		.loc 1 103 0
 1115              		@ sp needed
 1116 0064 10BD     		pop	{r4, pc}
 1117              	.L69:
 1118 0066 C046     		.align	2
 1119              	.L68:
 1120 0068 83000F40 		.word	1074724995
 1121 006c 00000000 		.word	SPIM_TX_ISR
 1122 0070 00000000 		.word	SPIM_RX_ISR
 1123 0074 00000000 		.word	SPIM_rxBufferFull
 1124 0078 00000000 		.word	SPIM_rxBufferRead
 1125 007c 00000000 		.word	SPIM_rxBufferWrite
 1126 0080 00000000 		.word	SPIM_txBufferFull
 1127 0084 00000000 		.word	SPIM_txBufferRead
 1128 0088 00000000 		.word	SPIM_txBufferWrite
 1129 008c 81000F40 		.word	1074724993
 1130 0090 82000F40 		.word	1074724994
 1131              		.cfi_endproc
 1132              	.LFE0:
 1133              		.size	SPIM_Init, .-SPIM_Init
 1134              		.section	.text.SPIM_Start,"ax",%progbits
 1135              		.align	2
 1136              		.global	SPIM_Start
 1137              		.code	16
 1138              		.thumb_func
 1139              		.type	SPIM_Start, %function
 1140              	SPIM_Start:
 1141              	.LFB2:
 164:Generated_Source\PSoC4/SPIM.c ****     if(0u == SPIM_initVar)
 1142              		.loc 1 164 0
 1143              		.cfi_startproc
 1144              		@ args = 0, pretend = 0, frame = 0
 1145              		@ frame_needed = 0, uses_anonymous_args = 0
 1146 0000 10B5     		push	{r4, lr}
 1147              		.cfi_def_cfa_offset 8
 1148              		.cfi_offset 4, -8
 1149              		.cfi_offset 14, -4
 165:Generated_Source\PSoC4/SPIM.c ****     {
 1150              		.loc 1 165 0
 1151 0002 064B     		ldr	r3, .L72
 1152 0004 1B78     		ldrb	r3, [r3]
 1153 0006 002B     		cmp	r3, #0
 1154 0008 04D1     		bne	.L71
 167:Generated_Source\PSoC4/SPIM.c ****         SPIM_initVar = 1u;
 1155              		.loc 1 167 0
 1156 000a FFF7FEFF 		bl	SPIM_Init
 1157              	.LVL84:
 168:Generated_Source\PSoC4/SPIM.c ****     }
ARM GAS  C:\Users\Kayas\AppData\Local\Temp\ccI1sZTk.s 			page 40


 1158              		.loc 1 168 0
 1159 000e 0122     		movs	r2, #1
 1160 0010 024B     		ldr	r3, .L72
 1161 0012 1A70     		strb	r2, [r3]
 1162              	.L71:
 171:Generated_Source\PSoC4/SPIM.c **** }
 1163              		.loc 1 171 0
 1164 0014 FFF7FEFF 		bl	SPIM_Enable
 1165              	.LVL85:
 172:Generated_Source\PSoC4/SPIM.c **** 
 1166              		.loc 1 172 0
 1167              		@ sp needed
 1168 0018 10BD     		pop	{r4, pc}
 1169              	.L73:
 1170 001a C046     		.align	2
 1171              	.L72:
 1172 001c 00000000 		.word	.LANCHOR0
 1173              		.cfi_endproc
 1174              	.LFE2:
 1175              		.size	SPIM_Start, .-SPIM_Start
 1176              		.section	.text.SPIM_EnableInt,"ax",%progbits
 1177              		.align	2
 1178              		.global	SPIM_EnableInt
 1179              		.code	16
 1180              		.thumb_func
 1181              		.type	SPIM_EnableInt, %function
 1182              	SPIM_EnableInt:
 1183              	.LFB20:
1017:Generated_Source\PSoC4/SPIM.c **** 
1018:Generated_Source\PSoC4/SPIM.c **** 
1019:Generated_Source\PSoC4/SPIM.c **** /* Following functions are for version Compatibility, they are obsolete.
1020:Generated_Source\PSoC4/SPIM.c **** *  Please do not use it in new projects.
1021:Generated_Source\PSoC4/SPIM.c **** */
1022:Generated_Source\PSoC4/SPIM.c **** 
1023:Generated_Source\PSoC4/SPIM.c **** 
1024:Generated_Source\PSoC4/SPIM.c **** /*******************************************************************************
1025:Generated_Source\PSoC4/SPIM.c **** * Function Name: SPIM_EnableInt
1026:Generated_Source\PSoC4/SPIM.c **** ********************************************************************************
1027:Generated_Source\PSoC4/SPIM.c **** *
1028:Generated_Source\PSoC4/SPIM.c **** * Summary:
1029:Generated_Source\PSoC4/SPIM.c **** *  Enable internal interrupt generation.
1030:Generated_Source\PSoC4/SPIM.c **** *
1031:Generated_Source\PSoC4/SPIM.c **** * Parameters:
1032:Generated_Source\PSoC4/SPIM.c **** *  None.
1033:Generated_Source\PSoC4/SPIM.c **** *
1034:Generated_Source\PSoC4/SPIM.c **** * Return:
1035:Generated_Source\PSoC4/SPIM.c **** *  None.
1036:Generated_Source\PSoC4/SPIM.c **** *
1037:Generated_Source\PSoC4/SPIM.c **** * Theory:
1038:Generated_Source\PSoC4/SPIM.c **** *  Enable the internal interrupt output -or- the interrupt component itself.
1039:Generated_Source\PSoC4/SPIM.c **** *
1040:Generated_Source\PSoC4/SPIM.c **** *******************************************************************************/
1041:Generated_Source\PSoC4/SPIM.c **** void SPIM_EnableInt(void) 
1042:Generated_Source\PSoC4/SPIM.c **** {
 1184              		.loc 1 1042 0
 1185              		.cfi_startproc
 1186              		@ args = 0, pretend = 0, frame = 0
ARM GAS  C:\Users\Kayas\AppData\Local\Temp\ccI1sZTk.s 			page 41


 1187              		@ frame_needed = 0, uses_anonymous_args = 0
 1188 0000 10B5     		push	{r4, lr}
 1189              		.cfi_def_cfa_offset 8
 1190              		.cfi_offset 4, -8
 1191              		.cfi_offset 14, -4
1043:Generated_Source\PSoC4/SPIM.c ****     SPIM_EnableRxInt();
 1192              		.loc 1 1043 0
 1193 0002 FFF7FEFF 		bl	SPIM_EnableRxInt
 1194              	.LVL86:
1044:Generated_Source\PSoC4/SPIM.c ****     SPIM_EnableTxInt();
 1195              		.loc 1 1044 0
 1196 0006 FFF7FEFF 		bl	SPIM_EnableTxInt
 1197              	.LVL87:
1045:Generated_Source\PSoC4/SPIM.c **** }
 1198              		.loc 1 1045 0
 1199              		@ sp needed
 1200 000a 10BD     		pop	{r4, pc}
 1201              		.cfi_endproc
 1202              	.LFE20:
 1203              		.size	SPIM_EnableInt, .-SPIM_EnableInt
 1204              		.section	.text.SPIM_DisableInt,"ax",%progbits
 1205              		.align	2
 1206              		.global	SPIM_DisableInt
 1207              		.code	16
 1208              		.thumb_func
 1209              		.type	SPIM_DisableInt, %function
 1210              	SPIM_DisableInt:
 1211              	.LFB21:
1046:Generated_Source\PSoC4/SPIM.c **** 
1047:Generated_Source\PSoC4/SPIM.c **** 
1048:Generated_Source\PSoC4/SPIM.c **** /*******************************************************************************
1049:Generated_Source\PSoC4/SPIM.c **** * Function Name: SPIM_DisableInt
1050:Generated_Source\PSoC4/SPIM.c **** ********************************************************************************
1051:Generated_Source\PSoC4/SPIM.c **** *
1052:Generated_Source\PSoC4/SPIM.c **** * Summary:
1053:Generated_Source\PSoC4/SPIM.c **** *  Disable internal interrupt generation.
1054:Generated_Source\PSoC4/SPIM.c **** *
1055:Generated_Source\PSoC4/SPIM.c **** * Parameters:
1056:Generated_Source\PSoC4/SPIM.c **** *  None.
1057:Generated_Source\PSoC4/SPIM.c **** *
1058:Generated_Source\PSoC4/SPIM.c **** * Return:
1059:Generated_Source\PSoC4/SPIM.c **** *  None.
1060:Generated_Source\PSoC4/SPIM.c **** *
1061:Generated_Source\PSoC4/SPIM.c **** * Theory:
1062:Generated_Source\PSoC4/SPIM.c **** *  Disable the internal interrupt output -or- the interrupt component itself.
1063:Generated_Source\PSoC4/SPIM.c **** *
1064:Generated_Source\PSoC4/SPIM.c **** *******************************************************************************/
1065:Generated_Source\PSoC4/SPIM.c **** void SPIM_DisableInt(void) 
1066:Generated_Source\PSoC4/SPIM.c **** {
 1212              		.loc 1 1066 0
 1213              		.cfi_startproc
 1214              		@ args = 0, pretend = 0, frame = 0
 1215              		@ frame_needed = 0, uses_anonymous_args = 0
 1216 0000 10B5     		push	{r4, lr}
 1217              		.cfi_def_cfa_offset 8
 1218              		.cfi_offset 4, -8
 1219              		.cfi_offset 14, -4
ARM GAS  C:\Users\Kayas\AppData\Local\Temp\ccI1sZTk.s 			page 42


1067:Generated_Source\PSoC4/SPIM.c ****     SPIM_DisableTxInt();
 1220              		.loc 1 1067 0
 1221 0002 FFF7FEFF 		bl	SPIM_DisableTxInt
 1222              	.LVL88:
1068:Generated_Source\PSoC4/SPIM.c ****     SPIM_DisableRxInt();
 1223              		.loc 1 1068 0
 1224 0006 FFF7FEFF 		bl	SPIM_DisableRxInt
 1225              	.LVL89:
1069:Generated_Source\PSoC4/SPIM.c **** }
 1226              		.loc 1 1069 0
 1227              		@ sp needed
 1228 000a 10BD     		pop	{r4, pc}
 1229              		.cfi_endproc
 1230              	.LFE21:
 1231              		.size	SPIM_DisableInt, .-SPIM_DisableInt
 1232              		.section	.text.SPIM_SetInterruptMode,"ax",%progbits
 1233              		.align	2
 1234              		.global	SPIM_SetInterruptMode
 1235              		.code	16
 1236              		.thumb_func
 1237              		.type	SPIM_SetInterruptMode, %function
 1238              	SPIM_SetInterruptMode:
 1239              	.LFB22:
1070:Generated_Source\PSoC4/SPIM.c **** 
1071:Generated_Source\PSoC4/SPIM.c **** 
1072:Generated_Source\PSoC4/SPIM.c **** /*******************************************************************************
1073:Generated_Source\PSoC4/SPIM.c **** * Function Name: SPIM_SetInterruptMode
1074:Generated_Source\PSoC4/SPIM.c **** ********************************************************************************
1075:Generated_Source\PSoC4/SPIM.c **** *
1076:Generated_Source\PSoC4/SPIM.c **** * Summary:
1077:Generated_Source\PSoC4/SPIM.c **** *  Configure which status bits trigger an interrupt event.
1078:Generated_Source\PSoC4/SPIM.c **** *
1079:Generated_Source\PSoC4/SPIM.c **** * Parameters:
1080:Generated_Source\PSoC4/SPIM.c **** *  intSrc: An or'd combination of the desired status bit masks (defined in the
1081:Generated_Source\PSoC4/SPIM.c **** *  header file).
1082:Generated_Source\PSoC4/SPIM.c **** *
1083:Generated_Source\PSoC4/SPIM.c **** * Return:
1084:Generated_Source\PSoC4/SPIM.c **** *  None.
1085:Generated_Source\PSoC4/SPIM.c **** *
1086:Generated_Source\PSoC4/SPIM.c **** * Theory:
1087:Generated_Source\PSoC4/SPIM.c **** *  Enables the output of specific status bits to the interrupt controller.
1088:Generated_Source\PSoC4/SPIM.c **** *
1089:Generated_Source\PSoC4/SPIM.c **** *******************************************************************************/
1090:Generated_Source\PSoC4/SPIM.c **** void SPIM_SetInterruptMode(uint8 intSrc) 
1091:Generated_Source\PSoC4/SPIM.c **** {
 1240              		.loc 1 1091 0
 1241              		.cfi_startproc
 1242              		@ args = 0, pretend = 0, frame = 0
 1243              		@ frame_needed = 0, uses_anonymous_args = 0
 1244              		@ link register save eliminated.
 1245              	.LVL90:
1092:Generated_Source\PSoC4/SPIM.c ****     SPIM_TX_STATUS_MASK_REG  = (intSrc & ((uint8) ~SPIM_STS_SPI_IDLE));
 1246              		.loc 1 1092 0
 1247 0000 1023     		movs	r3, #16
 1248 0002 0200     		movs	r2, r0
 1249 0004 9A43     		bics	r2, r3
 1250 0006 024B     		ldr	r3, .L77
ARM GAS  C:\Users\Kayas\AppData\Local\Temp\ccI1sZTk.s 			page 43


 1251 0008 1A70     		strb	r2, [r3]
1093:Generated_Source\PSoC4/SPIM.c ****     SPIM_RX_STATUS_MASK_REG  =  intSrc;
 1252              		.loc 1 1093 0
 1253 000a 024B     		ldr	r3, .L77+4
 1254 000c 1870     		strb	r0, [r3]
1094:Generated_Source\PSoC4/SPIM.c **** }
 1255              		.loc 1 1094 0
 1256              		@ sp needed
 1257 000e 7047     		bx	lr
 1258              	.L78:
 1259              		.align	2
 1260              	.L77:
 1261 0010 81000F40 		.word	1074724993
 1262 0014 82000F40 		.word	1074724994
 1263              		.cfi_endproc
 1264              	.LFE22:
 1265              		.size	SPIM_SetInterruptMode, .-SPIM_SetInterruptMode
 1266              		.section	.text.SPIM_ReadStatus,"ax",%progbits
 1267              		.align	2
 1268              		.global	SPIM_ReadStatus
 1269              		.code	16
 1270              		.thumb_func
 1271              		.type	SPIM_ReadStatus, %function
 1272              	SPIM_ReadStatus:
 1273              	.LFB23:
1095:Generated_Source\PSoC4/SPIM.c **** 
1096:Generated_Source\PSoC4/SPIM.c **** 
1097:Generated_Source\PSoC4/SPIM.c **** /*******************************************************************************
1098:Generated_Source\PSoC4/SPIM.c **** * Function Name: SPIM_ReadStatus
1099:Generated_Source\PSoC4/SPIM.c **** ********************************************************************************
1100:Generated_Source\PSoC4/SPIM.c **** *
1101:Generated_Source\PSoC4/SPIM.c **** * Summary:
1102:Generated_Source\PSoC4/SPIM.c **** *  Read the status register for the component.
1103:Generated_Source\PSoC4/SPIM.c **** *
1104:Generated_Source\PSoC4/SPIM.c **** * Parameters:
1105:Generated_Source\PSoC4/SPIM.c **** *  None.
1106:Generated_Source\PSoC4/SPIM.c **** *
1107:Generated_Source\PSoC4/SPIM.c **** * Return:
1108:Generated_Source\PSoC4/SPIM.c **** *  Contents of the status register.
1109:Generated_Source\PSoC4/SPIM.c **** *
1110:Generated_Source\PSoC4/SPIM.c **** * Global variables:
1111:Generated_Source\PSoC4/SPIM.c **** *  SPIM_swStatus - used to store in software status register,
1112:Generated_Source\PSoC4/SPIM.c **** *  modified every function call - resets to zero.
1113:Generated_Source\PSoC4/SPIM.c **** *
1114:Generated_Source\PSoC4/SPIM.c **** * Theory:
1115:Generated_Source\PSoC4/SPIM.c **** *  Allows the user and the API to read the status register for error detection
1116:Generated_Source\PSoC4/SPIM.c **** *  and flow control.
1117:Generated_Source\PSoC4/SPIM.c **** *
1118:Generated_Source\PSoC4/SPIM.c **** * Side Effects:
1119:Generated_Source\PSoC4/SPIM.c **** *  Clear status register of the component.
1120:Generated_Source\PSoC4/SPIM.c **** *
1121:Generated_Source\PSoC4/SPIM.c **** * Reentrant:
1122:Generated_Source\PSoC4/SPIM.c **** *  No.
1123:Generated_Source\PSoC4/SPIM.c **** *
1124:Generated_Source\PSoC4/SPIM.c **** *******************************************************************************/
1125:Generated_Source\PSoC4/SPIM.c **** uint8 SPIM_ReadStatus(void) 
1126:Generated_Source\PSoC4/SPIM.c **** {
ARM GAS  C:\Users\Kayas\AppData\Local\Temp\ccI1sZTk.s 			page 44


 1274              		.loc 1 1126 0
 1275              		.cfi_startproc
 1276              		@ args = 0, pretend = 0, frame = 0
 1277              		@ frame_needed = 0, uses_anonymous_args = 0
 1278 0000 70B5     		push	{r4, r5, r6, lr}
 1279              		.cfi_def_cfa_offset 16
 1280              		.cfi_offset 4, -16
 1281              		.cfi_offset 5, -12
 1282              		.cfi_offset 6, -8
 1283              		.cfi_offset 14, -4
1127:Generated_Source\PSoC4/SPIM.c ****     uint8 tmpStatus;
1128:Generated_Source\PSoC4/SPIM.c **** 
1129:Generated_Source\PSoC4/SPIM.c ****     #if(SPIM_TX_SOFTWARE_BUF_ENABLED || SPIM_RX_SOFTWARE_BUF_ENABLED)
1130:Generated_Source\PSoC4/SPIM.c **** 
1131:Generated_Source\PSoC4/SPIM.c ****         SPIM_DisableInt();
 1284              		.loc 1 1131 0
 1285 0002 FFF7FEFF 		bl	SPIM_DisableInt
 1286              	.LVL91:
1132:Generated_Source\PSoC4/SPIM.c **** 
1133:Generated_Source\PSoC4/SPIM.c ****         tmpStatus  = SPIM_GET_STATUS_RX(SPIM_swStatusRx);
 1287              		.loc 1 1133 0
 1288 0006 0D4B     		ldr	r3, .L80
 1289 0008 1A78     		ldrb	r2, [r3]
 1290 000a 0D48     		ldr	r0, .L80+4
 1291 000c 0478     		ldrb	r4, [r0]
 1292 000e 4023     		movs	r3, #64
 1293 0010 1C40     		ands	r4, r3
 1294 0012 2243     		orrs	r2, r4
 1295 0014 1100     		movs	r1, r2
 1296              	.LVL92:
1134:Generated_Source\PSoC4/SPIM.c ****         tmpStatus |= SPIM_GET_STATUS_TX(SPIM_swStatusTx);
 1297              		.loc 1 1134 0
 1298 0016 0B4B     		ldr	r3, .L80+8
 1299 0018 1C78     		ldrb	r4, [r3]
 1300 001a 0B4D     		ldr	r5, .L80+12
 1301 001c 2B78     		ldrb	r3, [r5]
 1302 001e 0922     		movs	r2, #9
 1303 0020 1340     		ands	r3, r2
 1304 0022 2343     		orrs	r3, r4
 1305 0024 1943     		orrs	r1, r3
 1306              	.LVL93:
 1307 0026 0C00     		movs	r4, r1
 1308              	.LVL94:
1135:Generated_Source\PSoC4/SPIM.c ****         tmpStatus &= ((uint8) ~SPIM_STS_SPI_IDLE);
 1309              		.loc 1 1135 0
 1310 0028 1023     		movs	r3, #16
 1311 002a 9C43     		bics	r4, r3
 1312              	.LVL95:
1136:Generated_Source\PSoC4/SPIM.c **** 
1137:Generated_Source\PSoC4/SPIM.c ****         SPIM_swStatusTx = 0u;
 1313              		.loc 1 1137 0
 1314 002c 0023     		movs	r3, #0
 1315 002e 2B70     		strb	r3, [r5]
1138:Generated_Source\PSoC4/SPIM.c ****         SPIM_swStatusRx = 0u;
 1316              		.loc 1 1138 0
 1317 0030 0370     		strb	r3, [r0]
1139:Generated_Source\PSoC4/SPIM.c **** 
ARM GAS  C:\Users\Kayas\AppData\Local\Temp\ccI1sZTk.s 			page 45


1140:Generated_Source\PSoC4/SPIM.c ****         SPIM_EnableInt();
 1318              		.loc 1 1140 0
 1319 0032 FFF7FEFF 		bl	SPIM_EnableInt
 1320              	.LVL96:
1141:Generated_Source\PSoC4/SPIM.c **** 
1142:Generated_Source\PSoC4/SPIM.c ****     #else
1143:Generated_Source\PSoC4/SPIM.c **** 
1144:Generated_Source\PSoC4/SPIM.c ****         tmpStatus  = SPIM_RX_STATUS_REG;
1145:Generated_Source\PSoC4/SPIM.c ****         tmpStatus |= SPIM_TX_STATUS_REG;
1146:Generated_Source\PSoC4/SPIM.c ****         tmpStatus &= ((uint8) ~SPIM_STS_SPI_IDLE);
1147:Generated_Source\PSoC4/SPIM.c **** 
1148:Generated_Source\PSoC4/SPIM.c ****     #endif /* (SPIM_TX_SOFTWARE_BUF_ENABLED || SPIM_RX_SOFTWARE_BUF_ENABLED) */
1149:Generated_Source\PSoC4/SPIM.c **** 
1150:Generated_Source\PSoC4/SPIM.c ****     return(tmpStatus);
1151:Generated_Source\PSoC4/SPIM.c **** }
 1321              		.loc 1 1151 0
 1322 0036 2000     		movs	r0, r4
 1323              		@ sp needed
 1324              	.LVL97:
 1325 0038 70BD     		pop	{r4, r5, r6, pc}
 1326              	.L81:
 1327 003a C046     		.align	2
 1328              	.L80:
 1329 003c 62000F40 		.word	1074724962
 1330 0040 00000000 		.word	SPIM_swStatusRx
 1331 0044 61000F40 		.word	1074724961
 1332 0048 00000000 		.word	SPIM_swStatusTx
 1333              		.cfi_endproc
 1334              	.LFE23:
 1335              		.size	SPIM_ReadStatus, .-SPIM_ReadStatus
 1336              		.comm	SPIM_swStatusRx,1,1
 1337              		.comm	SPIM_swStatusTx,1,1
 1338              		.global	SPIM_initVar
 1339              		.comm	SPIM_rxBufferWrite,1,1
 1340              		.comm	SPIM_rxBufferRead,1,1
 1341              		.comm	SPIM_rxBufferFull,1,1
 1342              		.comm	SPIM_rxBuffer,8,4
 1343              		.comm	SPIM_txBufferWrite,1,1
 1344              		.comm	SPIM_txBufferRead,1,1
 1345              		.comm	SPIM_txBufferFull,1,1
 1346              		.comm	SPIM_txBuffer,8,4
 1347              		.bss
 1348              		.set	.LANCHOR0,. + 0
 1349              		.type	SPIM_initVar, %object
 1350              		.size	SPIM_initVar, 1
 1351              	SPIM_initVar:
 1352 0000 00       		.space	1
 1353              		.text
 1354              	.Letext0:
 1355              		.file 2 "Generated_Source\\PSoC4\\cytypes.h"
 1356              		.file 3 "Generated_Source\\PSoC4\\CyLib.h"
 1357              		.file 4 "Generated_Source\\PSoC4\\SPIM_IntClock.h"