ARM GAS  C:\Users\Kayas\AppData\Local\Temp\ccpxl0Kp.s 			page 1


   1              		.syntax unified
   2              		.cpu cortex-m0
   3              		.fpu softvfp
   4              		.eabi_attribute 20, 1
   5              		.eabi_attribute 21, 1
   6              		.eabi_attribute 23, 3
   7              		.eabi_attribute 24, 1
   8              		.eabi_attribute 25, 1
   9              		.eabi_attribute 26, 1
  10              		.eabi_attribute 30, 1
  11              		.eabi_attribute 34, 0
  12              		.eabi_attribute 18, 4
  13              		.thumb
  14              		.syntax unified
  15              		.file	"TFT.c"
  16              		.text
  17              	.Ltext0:
  18              		.cfi_sections	.debug_frame
  19              		.section	.text.constrain,"ax",%progbits
  20              		.align	2
  21              		.global	constrain
  22              		.code	16
  23              		.thumb_func
  24              		.type	constrain, %function
  25              	constrain:
  26              	.LFB59:
  27              		.file 1 "D:\\Psoc\\TFT240_320_4200\\TFT240x320.cydsn\\TFT.c"
   1:D:\Psoc\TFT240_320_4200\TFT240x320.cydsn\TFT.c **** /*
   2:D:\Psoc\TFT240_320_4200\TFT240x320.cydsn\TFT.c ****  * TFT.c
   3:D:\Psoc\TFT240_320_4200\TFT240x320.cydsn\TFT.c ****  *
   4:D:\Psoc\TFT240_320_4200\TFT240x320.cydsn\TFT.c ****  *  Created: 14.10.2013 12:47:54
   5:D:\Psoc\TFT240_320_4200\TFT240x320.cydsn\TFT.c ****  *   Author: Ovner
   6:D:\Psoc\TFT240_320_4200\TFT240x320.cydsn\TFT.c ****  *
   7:D:\Psoc\TFT240_320_4200\TFT240x320.cydsn\TFT.c ****  * My additions: 9.02.2014
   8:D:\Psoc\TFT240_320_4200\TFT240x320.cydsn\TFT.c ****  */ 
   9:D:\Psoc\TFT240_320_4200\TFT240x320.cydsn\TFT.c **** #include "TFT.h"
  10:D:\Psoc\TFT240_320_4200\TFT240x320.cydsn\TFT.c **** #include "fonts.h"
  11:D:\Psoc\TFT240_320_4200\TFT240x320.cydsn\TFT.c **** 
  12:D:\Psoc\TFT240_320_4200\TFT240x320.cydsn\TFT.c **** #define pgm_read_byte(addr) (*(const unsigned char *)(addr))
  13:D:\Psoc\TFT240_320_4200\TFT240x320.cydsn\TFT.c **** uint16_t MAX_X=10, MAX_Y = 10;
  14:D:\Psoc\TFT240_320_4200\TFT240x320.cydsn\TFT.c **** //************************************************************************************
  15:D:\Psoc\TFT240_320_4200\TFT240x320.cydsn\TFT.c **** uint16_t constrain(uint16_t a, uint16_t b, uint16_t c)
  16:D:\Psoc\TFT240_320_4200\TFT240x320.cydsn\TFT.c **** {
  28              		.loc 1 16 0
  29              		.cfi_startproc
  30              		@ args = 0, pretend = 0, frame = 0
  31              		@ frame_needed = 0, uses_anonymous_args = 0
  32              		@ link register save eliminated.
  33              	.LVL0:
  17:D:\Psoc\TFT240_320_4200\TFT240x320.cydsn\TFT.c **** 	if (a < b)  { return b; }
  34              		.loc 1 17 0
  35 0000 8842     		cmp	r0, r1
  36 0002 03D3     		bcc	.L3
  18:D:\Psoc\TFT240_320_4200\TFT240x320.cydsn\TFT.c **** 	if (c < a)	{ return c;	}
  37              		.loc 1 18 0
  38 0004 9042     		cmp	r0, r2
  39 0006 02D9     		bls	.L2
ARM GAS  C:\Users\Kayas\AppData\Local\Temp\ccpxl0Kp.s 			page 2


  40 0008 1000     		movs	r0, r2
  41              	.LVL1:
  42 000a 00E0     		b	.L2
  43              	.LVL2:
  44              	.L3:
  17:D:\Psoc\TFT240_320_4200\TFT240x320.cydsn\TFT.c **** 	if (a < b)  { return b; }
  45              		.loc 1 17 0
  46 000c 0800     		movs	r0, r1
  47              	.LVL3:
  48              	.L2:
  19:D:\Psoc\TFT240_320_4200\TFT240x320.cydsn\TFT.c **** 	else return a;
  20:D:\Psoc\TFT240_320_4200\TFT240x320.cydsn\TFT.c **** }
  49              		.loc 1 20 0
  50              		@ sp needed
  51 000e 7047     		bx	lr
  52              		.cfi_endproc
  53              	.LFE59:
  54              		.size	constrain, .-constrain
  55              		.section	.text.TFT_SendCMD,"ax",%progbits
  56              		.align	2
  57              		.global	TFT_SendCMD
  58              		.code	16
  59              		.thumb_func
  60              		.type	TFT_SendCMD, %function
  61              	TFT_SendCMD:
  62              	.LFB60:
  21:D:\Psoc\TFT240_320_4200\TFT240x320.cydsn\TFT.c **** //*************************************************************************************
  22:D:\Psoc\TFT240_320_4200\TFT240x320.cydsn\TFT.c **** void TFT_SendCMD(uint8_t cmd)
  23:D:\Psoc\TFT240_320_4200\TFT240x320.cydsn\TFT.c **** { D_C_Write(0);   SPIM_WriteTxData(cmd); CyDelayUs(1);}
  63              		.loc 1 23 0
  64              		.cfi_startproc
  65              		@ args = 0, pretend = 0, frame = 0
  66              		@ frame_needed = 0, uses_anonymous_args = 0
  67              	.LVL4:
  68 0000 10B5     		push	{r4, lr}
  69              		.cfi_def_cfa_offset 8
  70              		.cfi_offset 4, -8
  71              		.cfi_offset 14, -4
  72 0002 0400     		movs	r4, r0
  73              		.loc 1 23 0
  74 0004 0020     		movs	r0, #0
  75              	.LVL5:
  76 0006 FFF7FEFF 		bl	D_C_Write
  77              	.LVL6:
  78 000a 2000     		movs	r0, r4
  79 000c FFF7FEFF 		bl	SPIM_WriteTxData
  80              	.LVL7:
  81 0010 0120     		movs	r0, #1
  82 0012 FFF7FEFF 		bl	CyDelayUs
  83              	.LVL8:
  84              		@ sp needed
  85 0016 10BD     		pop	{r4, pc}
  86              		.cfi_endproc
  87              	.LFE60:
  88              		.size	TFT_SendCMD, .-TFT_SendCMD
  89              		.section	.text.TFT_WriteData,"ax",%progbits
  90              		.align	2
ARM GAS  C:\Users\Kayas\AppData\Local\Temp\ccpxl0Kp.s 			page 3


  91              		.global	TFT_WriteData
  92              		.code	16
  93              		.thumb_func
  94              		.type	TFT_WriteData, %function
  95              	TFT_WriteData:
  96              	.LFB61:
  24:D:\Psoc\TFT240_320_4200\TFT240x320.cydsn\TFT.c **** //*************************************************************************************
  25:D:\Psoc\TFT240_320_4200\TFT240x320.cydsn\TFT.c **** void TFT_WriteData(uint8_t Data)
  26:D:\Psoc\TFT240_320_4200\TFT240x320.cydsn\TFT.c **** { D_C_Write(1); SPIM_WriteTxData(Data);CyDelayUs(1);}
  97              		.loc 1 26 0
  98              		.cfi_startproc
  99              		@ args = 0, pretend = 0, frame = 0
 100              		@ frame_needed = 0, uses_anonymous_args = 0
 101              	.LVL9:
 102 0000 10B5     		push	{r4, lr}
 103              		.cfi_def_cfa_offset 8
 104              		.cfi_offset 4, -8
 105              		.cfi_offset 14, -4
 106 0002 0400     		movs	r4, r0
 107              		.loc 1 26 0
 108 0004 0120     		movs	r0, #1
 109              	.LVL10:
 110 0006 FFF7FEFF 		bl	D_C_Write
 111              	.LVL11:
 112 000a 2000     		movs	r0, r4
 113 000c FFF7FEFF 		bl	SPIM_WriteTxData
 114              	.LVL12:
 115 0010 0120     		movs	r0, #1
 116 0012 FFF7FEFF 		bl	CyDelayUs
 117              	.LVL13:
 118              		@ sp needed
 119 0016 10BD     		pop	{r4, pc}
 120              		.cfi_endproc
 121              	.LFE61:
 122              		.size	TFT_WriteData, .-TFT_WriteData
 123              		.section	.text.TFT_SendData,"ax",%progbits
 124              		.align	2
 125              		.global	TFT_SendData
 126              		.code	16
 127              		.thumb_func
 128              		.type	TFT_SendData, %function
 129              	TFT_SendData:
 130              	.LFB62:
  27:D:\Psoc\TFT240_320_4200\TFT240x320.cydsn\TFT.c **** //*************************************************************************************
  28:D:\Psoc\TFT240_320_4200\TFT240x320.cydsn\TFT.c **** void TFT_SendData(uint16_t Data)
  29:D:\Psoc\TFT240_320_4200\TFT240x320.cydsn\TFT.c **** {
 131              		.loc 1 29 0
 132              		.cfi_startproc
 133              		@ args = 0, pretend = 0, frame = 0
 134              		@ frame_needed = 0, uses_anonymous_args = 0
 135              	.LVL14:
 136 0000 10B5     		push	{r4, lr}
 137              		.cfi_def_cfa_offset 8
 138              		.cfi_offset 4, -8
 139              		.cfi_offset 14, -4
 140 0002 0300     		movs	r3, r0
  30:D:\Psoc\TFT240_320_4200\TFT240x320.cydsn\TFT.c **** 	uint8_t data1 = Data>>8;
ARM GAS  C:\Users\Kayas\AppData\Local\Temp\ccpxl0Kp.s 			page 4


 141              		.loc 1 30 0
 142 0004 000A     		lsrs	r0, r0, #8
 143              	.LVL15:
  31:D:\Psoc\TFT240_320_4200\TFT240x320.cydsn\TFT.c **** 	uint8_t data2 = Data&0xff;
 144              		.loc 1 31 0
 145 0006 DCB2     		uxtb	r4, r3
 146              	.LVL16:
  32:D:\Psoc\TFT240_320_4200\TFT240x320.cydsn\TFT.c **** 	TFT_WriteData(data1);
 147              		.loc 1 32 0
 148 0008 FFF7FEFF 		bl	TFT_WriteData
 149              	.LVL17:
  33:D:\Psoc\TFT240_320_4200\TFT240x320.cydsn\TFT.c **** 	TFT_WriteData(data2);
 150              		.loc 1 33 0
 151 000c 2000     		movs	r0, r4
 152 000e FFF7FEFF 		bl	TFT_WriteData
 153              	.LVL18:
  34:D:\Psoc\TFT240_320_4200\TFT240x320.cydsn\TFT.c **** }
 154              		.loc 1 34 0
 155              		@ sp needed
 156              	.LVL19:
 157 0012 10BD     		pop	{r4, pc}
 158              		.cfi_endproc
 159              	.LFE62:
 160              		.size	TFT_SendData, .-TFT_SendData
 161              		.section	.text.TFT_SetCol,"ax",%progbits
 162              		.align	2
 163              		.global	TFT_SetCol
 164              		.code	16
 165              		.thumb_func
 166              		.type	TFT_SetCol, %function
 167              	TFT_SetCol:
 168              	.LFB64:
  35:D:\Psoc\TFT240_320_4200\TFT240x320.cydsn\TFT.c **** //*************************************************************************************
  36:D:\Psoc\TFT240_320_4200\TFT240x320.cydsn\TFT.c **** void TFT_Init(uint8_t orient)
  37:D:\Psoc\TFT240_320_4200\TFT240x320.cydsn\TFT.c **** {
  38:D:\Psoc\TFT240_320_4200\TFT240x320.cydsn\TFT.c ****     rst_Write(0);
  39:D:\Psoc\TFT240_320_4200\TFT240x320.cydsn\TFT.c ****     CyDelay(10);
  40:D:\Psoc\TFT240_320_4200\TFT240x320.cydsn\TFT.c ****     rst_Write(1);
  41:D:\Psoc\TFT240_320_4200\TFT240x320.cydsn\TFT.c **** TFT_SendCMD  (0x01);
  42:D:\Psoc\TFT240_320_4200\TFT240x320.cydsn\TFT.c **** CyDelay(100);
  43:D:\Psoc\TFT240_320_4200\TFT240x320.cydsn\TFT.c **** //************* Start Initial Sequence **********//
  44:D:\Psoc\TFT240_320_4200\TFT240x320.cydsn\TFT.c **** //Power control A
  45:D:\Psoc\TFT240_320_4200\TFT240x320.cydsn\TFT.c **** TFT_SendCMD  (0xCB);
  46:D:\Psoc\TFT240_320_4200\TFT240x320.cydsn\TFT.c **** TFT_WriteData(0x39);
  47:D:\Psoc\TFT240_320_4200\TFT240x320.cydsn\TFT.c **** TFT_WriteData(0x2C);
  48:D:\Psoc\TFT240_320_4200\TFT240x320.cydsn\TFT.c **** TFT_WriteData(0x00);
  49:D:\Psoc\TFT240_320_4200\TFT240x320.cydsn\TFT.c **** TFT_WriteData(-0x34);
  50:D:\Psoc\TFT240_320_4200\TFT240x320.cydsn\TFT.c **** TFT_WriteData(0x02);
  51:D:\Psoc\TFT240_320_4200\TFT240x320.cydsn\TFT.c **** 
  52:D:\Psoc\TFT240_320_4200\TFT240x320.cydsn\TFT.c **** //Power control A
  53:D:\Psoc\TFT240_320_4200\TFT240x320.cydsn\TFT.c **** TFT_SendCMD  (0xCF);
  54:D:\Psoc\TFT240_320_4200\TFT240x320.cydsn\TFT.c **** TFT_WriteData(0x00);
  55:D:\Psoc\TFT240_320_4200\TFT240x320.cydsn\TFT.c **** TFT_WriteData(0XC1);
  56:D:\Psoc\TFT240_320_4200\TFT240x320.cydsn\TFT.c **** TFT_WriteData(0X30);
  57:D:\Psoc\TFT240_320_4200\TFT240x320.cydsn\TFT.c **** 
  58:D:\Psoc\TFT240_320_4200\TFT240x320.cydsn\TFT.c **** //Driver timing control A
  59:D:\Psoc\TFT240_320_4200\TFT240x320.cydsn\TFT.c **** TFT_SendCMD  (0xE8);
ARM GAS  C:\Users\Kayas\AppData\Local\Temp\ccpxl0Kp.s 			page 5


  60:D:\Psoc\TFT240_320_4200\TFT240x320.cydsn\TFT.c **** TFT_WriteData(0x85);
  61:D:\Psoc\TFT240_320_4200\TFT240x320.cydsn\TFT.c **** TFT_WriteData(0x00);
  62:D:\Psoc\TFT240_320_4200\TFT240x320.cydsn\TFT.c **** TFT_WriteData(0x78);
  63:D:\Psoc\TFT240_320_4200\TFT240x320.cydsn\TFT.c **** 
  64:D:\Psoc\TFT240_320_4200\TFT240x320.cydsn\TFT.c **** //Driver timing control B
  65:D:\Psoc\TFT240_320_4200\TFT240x320.cydsn\TFT.c **** TFT_SendCMD  (0xEA);
  66:D:\Psoc\TFT240_320_4200\TFT240x320.cydsn\TFT.c **** TFT_WriteData(0x00);
  67:D:\Psoc\TFT240_320_4200\TFT240x320.cydsn\TFT.c **** TFT_WriteData(0x00);
  68:D:\Psoc\TFT240_320_4200\TFT240x320.cydsn\TFT.c **** 
  69:D:\Psoc\TFT240_320_4200\TFT240x320.cydsn\TFT.c **** //Power on sequence control
  70:D:\Psoc\TFT240_320_4200\TFT240x320.cydsn\TFT.c **** TFT_SendCMD(0xED);
  71:D:\Psoc\TFT240_320_4200\TFT240x320.cydsn\TFT.c **** TFT_WriteData(0x64);
  72:D:\Psoc\TFT240_320_4200\TFT240x320.cydsn\TFT.c **** TFT_WriteData(0x03);
  73:D:\Psoc\TFT240_320_4200\TFT240x320.cydsn\TFT.c **** TFT_WriteData(0X12);
  74:D:\Psoc\TFT240_320_4200\TFT240x320.cydsn\TFT.c **** TFT_WriteData(0X81);
  75:D:\Psoc\TFT240_320_4200\TFT240x320.cydsn\TFT.c **** 
  76:D:\Psoc\TFT240_320_4200\TFT240x320.cydsn\TFT.c **** //Pump ratio control
  77:D:\Psoc\TFT240_320_4200\TFT240x320.cydsn\TFT.c **** TFT_SendCMD (0xF7);
  78:D:\Psoc\TFT240_320_4200\TFT240x320.cydsn\TFT.c **** TFT_WriteData(0x20);
  79:D:\Psoc\TFT240_320_4200\TFT240x320.cydsn\TFT.c **** 
  80:D:\Psoc\TFT240_320_4200\TFT240x320.cydsn\TFT.c **** //Power Control 1
  81:D:\Psoc\TFT240_320_4200\TFT240x320.cydsn\TFT.c **** TFT_SendCMD  (0xC0);
  82:D:\Psoc\TFT240_320_4200\TFT240x320.cydsn\TFT.c **** TFT_WriteData(0x23);
  83:D:\Psoc\TFT240_320_4200\TFT240x320.cydsn\TFT.c **** 
  84:D:\Psoc\TFT240_320_4200\TFT240x320.cydsn\TFT.c **** //Power Control 2
  85:D:\Psoc\TFT240_320_4200\TFT240x320.cydsn\TFT.c **** TFT_SendCMD  (0xC1);
  86:D:\Psoc\TFT240_320_4200\TFT240x320.cydsn\TFT.c **** TFT_WriteData(0x10);
  87:D:\Psoc\TFT240_320_4200\TFT240x320.cydsn\TFT.c **** 
  88:D:\Psoc\TFT240_320_4200\TFT240x320.cydsn\TFT.c **** //VCOM Control 1
  89:D:\Psoc\TFT240_320_4200\TFT240x320.cydsn\TFT.c **** TFT_SendCMD(0xC5);
  90:D:\Psoc\TFT240_320_4200\TFT240x320.cydsn\TFT.c **** TFT_WriteData(0x2B);
  91:D:\Psoc\TFT240_320_4200\TFT240x320.cydsn\TFT.c **** TFT_WriteData(0x2B);
  92:D:\Psoc\TFT240_320_4200\TFT240x320.cydsn\TFT.c **** 
  93:D:\Psoc\TFT240_320_4200\TFT240x320.cydsn\TFT.c **** //Memory Access Control
  94:D:\Psoc\TFT240_320_4200\TFT240x320.cydsn\TFT.c **** TFT_SetOrientation(orient);
  95:D:\Psoc\TFT240_320_4200\TFT240x320.cydsn\TFT.c **** 
  96:D:\Psoc\TFT240_320_4200\TFT240x320.cydsn\TFT.c **** //Frame Rate Control (In Normal Mode/Full Colors)
  97:D:\Psoc\TFT240_320_4200\TFT240x320.cydsn\TFT.c **** TFT_SendCMD(0xB1);
  98:D:\Psoc\TFT240_320_4200\TFT240x320.cydsn\TFT.c **** TFT_WriteData(0x00);
  99:D:\Psoc\TFT240_320_4200\TFT240x320.cydsn\TFT.c **** TFT_WriteData(0x1B);	// 10
 100:D:\Psoc\TFT240_320_4200\TFT240x320.cydsn\TFT.c **** 
 101:D:\Psoc\TFT240_320_4200\TFT240x320.cydsn\TFT.c **** //Display Function Control
 102:D:\Psoc\TFT240_320_4200\TFT240x320.cydsn\TFT.c **** TFT_SendCMD(0xB6);
 103:D:\Psoc\TFT240_320_4200\TFT240x320.cydsn\TFT.c **** TFT_WriteData(0x0A);
 104:D:\Psoc\TFT240_320_4200\TFT240x320.cydsn\TFT.c **** TFT_WriteData(0x02);	// A2
 105:D:\Psoc\TFT240_320_4200\TFT240x320.cydsn\TFT.c **** 
 106:D:\Psoc\TFT240_320_4200\TFT240x320.cydsn\TFT.c **** //Enable 3G
 107:D:\Psoc\TFT240_320_4200\TFT240x320.cydsn\TFT.c **** TFT_SendCMD(0xF2);
 108:D:\Psoc\TFT240_320_4200\TFT240x320.cydsn\TFT.c **** TFT_WriteData(0x02);  //off
 109:D:\Psoc\TFT240_320_4200\TFT240x320.cydsn\TFT.c **** 
 110:D:\Psoc\TFT240_320_4200\TFT240x320.cydsn\TFT.c **** 
 111:D:\Psoc\TFT240_320_4200\TFT240x320.cydsn\TFT.c **** //COLMOD: Pixel Format Set
 112:D:\Psoc\TFT240_320_4200\TFT240x320.cydsn\TFT.c **** TFT_SendCMD(0x3a);
 113:D:\Psoc\TFT240_320_4200\TFT240x320.cydsn\TFT.c **** TFT_WriteData(0x05);
 114:D:\Psoc\TFT240_320_4200\TFT240x320.cydsn\TFT.c **** 
 115:D:\Psoc\TFT240_320_4200\TFT240x320.cydsn\TFT.c **** //Gamma Set
 116:D:\Psoc\TFT240_320_4200\TFT240x320.cydsn\TFT.c **** TFT_SendCMD(0x26);   //Gamma curve 3
ARM GAS  C:\Users\Kayas\AppData\Local\Temp\ccpxl0Kp.s 			page 6


 117:D:\Psoc\TFT240_320_4200\TFT240x320.cydsn\TFT.c **** TFT_WriteData(0x01);
 118:D:\Psoc\TFT240_320_4200\TFT240x320.cydsn\TFT.c **** 
 119:D:\Psoc\TFT240_320_4200\TFT240x320.cydsn\TFT.c **** //Positive Gamma Correction
 120:D:\Psoc\TFT240_320_4200\TFT240x320.cydsn\TFT.c **** TFT_SendCMD(0xE0);
 121:D:\Psoc\TFT240_320_4200\TFT240x320.cydsn\TFT.c **** TFT_WriteData(0x0F);
 122:D:\Psoc\TFT240_320_4200\TFT240x320.cydsn\TFT.c **** TFT_WriteData(0x31);
 123:D:\Psoc\TFT240_320_4200\TFT240x320.cydsn\TFT.c **** TFT_WriteData(0x2B);
 124:D:\Psoc\TFT240_320_4200\TFT240x320.cydsn\TFT.c **** TFT_WriteData(0x0C);
 125:D:\Psoc\TFT240_320_4200\TFT240x320.cydsn\TFT.c **** TFT_WriteData(0x0E);
 126:D:\Psoc\TFT240_320_4200\TFT240x320.cydsn\TFT.c **** TFT_WriteData(0x08);
 127:D:\Psoc\TFT240_320_4200\TFT240x320.cydsn\TFT.c **** TFT_WriteData(0x4E);
 128:D:\Psoc\TFT240_320_4200\TFT240x320.cydsn\TFT.c **** TFT_WriteData(0xF1);
 129:D:\Psoc\TFT240_320_4200\TFT240x320.cydsn\TFT.c **** TFT_WriteData(0x37);
 130:D:\Psoc\TFT240_320_4200\TFT240x320.cydsn\TFT.c **** TFT_WriteData(0x07);
 131:D:\Psoc\TFT240_320_4200\TFT240x320.cydsn\TFT.c **** TFT_WriteData(0x10);
 132:D:\Psoc\TFT240_320_4200\TFT240x320.cydsn\TFT.c **** TFT_WriteData(0x03);
 133:D:\Psoc\TFT240_320_4200\TFT240x320.cydsn\TFT.c **** TFT_WriteData(0x0E);
 134:D:\Psoc\TFT240_320_4200\TFT240x320.cydsn\TFT.c **** TFT_WriteData(0x09);
 135:D:\Psoc\TFT240_320_4200\TFT240x320.cydsn\TFT.c **** TFT_WriteData(0x00);
 136:D:\Psoc\TFT240_320_4200\TFT240x320.cydsn\TFT.c **** 
 137:D:\Psoc\TFT240_320_4200\TFT240x320.cydsn\TFT.c **** //Negative Gamma Correction
 138:D:\Psoc\TFT240_320_4200\TFT240x320.cydsn\TFT.c **** TFT_SendCMD(0XE1);
 139:D:\Psoc\TFT240_320_4200\TFT240x320.cydsn\TFT.c **** TFT_WriteData(0x00);
 140:D:\Psoc\TFT240_320_4200\TFT240x320.cydsn\TFT.c **** TFT_WriteData(0x0E);
 141:D:\Psoc\TFT240_320_4200\TFT240x320.cydsn\TFT.c **** TFT_WriteData(0x14);
 142:D:\Psoc\TFT240_320_4200\TFT240x320.cydsn\TFT.c **** TFT_WriteData(0x03);
 143:D:\Psoc\TFT240_320_4200\TFT240x320.cydsn\TFT.c **** TFT_WriteData(0x11);
 144:D:\Psoc\TFT240_320_4200\TFT240x320.cydsn\TFT.c **** TFT_WriteData(0x07);
 145:D:\Psoc\TFT240_320_4200\TFT240x320.cydsn\TFT.c **** TFT_WriteData(0x31);
 146:D:\Psoc\TFT240_320_4200\TFT240x320.cydsn\TFT.c **** TFT_WriteData(0xC1);
 147:D:\Psoc\TFT240_320_4200\TFT240x320.cydsn\TFT.c **** TFT_WriteData(0x48);
 148:D:\Psoc\TFT240_320_4200\TFT240x320.cydsn\TFT.c **** TFT_WriteData(0x08);
 149:D:\Psoc\TFT240_320_4200\TFT240x320.cydsn\TFT.c **** TFT_WriteData(0x0F);
 150:D:\Psoc\TFT240_320_4200\TFT240x320.cydsn\TFT.c **** TFT_WriteData(0x0C);
 151:D:\Psoc\TFT240_320_4200\TFT240x320.cydsn\TFT.c **** TFT_WriteData(0x31);
 152:D:\Psoc\TFT240_320_4200\TFT240x320.cydsn\TFT.c **** TFT_WriteData(0x36);
 153:D:\Psoc\TFT240_320_4200\TFT240x320.cydsn\TFT.c **** TFT_WriteData(0x0F);
 154:D:\Psoc\TFT240_320_4200\TFT240x320.cydsn\TFT.c **** // Sleep Out
 155:D:\Psoc\TFT240_320_4200\TFT240x320.cydsn\TFT.c **** TFT_SendCMD(0x11);
 156:D:\Psoc\TFT240_320_4200\TFT240x320.cydsn\TFT.c **** CyDelay(120);
 157:D:\Psoc\TFT240_320_4200\TFT240x320.cydsn\TFT.c **** //Display On
 158:D:\Psoc\TFT240_320_4200\TFT240x320.cydsn\TFT.c **** TFT_SendCMD(0x29);
 159:D:\Psoc\TFT240_320_4200\TFT240x320.cydsn\TFT.c **** }
 160:D:\Psoc\TFT240_320_4200\TFT240x320.cydsn\TFT.c **** //*************************************************************************************
 161:D:\Psoc\TFT240_320_4200\TFT240x320.cydsn\TFT.c **** void TFT_SetCol(uint16_t StartCol,uint16_t EndCol)
 162:D:\Psoc\TFT240_320_4200\TFT240x320.cydsn\TFT.c **** {
 169              		.loc 1 162 0
 170              		.cfi_startproc
 171              		@ args = 0, pretend = 0, frame = 0
 172              		@ frame_needed = 0, uses_anonymous_args = 0
 173              	.LVL20:
 174 0000 70B5     		push	{r4, r5, r6, lr}
 175              		.cfi_def_cfa_offset 16
 176              		.cfi_offset 4, -16
 177              		.cfi_offset 5, -12
 178              		.cfi_offset 6, -8
 179              		.cfi_offset 14, -4
ARM GAS  C:\Users\Kayas\AppData\Local\Temp\ccpxl0Kp.s 			page 7


 180 0002 0500     		movs	r5, r0
 181 0004 0C00     		movs	r4, r1
 163:D:\Psoc\TFT240_320_4200\TFT240x320.cydsn\TFT.c **** 	TFT_SendCMD(0x2A);                                                      /* Column Command address 
 182              		.loc 1 163 0
 183 0006 2A20     		movs	r0, #42
 184              	.LVL21:
 185 0008 FFF7FEFF 		bl	TFT_SendCMD
 186              	.LVL22:
 164:D:\Psoc\TFT240_320_4200\TFT240x320.cydsn\TFT.c **** 	TFT_SendData(StartCol);
 187              		.loc 1 164 0
 188 000c 2800     		movs	r0, r5
 189 000e FFF7FEFF 		bl	TFT_SendData
 190              	.LVL23:
 165:D:\Psoc\TFT240_320_4200\TFT240x320.cydsn\TFT.c **** 	TFT_SendData(EndCol);
 191              		.loc 1 165 0
 192 0012 2000     		movs	r0, r4
 193 0014 FFF7FEFF 		bl	TFT_SendData
 194              	.LVL24:
 166:D:\Psoc\TFT240_320_4200\TFT240x320.cydsn\TFT.c **** }
 195              		.loc 1 166 0
 196              		@ sp needed
 197 0018 70BD     		pop	{r4, r5, r6, pc}
 198              		.cfi_endproc
 199              	.LFE64:
 200              		.size	TFT_SetCol, .-TFT_SetCol
 201 001a C046     		.section	.text.TFT_SetPage,"ax",%progbits
 202              		.align	2
 203              		.global	TFT_SetPage
 204              		.code	16
 205              		.thumb_func
 206              		.type	TFT_SetPage, %function
 207              	TFT_SetPage:
 208              	.LFB65:
 167:D:\Psoc\TFT240_320_4200\TFT240x320.cydsn\TFT.c **** //*************************************************************************************
 168:D:\Psoc\TFT240_320_4200\TFT240x320.cydsn\TFT.c **** void TFT_SetPage(uint16_t StartPage,uint16_t EndPage)
 169:D:\Psoc\TFT240_320_4200\TFT240x320.cydsn\TFT.c **** {
 209              		.loc 1 169 0
 210              		.cfi_startproc
 211              		@ args = 0, pretend = 0, frame = 0
 212              		@ frame_needed = 0, uses_anonymous_args = 0
 213              	.LVL25:
 214 0000 70B5     		push	{r4, r5, r6, lr}
 215              		.cfi_def_cfa_offset 16
 216              		.cfi_offset 4, -16
 217              		.cfi_offset 5, -12
 218              		.cfi_offset 6, -8
 219              		.cfi_offset 14, -4
 220 0002 0500     		movs	r5, r0
 221 0004 0C00     		movs	r4, r1
 170:D:\Psoc\TFT240_320_4200\TFT240x320.cydsn\TFT.c **** 	TFT_SendCMD(0x2B);                                                      /* Column Command address 
 222              		.loc 1 170 0
 223 0006 2B20     		movs	r0, #43
 224              	.LVL26:
 225 0008 FFF7FEFF 		bl	TFT_SendCMD
 226              	.LVL27:
 171:D:\Psoc\TFT240_320_4200\TFT240x320.cydsn\TFT.c **** 	TFT_SendData(StartPage);
 227              		.loc 1 171 0
ARM GAS  C:\Users\Kayas\AppData\Local\Temp\ccpxl0Kp.s 			page 8


 228 000c 2800     		movs	r0, r5
 229 000e FFF7FEFF 		bl	TFT_SendData
 230              	.LVL28:
 172:D:\Psoc\TFT240_320_4200\TFT240x320.cydsn\TFT.c **** 	TFT_SendData(EndPage);
 231              		.loc 1 172 0
 232 0012 2000     		movs	r0, r4
 233 0014 FFF7FEFF 		bl	TFT_SendData
 234              	.LVL29:
 173:D:\Psoc\TFT240_320_4200\TFT240x320.cydsn\TFT.c **** }
 235              		.loc 1 173 0
 236              		@ sp needed
 237 0018 70BD     		pop	{r4, r5, r6, pc}
 238              		.cfi_endproc
 239              	.LFE65:
 240              		.size	TFT_SetPage, .-TFT_SetPage
 241 001a C046     		.section	.text.TFT_ClearScreen,"ax",%progbits
 242              		.align	2
 243              		.global	TFT_ClearScreen
 244              		.code	16
 245              		.thumb_func
 246              		.type	TFT_ClearScreen, %function
 247              	TFT_ClearScreen:
 248              	.LFB66:
 174:D:\Psoc\TFT240_320_4200\TFT240x320.cydsn\TFT.c **** //*************************************************************************************
 175:D:\Psoc\TFT240_320_4200\TFT240x320.cydsn\TFT.c **** void TFT_ClearScreen(void)
 176:D:\Psoc\TFT240_320_4200\TFT240x320.cydsn\TFT.c **** {
 249              		.loc 1 176 0
 250              		.cfi_startproc
 251              		@ args = 0, pretend = 0, frame = 0
 252              		@ frame_needed = 0, uses_anonymous_args = 0
 253 0000 10B5     		push	{r4, lr}
 254              		.cfi_def_cfa_offset 8
 255              		.cfi_offset 4, -8
 256              		.cfi_offset 14, -4
 257              	.LVL30:
 177:D:\Psoc\TFT240_320_4200\TFT240x320.cydsn\TFT.c **** 	uint16_t i=0;
 178:D:\Psoc\TFT240_320_4200\TFT240x320.cydsn\TFT.c **** 	TFT_SetCol(0, MAX_X);
 258              		.loc 1 178 0
 259 0002 104C     		ldr	r4, .L13
 260 0004 2188     		ldrh	r1, [r4]
 261 0006 0020     		movs	r0, #0
 262 0008 FFF7FEFF 		bl	TFT_SetCol
 263              	.LVL31:
 179:D:\Psoc\TFT240_320_4200\TFT240x320.cydsn\TFT.c **** 	TFT_SetPage(0, MAX_Y);
 264              		.loc 1 179 0
 265 000c 6188     		ldrh	r1, [r4, #2]
 266 000e 0020     		movs	r0, #0
 267 0010 FFF7FEFF 		bl	TFT_SetPage
 268              	.LVL32:
 180:D:\Psoc\TFT240_320_4200\TFT240x320.cydsn\TFT.c **** 	TFT_SendCMD(0x2c);                                                  /* start to write to display r
 269              		.loc 1 180 0
 270 0014 2C20     		movs	r0, #44
 271 0016 FFF7FEFF 		bl	TFT_SendCMD
 272              	.LVL33:
 181:D:\Psoc\TFT240_320_4200\TFT240x320.cydsn\TFT.c **** 	/* m                           */
 182:D:\Psoc\TFT240_320_4200\TFT240x320.cydsn\TFT.c ****     
 183:D:\Psoc\TFT240_320_4200\TFT240x320.cydsn\TFT.c **** 	for(i=0; i<20480; i++)
ARM GAS  C:\Users\Kayas\AppData\Local\Temp\ccpxl0Kp.s 			page 9


 273              		.loc 1 183 0
 274 001a 0024     		movs	r4, #0
 275 001c 0DE0     		b	.L11
 276              	.LVL34:
 277              	.L12:
 184:D:\Psoc\TFT240_320_4200\TFT240x320.cydsn\TFT.c **** 	{
 185:D:\Psoc\TFT240_320_4200\TFT240x320.cydsn\TFT.c **** 		TFT_WriteData(~0);
 278              		.loc 1 185 0 discriminator 3
 279 001e FF20     		movs	r0, #255
 280 0020 FFF7FEFF 		bl	TFT_WriteData
 281              	.LVL35:
 186:D:\Psoc\TFT240_320_4200\TFT240x320.cydsn\TFT.c **** 		TFT_WriteData(~0);
 282              		.loc 1 186 0 discriminator 3
 283 0024 FF20     		movs	r0, #255
 284 0026 FFF7FEFF 		bl	TFT_WriteData
 285              	.LVL36:
 187:D:\Psoc\TFT240_320_4200\TFT240x320.cydsn\TFT.c **** 		TFT_WriteData(~0);
 286              		.loc 1 187 0 discriminator 3
 287 002a FF20     		movs	r0, #255
 288 002c FFF7FEFF 		bl	TFT_WriteData
 289              	.LVL37:
 188:D:\Psoc\TFT240_320_4200\TFT240x320.cydsn\TFT.c **** 		TFT_WriteData(~0);
 290              		.loc 1 188 0 discriminator 3
 291 0030 FF20     		movs	r0, #255
 292 0032 FFF7FEFF 		bl	TFT_WriteData
 293              	.LVL38:
 183:D:\Psoc\TFT240_320_4200\TFT240x320.cydsn\TFT.c **** 	{
 294              		.loc 1 183 0 discriminator 3
 295 0036 0134     		adds	r4, r4, #1
 296              	.LVL39:
 297 0038 A4B2     		uxth	r4, r4
 298              	.LVL40:
 299              	.L11:
 183:D:\Psoc\TFT240_320_4200\TFT240x320.cydsn\TFT.c **** 	{
 300              		.loc 1 183 0 is_stmt 0 discriminator 1
 301 003a 034B     		ldr	r3, .L13+4
 302 003c 9C42     		cmp	r4, r3
 303 003e EED9     		bls	.L12
 189:D:\Psoc\TFT240_320_4200\TFT240x320.cydsn\TFT.c **** 	}
 190:D:\Psoc\TFT240_320_4200\TFT240x320.cydsn\TFT.c ****     
 191:D:\Psoc\TFT240_320_4200\TFT240x320.cydsn\TFT.c **** }
 304              		.loc 1 191 0 is_stmt 1
 305              		@ sp needed
 306              	.LVL41:
 307 0040 10BD     		pop	{r4, pc}
 308              	.L14:
 309 0042 C046     		.align	2
 310              	.L13:
 311 0044 00000000 		.word	.LANCHOR0
 312 0048 FF4F0000 		.word	20479
 313              		.cfi_endproc
 314              	.LFE66:
 315              		.size	TFT_ClearScreen, .-TFT_ClearScreen
 316              		.section	.text.TFT_FillScreen,"ax",%progbits
 317              		.align	2
 318              		.global	TFT_FillScreen
 319              		.code	16
ARM GAS  C:\Users\Kayas\AppData\Local\Temp\ccpxl0Kp.s 			page 10


 320              		.thumb_func
 321              		.type	TFT_FillScreen, %function
 322              	TFT_FillScreen:
 323              	.LFB67:
 192:D:\Psoc\TFT240_320_4200\TFT240x320.cydsn\TFT.c **** //*************************************************************************************
 193:D:\Psoc\TFT240_320_4200\TFT240x320.cydsn\TFT.c **** void TFT_FillScreen(uint16_t XL, uint16_t XR, uint16_t YU, uint16_t YD, uint16_t color)
 194:D:\Psoc\TFT240_320_4200\TFT240x320.cydsn\TFT.c **** {
 324              		.loc 1 194 0
 325              		.cfi_startproc
 326              		@ args = 4, pretend = 0, frame = 8
 327              		@ frame_needed = 0, uses_anonymous_args = 0
 328              	.LVL42:
 329 0000 F0B5     		push	{r4, r5, r6, r7, lr}
 330              		.cfi_def_cfa_offset 20
 331              		.cfi_offset 4, -20
 332              		.cfi_offset 5, -16
 333              		.cfi_offset 6, -12
 334              		.cfi_offset 7, -8
 335              		.cfi_offset 14, -4
 336 0002 4F46     		mov	r7, r9
 337 0004 80B4     		push	{r7}
 338              		.cfi_def_cfa_offset 24
 339              		.cfi_offset 9, -24
 340 0006 82B0     		sub	sp, sp, #8
 341              		.cfi_def_cfa_offset 32
 342 0008 0F00     		movs	r7, r1
 343 000a 1400     		movs	r4, r2
 344 000c 1E00     		movs	r6, r3
 345 000e 08AB     		add	r3, sp, #32
 346              	.LVL43:
 347 0010 1D88     		ldrh	r5, [r3]
 348              	.LVL44:
 195:D:\Psoc\TFT240_320_4200\TFT240x320.cydsn\TFT.c **** 	unsigned long  XY=0;
 196:D:\Psoc\TFT240_320_4200\TFT240x320.cydsn\TFT.c **** 	unsigned long i=0;
 197:D:\Psoc\TFT240_320_4200\TFT240x320.cydsn\TFT.c **** 	color = ~color;
 349              		.loc 1 197 0
 350 0012 ED43     		mvns	r5, r5
 351 0014 ABB2     		uxth	r3, r5
 352              	.LVL45:
 353 0016 9946     		mov	r9, r3
 354              	.LVL46:
 198:D:\Psoc\TFT240_320_4200\TFT240x320.cydsn\TFT.c **** 	if(XL > XR)
 355              		.loc 1 198 0
 356 0018 8842     		cmp	r0, r1
 357 001a 02D9     		bls	.L16
 199:D:\Psoc\TFT240_320_4200\TFT240x320.cydsn\TFT.c **** 	{
 200:D:\Psoc\TFT240_320_4200\TFT240x320.cydsn\TFT.c **** 		XL = XL^XR;
 358              		.loc 1 200 0
 359 001c 4840     		eors	r0, r1
 360              	.LVL47:
 201:D:\Psoc\TFT240_320_4200\TFT240x320.cydsn\TFT.c **** 		XR = XL^XR;
 361              		.loc 1 201 0
 362 001e 4740     		eors	r7, r0
 363              	.LVL48:
 202:D:\Psoc\TFT240_320_4200\TFT240x320.cydsn\TFT.c **** 		XL = XL^XR;
 364              		.loc 1 202 0
 365 0020 7840     		eors	r0, r7
ARM GAS  C:\Users\Kayas\AppData\Local\Temp\ccpxl0Kp.s 			page 11


 366              	.LVL49:
 367              	.L16:
 203:D:\Psoc\TFT240_320_4200\TFT240x320.cydsn\TFT.c **** 	}
 204:D:\Psoc\TFT240_320_4200\TFT240x320.cydsn\TFT.c **** 	if(YU > YD)
 368              		.loc 1 204 0
 369 0022 B442     		cmp	r4, r6
 370 0024 03D9     		bls	.L17
 205:D:\Psoc\TFT240_320_4200\TFT240x320.cydsn\TFT.c **** 	{
 206:D:\Psoc\TFT240_320_4200\TFT240x320.cydsn\TFT.c **** 		YU = YU^YD;
 371              		.loc 1 206 0
 372 0026 7440     		eors	r4, r6
 373              	.LVL50:
 207:D:\Psoc\TFT240_320_4200\TFT240x320.cydsn\TFT.c **** 		YD = YU^YD;
 374              		.loc 1 207 0
 375 0028 6640     		eors	r6, r4
 376              	.LVL51:
 208:D:\Psoc\TFT240_320_4200\TFT240x320.cydsn\TFT.c **** 		YU = YU^YD;
 377              		.loc 1 208 0
 378 002a 7440     		eors	r4, r6
 379              	.LVL52:
 380 002c A4B2     		uxth	r4, r4
 381              	.LVL53:
 382              	.L17:
 209:D:\Psoc\TFT240_320_4200\TFT240x320.cydsn\TFT.c **** 	}
 210:D:\Psoc\TFT240_320_4200\TFT240x320.cydsn\TFT.c **** 	XL = constrain(XL, MIN_X,MAX_X);
 383              		.loc 1 210 0
 384 002e 204D     		ldr	r5, .L20
 385 0030 2B88     		ldrh	r3, [r5]
 386 0032 0093     		str	r3, [sp]
 387 0034 1A00     		movs	r2, r3
 388 0036 0021     		movs	r1, #0
 389 0038 FFF7FEFF 		bl	constrain
 390              	.LVL54:
 391 003c 0190     		str	r0, [sp, #4]
 392              	.LVL55:
 211:D:\Psoc\TFT240_320_4200\TFT240x320.cydsn\TFT.c **** 	XR = constrain(XR, MIN_X,MAX_X);
 393              		.loc 1 211 0
 394 003e 009A     		ldr	r2, [sp]
 395 0040 0021     		movs	r1, #0
 396 0042 3800     		movs	r0, r7
 397 0044 FFF7FEFF 		bl	constrain
 398              	.LVL56:
 399 0048 0700     		movs	r7, r0
 400              	.LVL57:
 212:D:\Psoc\TFT240_320_4200\TFT240x320.cydsn\TFT.c **** 	YU = constrain(YU, MIN_Y,MAX_Y);
 401              		.loc 1 212 0
 402 004a 6D88     		ldrh	r5, [r5, #2]
 403 004c 2A00     		movs	r2, r5
 404 004e 0021     		movs	r1, #0
 405 0050 2000     		movs	r0, r4
 406 0052 FFF7FEFF 		bl	constrain
 407              	.LVL58:
 408 0056 0400     		movs	r4, r0
 409              	.LVL59:
 213:D:\Psoc\TFT240_320_4200\TFT240x320.cydsn\TFT.c **** 	YD = constrain(YD, MIN_Y,MAX_Y);
 410              		.loc 1 213 0
 411 0058 2A00     		movs	r2, r5
ARM GAS  C:\Users\Kayas\AppData\Local\Temp\ccpxl0Kp.s 			page 12


 412 005a 0021     		movs	r1, #0
 413 005c 3000     		movs	r0, r6
 414 005e FFF7FEFF 		bl	constrain
 415              	.LVL60:
 416 0062 0500     		movs	r5, r0
 417              	.LVL61:
 214:D:\Psoc\TFT240_320_4200\TFT240x320.cydsn\TFT.c **** 
 215:D:\Psoc\TFT240_320_4200\TFT240x320.cydsn\TFT.c **** 	XY = (XR-XL+1);
 418              		.loc 1 215 0
 419 0064 3900     		movs	r1, r7
 420 0066 0198     		ldr	r0, [sp, #4]
 421 0068 3A1A     		subs	r2, r7, r0
 422 006a 0132     		adds	r2, r2, #1
 423              	.LVL62:
 216:D:\Psoc\TFT240_320_4200\TFT240x320.cydsn\TFT.c **** 	XY = XY*(YD-YU+1);
 424              		.loc 1 216 0
 425 006c 2B1B     		subs	r3, r5, r4
 426 006e 0133     		adds	r3, r3, #1
 427 0070 5343     		muls	r3, r2
 428 0072 1F00     		movs	r7, r3
 429              	.LVL63:
 217:D:\Psoc\TFT240_320_4200\TFT240x320.cydsn\TFT.c **** 
 218:D:\Psoc\TFT240_320_4200\TFT240x320.cydsn\TFT.c **** 	TFT_SetCol(XL,XR);
 430              		.loc 1 218 0
 431 0074 FFF7FEFF 		bl	TFT_SetCol
 432              	.LVL64:
 219:D:\Psoc\TFT240_320_4200\TFT240x320.cydsn\TFT.c **** 	TFT_SetPage(YU, YD);
 433              		.loc 1 219 0
 434 0078 2900     		movs	r1, r5
 435 007a 2000     		movs	r0, r4
 436 007c FFF7FEFF 		bl	TFT_SetPage
 437              	.LVL65:
 220:D:\Psoc\TFT240_320_4200\TFT240x320.cydsn\TFT.c **** 	TFT_SendCMD(0x2c);                                                  /* start to write to display r
 438              		.loc 1 220 0
 439 0080 2C20     		movs	r0, #44
 440 0082 FFF7FEFF 		bl	TFT_SendCMD
 441              	.LVL66:
 221:D:\Psoc\TFT240_320_4200\TFT240x320.cydsn\TFT.c **** 	/* m                            */
 222:D:\Psoc\TFT240_320_4200\TFT240x320.cydsn\TFT.c **** 
 223:D:\Psoc\TFT240_320_4200\TFT240x320.cydsn\TFT.c **** 	uint8_t Hcolor = color>>8;
 442              		.loc 1 223 0
 443 0086 4B46     		mov	r3, r9
 444 0088 1E0A     		lsrs	r6, r3, #8
 445              	.LVL67:
 224:D:\Psoc\TFT240_320_4200\TFT240x320.cydsn\TFT.c **** 	uint8_t Lcolor = color&0xff;
 446              		.loc 1 224 0
 447 008a 4B46     		mov	r3, r9
 448 008c 6A46     		mov	r2, sp
 449 008e 1370     		strb	r3, [r2]
 450 0090 1578     		ldrb	r5, [r2]
 451              	.LVL68:
 225:D:\Psoc\TFT240_320_4200\TFT240x320.cydsn\TFT.c ****  
 226:D:\Psoc\TFT240_320_4200\TFT240x320.cydsn\TFT.c **** 	for(i=0; i < XY; i++)
 452              		.loc 1 226 0
 453 0092 0024     		movs	r4, #0
 454              	.LVL69:
 455 0094 06E0     		b	.L18
ARM GAS  C:\Users\Kayas\AppData\Local\Temp\ccpxl0Kp.s 			page 13


 456              	.LVL70:
 457              	.L19:
 227:D:\Psoc\TFT240_320_4200\TFT240x320.cydsn\TFT.c **** 	{
 228:D:\Psoc\TFT240_320_4200\TFT240x320.cydsn\TFT.c ****         
 229:D:\Psoc\TFT240_320_4200\TFT240x320.cydsn\TFT.c **** 		TFT_WriteData(Hcolor);
 458              		.loc 1 229 0 discriminator 3
 459 0096 3000     		movs	r0, r6
 460 0098 FFF7FEFF 		bl	TFT_WriteData
 461              	.LVL71:
 230:D:\Psoc\TFT240_320_4200\TFT240x320.cydsn\TFT.c **** 		TFT_WriteData(Lcolor);
 462              		.loc 1 230 0 discriminator 3
 463 009c 2800     		movs	r0, r5
 464 009e FFF7FEFF 		bl	TFT_WriteData
 465              	.LVL72:
 226:D:\Psoc\TFT240_320_4200\TFT240x320.cydsn\TFT.c **** 	{
 466              		.loc 1 226 0 discriminator 3
 467 00a2 0134     		adds	r4, r4, #1
 468              	.LVL73:
 469              	.L18:
 226:D:\Psoc\TFT240_320_4200\TFT240x320.cydsn\TFT.c **** 	{
 470              		.loc 1 226 0 is_stmt 0 discriminator 1
 471 00a4 BC42     		cmp	r4, r7
 472 00a6 F6D3     		bcc	.L19
 231:D:\Psoc\TFT240_320_4200\TFT240x320.cydsn\TFT.c **** 	}
 232:D:\Psoc\TFT240_320_4200\TFT240x320.cydsn\TFT.c **** 
 233:D:\Psoc\TFT240_320_4200\TFT240x320.cydsn\TFT.c **** }
 473              		.loc 1 233 0 is_stmt 1
 474 00a8 02B0     		add	sp, sp, #8
 475              		@ sp needed
 476              	.LVL74:
 477              	.LVL75:
 478              	.LVL76:
 479              	.LVL77:
 480              	.LVL78:
 481 00aa 04BC     		pop	{r2}
 482 00ac 9146     		mov	r9, r2
 483 00ae F0BD     		pop	{r4, r5, r6, r7, pc}
 484              	.L21:
 485              		.align	2
 486              	.L20:
 487 00b0 00000000 		.word	.LANCHOR0
 488              		.cfi_endproc
 489              	.LFE67:
 490              		.size	TFT_FillScreen, .-TFT_FillScreen
 491              		.section	.text.TFT_ReSetXY,"ax",%progbits
 492              		.align	2
 493              		.global	TFT_ReSetXY
 494              		.code	16
 495              		.thumb_func
 496              		.type	TFT_ReSetXY, %function
 497              	TFT_ReSetXY:
 498              	.LFB68:
 234:D:\Psoc\TFT240_320_4200\TFT240x320.cydsn\TFT.c **** //*************************************************************************************
 235:D:\Psoc\TFT240_320_4200\TFT240x320.cydsn\TFT.c **** void TFT_ReSetXY(uint16_t poX, uint16_t poY)
 236:D:\Psoc\TFT240_320_4200\TFT240x320.cydsn\TFT.c **** {
 499              		.loc 1 236 0
 500              		.cfi_startproc
ARM GAS  C:\Users\Kayas\AppData\Local\Temp\ccpxl0Kp.s 			page 14


 501              		@ args = 0, pretend = 0, frame = 0
 502              		@ frame_needed = 0, uses_anonymous_args = 0
 503              	.LVL79:
 504 0000 10B5     		push	{r4, lr}
 505              		.cfi_def_cfa_offset 8
 506              		.cfi_offset 4, -8
 507              		.cfi_offset 14, -4
 508 0002 0C00     		movs	r4, r1
 237:D:\Psoc\TFT240_320_4200\TFT240x320.cydsn\TFT.c **** TFT_SetCol(poX, poX);
 509              		.loc 1 237 0
 510 0004 0100     		movs	r1, r0
 511              	.LVL80:
 512 0006 FFF7FEFF 		bl	TFT_SetCol
 513              	.LVL81:
 238:D:\Psoc\TFT240_320_4200\TFT240x320.cydsn\TFT.c **** 	TFT_SetPage(poY, poY);
 514              		.loc 1 238 0
 515 000a 2100     		movs	r1, r4
 516 000c 2000     		movs	r0, r4
 517 000e FFF7FEFF 		bl	TFT_SetPage
 518              	.LVL82:
 239:D:\Psoc\TFT240_320_4200\TFT240x320.cydsn\TFT.c **** 	TFT_SendCMD(0x2c);
 519              		.loc 1 239 0
 520 0012 2C20     		movs	r0, #44
 521 0014 FFF7FEFF 		bl	TFT_SendCMD
 522              	.LVL83:
 240:D:\Psoc\TFT240_320_4200\TFT240x320.cydsn\TFT.c ****     TFT_WriteData(~0);
 523              		.loc 1 240 0
 524 0018 FF20     		movs	r0, #255
 525 001a FFF7FEFF 		bl	TFT_WriteData
 526              	.LVL84:
 241:D:\Psoc\TFT240_320_4200\TFT240x320.cydsn\TFT.c ****      TFT_WriteData(~0);
 527              		.loc 1 241 0
 528 001e FF20     		movs	r0, #255
 529 0020 FFF7FEFF 		bl	TFT_WriteData
 530              	.LVL85:
 242:D:\Psoc\TFT240_320_4200\TFT240x320.cydsn\TFT.c ****      TFT_WriteData(~0);
 531              		.loc 1 242 0
 532 0024 FF20     		movs	r0, #255
 533 0026 FFF7FEFF 		bl	TFT_WriteData
 534              	.LVL86:
 243:D:\Psoc\TFT240_320_4200\TFT240x320.cydsn\TFT.c ****      TFT_WriteData(~0);
 535              		.loc 1 243 0
 536 002a FF20     		movs	r0, #255
 537 002c FFF7FEFF 		bl	TFT_WriteData
 538              	.LVL87:
 244:D:\Psoc\TFT240_320_4200\TFT240x320.cydsn\TFT.c **** 
 245:D:\Psoc\TFT240_320_4200\TFT240x320.cydsn\TFT.c **** }
 539              		.loc 1 245 0
 540              		@ sp needed
 541 0030 10BD     		pop	{r4, pc}
 542              		.cfi_endproc
 543              	.LFE68:
 544              		.size	TFT_ReSetXY, .-TFT_ReSetXY
 545 0032 C046     		.section	.text.TFT_SetXY,"ax",%progbits
 546              		.align	2
 547              		.global	TFT_SetXY
 548              		.code	16
ARM GAS  C:\Users\Kayas\AppData\Local\Temp\ccpxl0Kp.s 			page 15


 549              		.thumb_func
 550              		.type	TFT_SetXY, %function
 551              	TFT_SetXY:
 552              	.LFB69:
 246:D:\Psoc\TFT240_320_4200\TFT240x320.cydsn\TFT.c **** void TFT_SetXY(uint16_t poX, uint16_t poY)
 247:D:\Psoc\TFT240_320_4200\TFT240x320.cydsn\TFT.c **** {
 553              		.loc 1 247 0
 554              		.cfi_startproc
 555              		@ args = 0, pretend = 0, frame = 0
 556              		@ frame_needed = 0, uses_anonymous_args = 0
 557              	.LVL88:
 558 0000 10B5     		push	{r4, lr}
 559              		.cfi_def_cfa_offset 8
 560              		.cfi_offset 4, -8
 561              		.cfi_offset 14, -4
 562 0002 0C00     		movs	r4, r1
 248:D:\Psoc\TFT240_320_4200\TFT240x320.cydsn\TFT.c ****     
 249:D:\Psoc\TFT240_320_4200\TFT240x320.cydsn\TFT.c **** 	TFT_SetCol(poX, poX);
 563              		.loc 1 249 0
 564 0004 0100     		movs	r1, r0
 565              	.LVL89:
 566 0006 FFF7FEFF 		bl	TFT_SetCol
 567              	.LVL90:
 250:D:\Psoc\TFT240_320_4200\TFT240x320.cydsn\TFT.c **** 	TFT_SetPage(poY, poY);
 568              		.loc 1 250 0
 569 000a 2100     		movs	r1, r4
 570 000c 2000     		movs	r0, r4
 571 000e FFF7FEFF 		bl	TFT_SetPage
 572              	.LVL91:
 251:D:\Psoc\TFT240_320_4200\TFT240x320.cydsn\TFT.c **** 	TFT_SendCMD(0x2c);
 573              		.loc 1 251 0
 574 0012 2C20     		movs	r0, #44
 575 0014 FFF7FEFF 		bl	TFT_SendCMD
 576              	.LVL92:
 252:D:\Psoc\TFT240_320_4200\TFT240x320.cydsn\TFT.c **** }
 577              		.loc 1 252 0
 578              		@ sp needed
 579 0018 10BD     		pop	{r4, pc}
 580              		.cfi_endproc
 581              	.LFE69:
 582              		.size	TFT_SetXY, .-TFT_SetXY
 583 001a C046     		.section	.text.TFT_SetPixel,"ax",%progbits
 584              		.align	2
 585              		.global	TFT_SetPixel
 586              		.code	16
 587              		.thumb_func
 588              		.type	TFT_SetPixel, %function
 589              	TFT_SetPixel:
 590              	.LFB70:
 253:D:\Psoc\TFT240_320_4200\TFT240x320.cydsn\TFT.c **** //*************************************************************************************
 254:D:\Psoc\TFT240_320_4200\TFT240x320.cydsn\TFT.c **** void TFT_SetPixel(uint16_t poX, uint16_t poY,uint16_t color)
 255:D:\Psoc\TFT240_320_4200\TFT240x320.cydsn\TFT.c **** { 
 591              		.loc 1 255 0
 592              		.cfi_startproc
 593              		@ args = 0, pretend = 0, frame = 0
 594              		@ frame_needed = 0, uses_anonymous_args = 0
 595              	.LVL93:
ARM GAS  C:\Users\Kayas\AppData\Local\Temp\ccpxl0Kp.s 			page 16


 596 0000 10B5     		push	{r4, lr}
 597              		.cfi_def_cfa_offset 8
 598              		.cfi_offset 4, -8
 599              		.cfi_offset 14, -4
 600 0002 1400     		movs	r4, r2
 256:D:\Psoc\TFT240_320_4200\TFT240x320.cydsn\TFT.c **** 
 257:D:\Psoc\TFT240_320_4200\TFT240x320.cydsn\TFT.c **** 	TFT_SetXY(poX, poY);
 601              		.loc 1 257 0
 602 0004 FFF7FEFF 		bl	TFT_SetXY
 603              	.LVL94:
 258:D:\Psoc\TFT240_320_4200\TFT240x320.cydsn\TFT.c **** 	TFT_SendData(~color);
 604              		.loc 1 258 0
 605 0008 E043     		mvns	r0, r4
 606 000a 80B2     		uxth	r0, r0
 607 000c FFF7FEFF 		bl	TFT_SendData
 608              	.LVL95:
 259:D:\Psoc\TFT240_320_4200\TFT240x320.cydsn\TFT.c **** }
 609              		.loc 1 259 0
 610              		@ sp needed
 611 0010 10BD     		pop	{r4, pc}
 612              		.cfi_endproc
 613              	.LFE70:
 614              		.size	TFT_SetPixel, .-TFT_SetPixel
 615 0012 C046     		.section	.text.TFT_FillRectangle,"ax",%progbits
 616              		.align	2
 617              		.global	TFT_FillRectangle
 618              		.code	16
 619              		.thumb_func
 620              		.type	TFT_FillRectangle, %function
 621              	TFT_FillRectangle:
 622              	.LFB71:
 260:D:\Psoc\TFT240_320_4200\TFT240x320.cydsn\TFT.c **** //*************************************************************************************
 261:D:\Psoc\TFT240_320_4200\TFT240x320.cydsn\TFT.c **** void TFT_FillRectangle(uint16_t poX, uint16_t poY, uint16_t length, uint16_t width, uint16_t color)
 262:D:\Psoc\TFT240_320_4200\TFT240x320.cydsn\TFT.c **** {
 623              		.loc 1 262 0
 624              		.cfi_startproc
 625              		@ args = 4, pretend = 0, frame = 0
 626              		@ frame_needed = 0, uses_anonymous_args = 0
 627              	.LVL96:
 628 0000 30B5     		push	{r4, r5, lr}
 629              		.cfi_def_cfa_offset 12
 630              		.cfi_offset 4, -12
 631              		.cfi_offset 5, -8
 632              		.cfi_offset 14, -4
 633 0002 83B0     		sub	sp, sp, #12
 634              		.cfi_def_cfa_offset 24
 635 0004 0C00     		movs	r4, r1
 636 0006 06A9     		add	r1, sp, #24
 637              	.LVL97:
 638 0008 0D88     		ldrh	r5, [r1]
 263:D:\Psoc\TFT240_320_4200\TFT240x320.cydsn\TFT.c **** 	TFT_FillScreen(poX, poX+length, poY, poY+width, color);
 639              		.loc 1 263 0
 640 000a E318     		adds	r3, r4, r3
 641              	.LVL98:
 642 000c 9BB2     		uxth	r3, r3
 643 000e 8218     		adds	r2, r0, r2
 644              	.LVL99:
ARM GAS  C:\Users\Kayas\AppData\Local\Temp\ccpxl0Kp.s 			page 17


 645 0010 91B2     		uxth	r1, r2
 646              	.LVL100:
 647 0012 0095     		str	r5, [sp]
 648 0014 2200     		movs	r2, r4
 649 0016 FFF7FEFF 		bl	TFT_FillScreen
 650              	.LVL101:
 264:D:\Psoc\TFT240_320_4200\TFT240x320.cydsn\TFT.c **** }
 651              		.loc 1 264 0
 652 001a 03B0     		add	sp, sp, #12
 653              		@ sp needed
 654 001c 30BD     		pop	{r4, r5, pc}
 655              		.cfi_endproc
 656              	.LFE71:
 657              		.size	TFT_FillRectangle, .-TFT_FillRectangle
 658 001e C046     		.section	.text.TFT_DrawHorizontalLine,"ax",%progbits
 659              		.align	2
 660              		.global	TFT_DrawHorizontalLine
 661              		.code	16
 662              		.thumb_func
 663              		.type	TFT_DrawHorizontalLine, %function
 664              	TFT_DrawHorizontalLine:
 665              	.LFB72:
 265:D:\Psoc\TFT240_320_4200\TFT240x320.cydsn\TFT.c **** //*************************************************************************************
 266:D:\Psoc\TFT240_320_4200\TFT240x320.cydsn\TFT.c **** void  TFT_DrawHorizontalLine( uint16_t poX, uint16_t poY, uint16_t length,uint16_t color)
 267:D:\Psoc\TFT240_320_4200\TFT240x320.cydsn\TFT.c **** {
 666              		.loc 1 267 0
 667              		.cfi_startproc
 668              		@ args = 0, pretend = 0, frame = 0
 669              		@ frame_needed = 0, uses_anonymous_args = 0
 670              	.LVL102:
 671 0000 70B5     		push	{r4, r5, r6, lr}
 672              		.cfi_def_cfa_offset 16
 673              		.cfi_offset 4, -16
 674              		.cfi_offset 5, -12
 675              		.cfi_offset 6, -8
 676              		.cfi_offset 14, -4
 677 0002 0C00     		movs	r4, r1
 678 0004 1500     		movs	r5, r2
 679 0006 1E00     		movs	r6, r3
 680              	.LVL103:
 268:D:\Psoc\TFT240_320_4200\TFT240x320.cydsn\TFT.c **** 	int i=0;
 269:D:\Psoc\TFT240_320_4200\TFT240x320.cydsn\TFT.c **** 	TFT_SetCol(poX,poX + length);
 681              		.loc 1 269 0
 682 0008 8118     		adds	r1, r0, r2
 683              	.LVL104:
 684 000a 89B2     		uxth	r1, r1
 685 000c FFF7FEFF 		bl	TFT_SetCol
 686              	.LVL105:
 270:D:\Psoc\TFT240_320_4200\TFT240x320.cydsn\TFT.c **** 	TFT_SetPage(poY,poY);
 687              		.loc 1 270 0
 688 0010 2100     		movs	r1, r4
 689 0012 2000     		movs	r0, r4
 690 0014 FFF7FEFF 		bl	TFT_SetPage
 691              	.LVL106:
 271:D:\Psoc\TFT240_320_4200\TFT240x320.cydsn\TFT.c **** 	TFT_SendCMD(0x2c);
 692              		.loc 1 271 0
 693 0018 2C20     		movs	r0, #44
ARM GAS  C:\Users\Kayas\AppData\Local\Temp\ccpxl0Kp.s 			page 18


 694 001a FFF7FEFF 		bl	TFT_SendCMD
 695              	.LVL107:
 272:D:\Psoc\TFT240_320_4200\TFT240x320.cydsn\TFT.c **** 	for(i=0; i<length; i++)
 696              		.loc 1 272 0
 697 001e 0024     		movs	r4, #0
 698 0020 04E0     		b	.L27
 699              	.LVL108:
 700              	.L28:
 273:D:\Psoc\TFT240_320_4200\TFT240x320.cydsn\TFT.c **** 	TFT_SendData(~color);
 701              		.loc 1 273 0 discriminator 3
 702 0022 F043     		mvns	r0, r6
 703 0024 80B2     		uxth	r0, r0
 704 0026 FFF7FEFF 		bl	TFT_SendData
 705              	.LVL109:
 272:D:\Psoc\TFT240_320_4200\TFT240x320.cydsn\TFT.c **** 	for(i=0; i<length; i++)
 706              		.loc 1 272 0 discriminator 3
 707 002a 0134     		adds	r4, r4, #1
 708              	.LVL110:
 709              	.L27:
 272:D:\Psoc\TFT240_320_4200\TFT240x320.cydsn\TFT.c **** 	for(i=0; i<length; i++)
 710              		.loc 1 272 0 is_stmt 0 discriminator 1
 711 002c AC42     		cmp	r4, r5
 712 002e F8DB     		blt	.L28
 274:D:\Psoc\TFT240_320_4200\TFT240x320.cydsn\TFT.c **** }
 713              		.loc 1 274 0 is_stmt 1
 714              		@ sp needed
 715              	.LVL111:
 716 0030 70BD     		pop	{r4, r5, r6, pc}
 717              		.cfi_endproc
 718              	.LFE72:
 719              		.size	TFT_DrawHorizontalLine, .-TFT_DrawHorizontalLine
 720 0032 C046     		.section	.text.TFT_DrawLine,"ax",%progbits
 721              		.align	2
 722              		.global	TFT_DrawLine
 723              		.code	16
 724              		.thumb_func
 725              		.type	TFT_DrawLine, %function
 726              	TFT_DrawLine:
 727              	.LFB73:
 275:D:\Psoc\TFT240_320_4200\TFT240x320.cydsn\TFT.c **** //*************************************************************************************
 276:D:\Psoc\TFT240_320_4200\TFT240x320.cydsn\TFT.c **** void TFT_DrawLine( uint16_t x0,uint16_t y0,uint16_t x1, uint16_t y1,uint16_t color)
 277:D:\Psoc\TFT240_320_4200\TFT240x320.cydsn\TFT.c **** {
 728              		.loc 1 277 0
 729              		.cfi_startproc
 730              		@ args = 4, pretend = 0, frame = 16
 731              		@ frame_needed = 0, uses_anonymous_args = 0
 732              	.LVL112:
 733 0000 F0B5     		push	{r4, r5, r6, r7, lr}
 734              		.cfi_def_cfa_offset 20
 735              		.cfi_offset 4, -20
 736              		.cfi_offset 5, -16
 737              		.cfi_offset 6, -12
 738              		.cfi_offset 7, -8
 739              		.cfi_offset 14, -4
 740 0002 5F46     		mov	r7, fp
 741 0004 5646     		mov	r6, r10
 742 0006 4D46     		mov	r5, r9
ARM GAS  C:\Users\Kayas\AppData\Local\Temp\ccpxl0Kp.s 			page 19


 743 0008 4446     		mov	r4, r8
 744 000a F0B4     		push	{r4, r5, r6, r7}
 745              		.cfi_def_cfa_offset 36
 746              		.cfi_offset 8, -36
 747              		.cfi_offset 9, -32
 748              		.cfi_offset 10, -28
 749              		.cfi_offset 11, -24
 750 000c 85B0     		sub	sp, sp, #20
 751              		.cfi_def_cfa_offset 56
 752 000e 0400     		movs	r4, r0
 753 0010 0D00     		movs	r5, r1
 754 0012 9346     		mov	fp, r2
 755 0014 1900     		movs	r1, r3
 756              	.LVL113:
 757 0016 0193     		str	r3, [sp, #4]
 758 0018 0EAB     		add	r3, sp, #56
 759              	.LVL114:
 760 001a 1A88     		ldrh	r2, [r3]
 761              	.LVL115:
 762 001c 9146     		mov	r9, r2
 278:D:\Psoc\TFT240_320_4200\TFT240x320.cydsn\TFT.c **** 	int x = x1-x0;
 763              		.loc 1 278 0
 764 001e 5A46     		mov	r2, fp
 765 0020 171A     		subs	r7, r2, r0
 766              	.LVL116:
 279:D:\Psoc\TFT240_320_4200\TFT240x320.cydsn\TFT.c **** 	int y = y1-y0;
 767              		.loc 1 279 0
 768 0022 4B1B     		subs	r3, r1, r5
 769              	.LVL117:
 280:D:\Psoc\TFT240_320_4200\TFT240x320.cydsn\TFT.c **** 	int dx = abs(x), sx = x0<x1 ? 1 : -1;
 770              		.loc 1 280 0
 771 0024 FA17     		asrs	r2, r7, #31
 772 0026 BF18     		adds	r7, r7, r2
 773              	.LVL118:
 774 0028 5740     		eors	r7, r2
 775              	.LVL119:
 776 002a 8345     		cmp	fp, r0
 777 002c 02D9     		bls	.L36
 778 002e 0122     		movs	r2, #1
 779 0030 0292     		str	r2, [sp, #8]
 780 0032 02E0     		b	.L30
 781              	.L36:
 782 0034 0122     		movs	r2, #1
 783 0036 5242     		rsbs	r2, r2, #0
 784 0038 0292     		str	r2, [sp, #8]
 785              	.L30:
 786              	.LVL120:
 281:D:\Psoc\TFT240_320_4200\TFT240x320.cydsn\TFT.c **** 	int dy = -abs(y), sy = y0<y1 ? 1 : -1;
 787              		.loc 1 281 0 discriminator 4
 788 003a DA17     		asrs	r2, r3, #31
 789 003c 9B18     		adds	r3, r3, r2
 790              	.LVL121:
 791 003e 5340     		eors	r3, r2
 792 0040 9A46     		mov	r10, r3
 793 0042 5B42     		rsbs	r3, r3, #0
 794 0044 9846     		mov	r8, r3
 795              	.LVL122:
ARM GAS  C:\Users\Kayas\AppData\Local\Temp\ccpxl0Kp.s 			page 20


 796 0046 019B     		ldr	r3, [sp, #4]
 797              	.LVL123:
 798 0048 AB42     		cmp	r3, r5
 799 004a 02D9     		bls	.L37
 800              		.loc 1 281 0 is_stmt 0
 801 004c 0123     		movs	r3, #1
 802 004e 0393     		str	r3, [sp, #12]
 803 0050 02E0     		b	.L31
 804              	.L37:
 805 0052 0123     		movs	r3, #1
 806 0054 5B42     		rsbs	r3, r3, #0
 807 0056 0393     		str	r3, [sp, #12]
 808              	.L31:
 809              	.LVL124:
 282:D:\Psoc\TFT240_320_4200\TFT240x320.cydsn\TFT.c **** 	int err = dx+dy, e2;                                                /* error value e_xy           
 810              		.loc 1 282 0 is_stmt 1 discriminator 4
 811 0058 5346     		mov	r3, r10
 812 005a FE1A     		subs	r6, r7, r3
 813              	.LVL125:
 814              	.L32:
 283:D:\Psoc\TFT240_320_4200\TFT240x320.cydsn\TFT.c **** 	for (;;){                                                           /* loop                       
 284:D:\Psoc\TFT240_320_4200\TFT240x320.cydsn\TFT.c **** 		TFT_SetPixel(x0,y0,~color);
 815              		.loc 1 284 0
 816 005c 4B46     		mov	r3, r9
 817 005e DA43     		mvns	r2, r3
 818 0060 92B2     		uxth	r2, r2
 819 0062 2900     		movs	r1, r5
 820 0064 2000     		movs	r0, r4
 821 0066 FFF7FEFF 		bl	TFT_SetPixel
 822              	.LVL126:
 285:D:\Psoc\TFT240_320_4200\TFT240x320.cydsn\TFT.c **** 		e2 = 2*err;
 823              		.loc 1 285 0
 824 006a 7300     		lsls	r3, r6, #1
 825              	.LVL127:
 286:D:\Psoc\TFT240_320_4200\TFT240x320.cydsn\TFT.c **** 		if (e2 >= dy) {                                                 /* e_xy+e_x > 0                 *
 826              		.loc 1 286 0
 827 006c 9845     		cmp	r8, r3
 828 006e 07DC     		bgt	.L33
 287:D:\Psoc\TFT240_320_4200\TFT240x320.cydsn\TFT.c **** 			if (x0 == x1) break;
 829              		.loc 1 287 0
 830 0070 5C45     		cmp	r4, fp
 831 0072 10D0     		beq	.L29
 288:D:\Psoc\TFT240_320_4200\TFT240x320.cydsn\TFT.c **** 			err += dy; x0 += sx;
 832              		.loc 1 288 0
 833 0074 5246     		mov	r2, r10
 834 0076 B61A     		subs	r6, r6, r2
 835              	.LVL128:
 836 0078 029A     		ldr	r2, [sp, #8]
 837 007a 9446     		mov	ip, r2
 838 007c 6444     		add	r4, r4, ip
 839              	.LVL129:
 840 007e A4B2     		uxth	r4, r4
 841              	.LVL130:
 842              	.L33:
 289:D:\Psoc\TFT240_320_4200\TFT240x320.cydsn\TFT.c **** 		}
 290:D:\Psoc\TFT240_320_4200\TFT240x320.cydsn\TFT.c **** 		if (e2 <= dx) {                                                 /* e_xy+e_y < 0                 *
 843              		.loc 1 290 0
ARM GAS  C:\Users\Kayas\AppData\Local\Temp\ccpxl0Kp.s 			page 21


 844 0080 9F42     		cmp	r7, r3
 845 0082 EBDB     		blt	.L32
 291:D:\Psoc\TFT240_320_4200\TFT240x320.cydsn\TFT.c **** 			if (y0 == y1) break;
 846              		.loc 1 291 0
 847 0084 019B     		ldr	r3, [sp, #4]
 848              	.LVL131:
 849 0086 9D42     		cmp	r5, r3
 850 0088 05D0     		beq	.L29
 292:D:\Psoc\TFT240_320_4200\TFT240x320.cydsn\TFT.c **** 			err += dx; y0 += sy;
 851              		.loc 1 292 0
 852 008a F619     		adds	r6, r6, r7
 853              	.LVL132:
 854 008c 039B     		ldr	r3, [sp, #12]
 855 008e 9C46     		mov	ip, r3
 856 0090 6544     		add	r5, r5, ip
 857              	.LVL133:
 858 0092 ADB2     		uxth	r5, r5
 859              	.LVL134:
 860 0094 E2E7     		b	.L32
 861              	.L29:
 293:D:\Psoc\TFT240_320_4200\TFT240x320.cydsn\TFT.c **** 		}
 294:D:\Psoc\TFT240_320_4200\TFT240x320.cydsn\TFT.c **** 	}
 295:D:\Psoc\TFT240_320_4200\TFT240x320.cydsn\TFT.c **** }
 862              		.loc 1 295 0
 863 0096 05B0     		add	sp, sp, #20
 864              		@ sp needed
 865              	.LVL135:
 866              	.LVL136:
 867              	.LVL137:
 868              	.LVL138:
 869              	.LVL139:
 870              	.LVL140:
 871 0098 3CBC     		pop	{r2, r3, r4, r5}
 872 009a 9046     		mov	r8, r2
 873 009c 9946     		mov	r9, r3
 874 009e A246     		mov	r10, r4
 875 00a0 AB46     		mov	fp, r5
 876 00a2 F0BD     		pop	{r4, r5, r6, r7, pc}
 877              		.cfi_endproc
 878              	.LFE73:
 879              		.size	TFT_DrawLine, .-TFT_DrawLine
 880              		.section	.text.TFT_DrawVerticalLine,"ax",%progbits
 881              		.align	2
 882              		.global	TFT_DrawVerticalLine
 883              		.code	16
 884              		.thumb_func
 885              		.type	TFT_DrawVerticalLine, %function
 886              	TFT_DrawVerticalLine:
 887              	.LFB74:
 296:D:\Psoc\TFT240_320_4200\TFT240x320.cydsn\TFT.c **** //*************************************************************************************
 297:D:\Psoc\TFT240_320_4200\TFT240x320.cydsn\TFT.c **** void TFT_DrawVerticalLine( uint16_t poX, uint16_t poY, uint16_t length,uint16_t color)
 298:D:\Psoc\TFT240_320_4200\TFT240x320.cydsn\TFT.c **** {
 888              		.loc 1 298 0
 889              		.cfi_startproc
 890              		@ args = 0, pretend = 0, frame = 0
 891              		@ frame_needed = 0, uses_anonymous_args = 0
 892              	.LVL141:
ARM GAS  C:\Users\Kayas\AppData\Local\Temp\ccpxl0Kp.s 			page 22


 893 0000 70B5     		push	{r4, r5, r6, lr}
 894              		.cfi_def_cfa_offset 16
 895              		.cfi_offset 4, -16
 896              		.cfi_offset 5, -12
 897              		.cfi_offset 6, -8
 898              		.cfi_offset 14, -4
 899 0002 0C00     		movs	r4, r1
 900 0004 1500     		movs	r5, r2
 901 0006 1E00     		movs	r6, r3
 902              	.LVL142:
 299:D:\Psoc\TFT240_320_4200\TFT240x320.cydsn\TFT.c **** 	int i=0;
 300:D:\Psoc\TFT240_320_4200\TFT240x320.cydsn\TFT.c **** 	TFT_SetCol(poX,poX);
 903              		.loc 1 300 0
 904 0008 0100     		movs	r1, r0
 905              	.LVL143:
 906 000a FFF7FEFF 		bl	TFT_SetCol
 907              	.LVL144:
 301:D:\Psoc\TFT240_320_4200\TFT240x320.cydsn\TFT.c **** 	TFT_SetPage(poY,poY+length);
 908              		.loc 1 301 0
 909 000e 6119     		adds	r1, r4, r5
 910 0010 89B2     		uxth	r1, r1
 911 0012 2000     		movs	r0, r4
 912 0014 FFF7FEFF 		bl	TFT_SetPage
 913              	.LVL145:
 302:D:\Psoc\TFT240_320_4200\TFT240x320.cydsn\TFT.c **** 	TFT_SendCMD(0x2c);
 914              		.loc 1 302 0
 915 0018 2C20     		movs	r0, #44
 916 001a FFF7FEFF 		bl	TFT_SendCMD
 917              	.LVL146:
 303:D:\Psoc\TFT240_320_4200\TFT240x320.cydsn\TFT.c **** 	for(i=0; i<length; i++)
 918              		.loc 1 303 0
 919 001e 0024     		movs	r4, #0
 920 0020 04E0     		b	.L39
 921              	.LVL147:
 922              	.L40:
 304:D:\Psoc\TFT240_320_4200\TFT240x320.cydsn\TFT.c **** 	TFT_SendData(~color);
 923              		.loc 1 304 0 discriminator 3
 924 0022 F043     		mvns	r0, r6
 925 0024 80B2     		uxth	r0, r0
 926 0026 FFF7FEFF 		bl	TFT_SendData
 927              	.LVL148:
 303:D:\Psoc\TFT240_320_4200\TFT240x320.cydsn\TFT.c **** 	for(i=0; i<length; i++)
 928              		.loc 1 303 0 discriminator 3
 929 002a 0134     		adds	r4, r4, #1
 930              	.LVL149:
 931              	.L39:
 303:D:\Psoc\TFT240_320_4200\TFT240x320.cydsn\TFT.c **** 	for(i=0; i<length; i++)
 932              		.loc 1 303 0 is_stmt 0 discriminator 1
 933 002c AC42     		cmp	r4, r5
 934 002e F8DB     		blt	.L40
 305:D:\Psoc\TFT240_320_4200\TFT240x320.cydsn\TFT.c **** }
 935              		.loc 1 305 0 is_stmt 1
 936              		@ sp needed
 937              	.LVL150:
 938 0030 70BD     		pop	{r4, r5, r6, pc}
 939              		.cfi_endproc
 940              	.LFE74:
ARM GAS  C:\Users\Kayas\AppData\Local\Temp\ccpxl0Kp.s 			page 23


 941              		.size	TFT_DrawVerticalLine, .-TFT_DrawVerticalLine
 942 0032 C046     		.section	.text.TFT_DrawRectangle,"ax",%progbits
 943              		.align	2
 944              		.global	TFT_DrawRectangle
 945              		.code	16
 946              		.thumb_func
 947              		.type	TFT_DrawRectangle, %function
 948              	TFT_DrawRectangle:
 949              	.LFB75:
 306:D:\Psoc\TFT240_320_4200\TFT240x320.cydsn\TFT.c **** //*************************************************************************************
 307:D:\Psoc\TFT240_320_4200\TFT240x320.cydsn\TFT.c **** void TFT_DrawRectangle(uint16_t poX, uint16_t poY, uint16_t length, uint16_t width,uint16_t color)
 308:D:\Psoc\TFT240_320_4200\TFT240x320.cydsn\TFT.c **** {
 950              		.loc 1 308 0
 951              		.cfi_startproc
 952              		@ args = 4, pretend = 0, frame = 8
 953              		@ frame_needed = 0, uses_anonymous_args = 0
 954              	.LVL151:
 955 0000 F0B5     		push	{r4, r5, r6, r7, lr}
 956              		.cfi_def_cfa_offset 20
 957              		.cfi_offset 4, -20
 958              		.cfi_offset 5, -16
 959              		.cfi_offset 6, -12
 960              		.cfi_offset 7, -8
 961              		.cfi_offset 14, -4
 962 0002 83B0     		sub	sp, sp, #12
 963              		.cfi_def_cfa_offset 32
 964 0004 0700     		movs	r7, r0
 965 0006 0D00     		movs	r5, r1
 966 0008 1400     		movs	r4, r2
 967 000a 0193     		str	r3, [sp, #4]
 968 000c 08AB     		add	r3, sp, #32
 969              	.LVL152:
 970 000e 1E88     		ldrh	r6, [r3]
 309:D:\Psoc\TFT240_320_4200\TFT240x320.cydsn\TFT.c **** 	TFT_DrawHorizontalLine(poX, poY, length, color);
 971              		.loc 1 309 0
 972 0010 3300     		movs	r3, r6
 973              	.LVL153:
 974 0012 FFF7FEFF 		bl	TFT_DrawHorizontalLine
 975              	.LVL154:
 310:D:\Psoc\TFT240_320_4200\TFT240x320.cydsn\TFT.c **** 	TFT_DrawHorizontalLine(poX, poY+width, length, color);
 976              		.loc 1 310 0
 977 0016 019B     		ldr	r3, [sp, #4]
 978 0018 E918     		adds	r1, r5, r3
 979 001a 89B2     		uxth	r1, r1
 980 001c 3300     		movs	r3, r6
 981 001e 2200     		movs	r2, r4
 982 0020 3800     		movs	r0, r7
 983 0022 FFF7FEFF 		bl	TFT_DrawHorizontalLine
 984              	.LVL155:
 311:D:\Psoc\TFT240_320_4200\TFT240x320.cydsn\TFT.c **** 	TFT_DrawVerticalLine(poX, poY, width,color);
 985              		.loc 1 311 0
 986 0026 3300     		movs	r3, r6
 987 0028 019A     		ldr	r2, [sp, #4]
 988 002a 2900     		movs	r1, r5
 989 002c 3800     		movs	r0, r7
 990 002e FFF7FEFF 		bl	TFT_DrawVerticalLine
 991              	.LVL156:
ARM GAS  C:\Users\Kayas\AppData\Local\Temp\ccpxl0Kp.s 			page 24


 312:D:\Psoc\TFT240_320_4200\TFT240x320.cydsn\TFT.c **** 	TFT_DrawVerticalLine(poX + length, poY, width,color);
 992              		.loc 1 312 0
 993 0032 3C19     		adds	r4, r7, r4
 994 0034 A0B2     		uxth	r0, r4
 995 0036 3300     		movs	r3, r6
 996 0038 019A     		ldr	r2, [sp, #4]
 997 003a 2900     		movs	r1, r5
 998 003c FFF7FEFF 		bl	TFT_DrawVerticalLine
 999              	.LVL157:
 313:D:\Psoc\TFT240_320_4200\TFT240x320.cydsn\TFT.c **** }
 1000              		.loc 1 313 0
 1001 0040 03B0     		add	sp, sp, #12
 1002              		@ sp needed
 1003 0042 F0BD     		pop	{r4, r5, r6, r7, pc}
 1004              		.cfi_endproc
 1005              	.LFE75:
 1006              		.size	TFT_DrawRectangle, .-TFT_DrawRectangle
 1007              		.section	.text.TFT_DrawCircle,"ax",%progbits
 1008              		.align	2
 1009              		.global	TFT_DrawCircle
 1010              		.code	16
 1011              		.thumb_func
 1012              		.type	TFT_DrawCircle, %function
 1013              	TFT_DrawCircle:
 1014              	.LFB76:
 314:D:\Psoc\TFT240_320_4200\TFT240x320.cydsn\TFT.c **** //*************************************************************************************
 315:D:\Psoc\TFT240_320_4200\TFT240x320.cydsn\TFT.c **** void TFT_DrawCircle(int poX, int poY, int r,uint16_t color)
 316:D:\Psoc\TFT240_320_4200\TFT240x320.cydsn\TFT.c **** {
 1015              		.loc 1 316 0
 1016              		.cfi_startproc
 1017              		@ args = 0, pretend = 0, frame = 24
 1018              		@ frame_needed = 0, uses_anonymous_args = 0
 1019              	.LVL158:
 1020 0000 F0B5     		push	{r4, r5, r6, r7, lr}
 1021              		.cfi_def_cfa_offset 20
 1022              		.cfi_offset 4, -20
 1023              		.cfi_offset 5, -16
 1024              		.cfi_offset 6, -12
 1025              		.cfi_offset 7, -8
 1026              		.cfi_offset 14, -4
 1027 0002 5F46     		mov	r7, fp
 1028 0004 5646     		mov	r6, r10
 1029 0006 4D46     		mov	r5, r9
 1030 0008 4446     		mov	r4, r8
 1031 000a F0B4     		push	{r4, r5, r6, r7}
 1032              		.cfi_def_cfa_offset 36
 1033              		.cfi_offset 8, -36
 1034              		.cfi_offset 9, -32
 1035              		.cfi_offset 10, -28
 1036              		.cfi_offset 11, -24
 1037 000c 87B0     		sub	sp, sp, #28
 1038              		.cfi_def_cfa_offset 64
 1039 000e 0490     		str	r0, [sp, #16]
 1040 0010 0591     		str	r1, [sp, #20]
 1041 0012 0193     		str	r3, [sp, #4]
 317:D:\Psoc\TFT240_320_4200\TFT240x320.cydsn\TFT.c **** 	int x = -r, y = 0, err = 2-2*r, e2;
 1042              		.loc 1 317 0
ARM GAS  C:\Users\Kayas\AppData\Local\Temp\ccpxl0Kp.s 			page 25


 1043 0014 5342     		rsbs	r3, r2, #0
 1044              	.LVL159:
 1045 0016 9A46     		mov	r10, r3
 1046              	.LVL160:
 1047 0018 0123     		movs	r3, #1
 1048              	.LVL161:
 1049 001a 9A1A     		subs	r2, r3, r2
 1050              	.LVL162:
 1051 001c 5300     		lsls	r3, r2, #1
 1052              	.LVL163:
 1053 001e 0027     		movs	r7, #0
 1054 0020 B846     		mov	r8, r7
 1055 0022 5746     		mov	r7, r10
 1056 0024 1E00     		movs	r6, r3
 1057              	.LVL164:
 1058              	.L45:
 318:D:\Psoc\TFT240_320_4200\TFT240x320.cydsn\TFT.c **** 	do {
 319:D:\Psoc\TFT240_320_4200\TFT240x320.cydsn\TFT.c **** 		TFT_SetPixel(poX-x, poY+y,color);
 1059              		.loc 1 319 0
 1060 0026 6B46     		mov	r3, sp
 1061 0028 1B8A     		ldrh	r3, [r3, #16]
 1062 002a BDB2     		uxth	r5, r7
 1063 002c 9B46     		mov	fp, r3
 1064 002e 5B1B     		subs	r3, r3, r5
 1065 0030 9BB2     		uxth	r3, r3
 1066 0032 1800     		movs	r0, r3
 1067 0034 6B46     		mov	r3, sp
 1068 0036 9C8A     		ldrh	r4, [r3, #20]
 1069 0038 4346     		mov	r3, r8
 1070 003a 6A46     		mov	r2, sp
 1071 003c 1381     		strh	r3, [r2, #8]
 1072 003e 1389     		ldrh	r3, [r2, #8]
 1073 0040 9946     		mov	r9, r3
 1074 0042 E318     		adds	r3, r4, r3
 1075 0044 9BB2     		uxth	r3, r3
 1076 0046 019A     		ldr	r2, [sp, #4]
 1077 0048 0393     		str	r3, [sp, #12]
 1078 004a 1900     		movs	r1, r3
 1079 004c 0290     		str	r0, [sp, #8]
 1080 004e FFF7FEFF 		bl	TFT_SetPixel
 1081              	.LVL165:
 320:D:\Psoc\TFT240_320_4200\TFT240x320.cydsn\TFT.c **** 		TFT_SetPixel(poX+x, poY+y,color);
 1082              		.loc 1 320 0
 1083 0052 5D44     		add	r5, r5, fp
 1084 0054 ADB2     		uxth	r5, r5
 1085 0056 019A     		ldr	r2, [sp, #4]
 1086 0058 0399     		ldr	r1, [sp, #12]
 1087 005a 2800     		movs	r0, r5
 1088 005c FFF7FEFF 		bl	TFT_SetPixel
 1089              	.LVL166:
 321:D:\Psoc\TFT240_320_4200\TFT240x320.cydsn\TFT.c **** 		TFT_SetPixel(poX+x, poY-y,color);
 1090              		.loc 1 321 0
 1091 0060 4A46     		mov	r2, r9
 1092 0062 A41A     		subs	r4, r4, r2
 1093 0064 A4B2     		uxth	r4, r4
 1094 0066 019A     		ldr	r2, [sp, #4]
 1095 0068 2100     		movs	r1, r4
ARM GAS  C:\Users\Kayas\AppData\Local\Temp\ccpxl0Kp.s 			page 26


 1096 006a 2800     		movs	r0, r5
 1097 006c FFF7FEFF 		bl	TFT_SetPixel
 1098              	.LVL167:
 322:D:\Psoc\TFT240_320_4200\TFT240x320.cydsn\TFT.c **** 		TFT_SetPixel(poX-x, poY-y,color);
 1099              		.loc 1 322 0
 1100 0070 019A     		ldr	r2, [sp, #4]
 1101 0072 2100     		movs	r1, r4
 1102 0074 0298     		ldr	r0, [sp, #8]
 1103 0076 FFF7FEFF 		bl	TFT_SetPixel
 1104              	.LVL168:
 323:D:\Psoc\TFT240_320_4200\TFT240x320.cydsn\TFT.c **** 		e2 = err;
 324:D:\Psoc\TFT240_320_4200\TFT240x320.cydsn\TFT.c **** 		if (e2 <= y) {
 1105              		.loc 1 324 0
 1106 007a B045     		cmp	r8, r6
 1107 007c 0CDB     		blt	.L46
 325:D:\Psoc\TFT240_320_4200\TFT240x320.cydsn\TFT.c **** 			err += ++y*2+1;
 1108              		.loc 1 325 0
 1109 007e 0123     		movs	r3, #1
 1110 0080 9C46     		mov	ip, r3
 1111 0082 E044     		add	r8, r8, ip
 1112              	.LVL169:
 1113 0084 4346     		mov	r3, r8
 1114 0086 5B00     		lsls	r3, r3, #1
 1115 0088 0133     		adds	r3, r3, #1
 1116 008a F318     		adds	r3, r6, r3
 1117              	.LVL170:
 326:D:\Psoc\TFT240_320_4200\TFT240x320.cydsn\TFT.c **** 			if (-x == y && e2 <= x) e2 = 0;
 1118              		.loc 1 326 0
 1119 008c 7A42     		rsbs	r2, r7, #0
 1120 008e 9045     		cmp	r8, r2
 1121 0090 05D1     		bne	.L43
 1122              		.loc 1 326 0 is_stmt 0 discriminator 1
 1123 0092 B742     		cmp	r7, r6
 1124 0094 02DA     		bge	.L47
 1125 0096 02E0     		b	.L43
 1126              	.LVL171:
 1127              	.L46:
 1128 0098 3300     		movs	r3, r6
 1129 009a 00E0     		b	.L43
 1130              	.LVL172:
 1131              	.L47:
 1132              		.loc 1 326 0
 1133 009c 0026     		movs	r6, #0
 1134              	.LVL173:
 1135              	.L43:
 327:D:\Psoc\TFT240_320_4200\TFT240x320.cydsn\TFT.c **** 		}
 328:D:\Psoc\TFT240_320_4200\TFT240x320.cydsn\TFT.c **** 		if (e2 > x) err += ++x*2+1;
 1136              		.loc 1 328 0 is_stmt 1
 1137 009e B742     		cmp	r7, r6
 1138 00a0 04DA     		bge	.L48
 1139              		.loc 1 328 0 is_stmt 0 discriminator 1
 1140 00a2 0137     		adds	r7, r7, #1
 1141              	.LVL174:
 1142 00a4 7E00     		lsls	r6, r7, #1
 1143              	.LVL175:
 1144 00a6 0136     		adds	r6, r6, #1
 1145 00a8 9E19     		adds	r6, r3, r6
ARM GAS  C:\Users\Kayas\AppData\Local\Temp\ccpxl0Kp.s 			page 27


 1146              	.LVL176:
 1147 00aa 00E0     		b	.L44
 1148              	.LVL177:
 1149              	.L48:
 1150 00ac 1E00     		movs	r6, r3
 1151              	.LVL178:
 1152              	.L44:
 329:D:\Psoc\TFT240_320_4200\TFT240x320.cydsn\TFT.c **** 	} while (x <= 0);
 1153              		.loc 1 329 0 is_stmt 1
 1154 00ae 002F     		cmp	r7, #0
 1155 00b0 B9DD     		ble	.L45
 330:D:\Psoc\TFT240_320_4200\TFT240x320.cydsn\TFT.c **** }
 1156              		.loc 1 330 0
 1157 00b2 07B0     		add	sp, sp, #28
 1158              		@ sp needed
 1159              	.LVL179:
 1160              	.LVL180:
 1161              	.LVL181:
 1162              	.LVL182:
 1163 00b4 3CBC     		pop	{r2, r3, r4, r5}
 1164 00b6 9046     		mov	r8, r2
 1165 00b8 9946     		mov	r9, r3
 1166 00ba A246     		mov	r10, r4
 1167 00bc AB46     		mov	fp, r5
 1168 00be F0BD     		pop	{r4, r5, r6, r7, pc}
 1169              		.cfi_endproc
 1170              	.LFE76:
 1171              		.size	TFT_DrawCircle, .-TFT_DrawCircle
 1172              		.section	.text.TFT_FillCircle,"ax",%progbits
 1173              		.align	2
 1174              		.global	TFT_FillCircle
 1175              		.code	16
 1176              		.thumb_func
 1177              		.type	TFT_FillCircle, %function
 1178              	TFT_FillCircle:
 1179              	.LFB77:
 331:D:\Psoc\TFT240_320_4200\TFT240x320.cydsn\TFT.c **** //*************************************************************************************
 332:D:\Psoc\TFT240_320_4200\TFT240x320.cydsn\TFT.c **** void TFT_FillCircle(int poX, int poY, int r,uint16_t color)
 333:D:\Psoc\TFT240_320_4200\TFT240x320.cydsn\TFT.c **** {
 1180              		.loc 1 333 0
 1181              		.cfi_startproc
 1182              		@ args = 0, pretend = 0, frame = 16
 1183              		@ frame_needed = 0, uses_anonymous_args = 0
 1184              	.LVL183:
 1185 0000 F0B5     		push	{r4, r5, r6, r7, lr}
 1186              		.cfi_def_cfa_offset 20
 1187              		.cfi_offset 4, -20
 1188              		.cfi_offset 5, -16
 1189              		.cfi_offset 6, -12
 1190              		.cfi_offset 7, -8
 1191              		.cfi_offset 14, -4
 1192 0002 5F46     		mov	r7, fp
 1193 0004 5646     		mov	r6, r10
 1194 0006 4546     		mov	r5, r8
 1195 0008 E0B4     		push	{r5, r6, r7}
 1196              		.cfi_def_cfa_offset 32
 1197              		.cfi_offset 8, -32
ARM GAS  C:\Users\Kayas\AppData\Local\Temp\ccpxl0Kp.s 			page 28


 1198              		.cfi_offset 10, -28
 1199              		.cfi_offset 11, -24
 1200 000a 84B0     		sub	sp, sp, #16
 1201              		.cfi_def_cfa_offset 48
 1202 000c 0390     		str	r0, [sp, #12]
 1203 000e 8B46     		mov	fp, r1
 1204 0010 0093     		str	r3, [sp]
 334:D:\Psoc\TFT240_320_4200\TFT240x320.cydsn\TFT.c **** 	int x = -r, y = 0, err = 2-2*r, e2;
 1205              		.loc 1 334 0
 1206 0012 5742     		rsbs	r7, r2, #0
 1207              	.LVL184:
 1208 0014 0123     		movs	r3, #1
 1209              	.LVL185:
 1210 0016 9A1A     		subs	r2, r3, r2
 1211              	.LVL186:
 1212 0018 5300     		lsls	r3, r2, #1
 1213 001a 9846     		mov	r8, r3
 1214              	.LVL187:
 1215 001c 0023     		movs	r3, #0
 1216              	.LVL188:
 1217 001e 9A46     		mov	r10, r3
 1218 0020 4646     		mov	r6, r8
 1219              	.LVL189:
 1220              	.L52:
 335:D:\Psoc\TFT240_320_4200\TFT240x320.cydsn\TFT.c **** 	do {
 336:D:\Psoc\TFT240_320_4200\TFT240x320.cydsn\TFT.c **** 		TFT_DrawVerticalLine(poX-x, poY-y, 2*y, color);
 1221              		.loc 1 336 0
 1222 0022 6B46     		mov	r3, sp
 1223 0024 9889     		ldrh	r0, [r3, #12]
 1224 0026 BCB2     		uxth	r4, r7
 1225 0028 5346     		mov	r3, r10
 1226 002a 6A46     		mov	r2, sp
 1227 002c 9380     		strh	r3, [r2, #4]
 1228 002e 9588     		ldrh	r5, [r2, #4]
 1229 0030 5B46     		mov	r3, fp
 1230 0032 5B1B     		subs	r3, r3, r5
 1231 0034 9BB2     		uxth	r3, r3
 1232 0036 1900     		movs	r1, r3
 1233 0038 6D00     		lsls	r5, r5, #1
 1234 003a ABB2     		uxth	r3, r5
 1235 003c 1A00     		movs	r2, r3
 1236 003e 0500     		movs	r5, r0
 1237 0040 001B     		subs	r0, r0, r4
 1238 0042 80B2     		uxth	r0, r0
 1239 0044 009B     		ldr	r3, [sp]
 1240 0046 0292     		str	r2, [sp, #8]
 1241 0048 0191     		str	r1, [sp, #4]
 1242 004a FFF7FEFF 		bl	TFT_DrawVerticalLine
 1243              	.LVL190:
 337:D:\Psoc\TFT240_320_4200\TFT240x320.cydsn\TFT.c **** 		TFT_DrawVerticalLine(poX+x, poY-y, 2*y, color);
 1244              		.loc 1 337 0
 1245 004e 2C19     		adds	r4, r5, r4
 1246 0050 A0B2     		uxth	r0, r4
 1247 0052 009B     		ldr	r3, [sp]
 1248 0054 029A     		ldr	r2, [sp, #8]
 1249 0056 0199     		ldr	r1, [sp, #4]
 1250 0058 FFF7FEFF 		bl	TFT_DrawVerticalLine
ARM GAS  C:\Users\Kayas\AppData\Local\Temp\ccpxl0Kp.s 			page 29


 1251              	.LVL191:
 338:D:\Psoc\TFT240_320_4200\TFT240x320.cydsn\TFT.c **** 
 339:D:\Psoc\TFT240_320_4200\TFT240x320.cydsn\TFT.c **** 		e2 = err;
 340:D:\Psoc\TFT240_320_4200\TFT240x320.cydsn\TFT.c **** 		if (e2 <= y) {
 1252              		.loc 1 340 0
 1253 005c B245     		cmp	r10, r6
 1254 005e 0CDB     		blt	.L53
 341:D:\Psoc\TFT240_320_4200\TFT240x320.cydsn\TFT.c **** 			err += ++y*2+1;
 1255              		.loc 1 341 0
 1256 0060 0123     		movs	r3, #1
 1257 0062 9C46     		mov	ip, r3
 1258 0064 E244     		add	r10, r10, ip
 1259              	.LVL192:
 1260 0066 5346     		mov	r3, r10
 1261 0068 5B00     		lsls	r3, r3, #1
 1262 006a 0133     		adds	r3, r3, #1
 1263 006c F318     		adds	r3, r6, r3
 1264              	.LVL193:
 342:D:\Psoc\TFT240_320_4200\TFT240x320.cydsn\TFT.c **** 			if (-x == y && e2 <= x) e2 = 0;
 1265              		.loc 1 342 0
 1266 006e 7A42     		rsbs	r2, r7, #0
 1267 0070 9245     		cmp	r10, r2
 1268 0072 05D1     		bne	.L50
 1269              		.loc 1 342 0 is_stmt 0 discriminator 1
 1270 0074 B742     		cmp	r7, r6
 1271 0076 02DA     		bge	.L54
 1272 0078 02E0     		b	.L50
 1273              	.LVL194:
 1274              	.L53:
 1275 007a 3300     		movs	r3, r6
 1276 007c 00E0     		b	.L50
 1277              	.LVL195:
 1278              	.L54:
 1279              		.loc 1 342 0
 1280 007e 0026     		movs	r6, #0
 1281              	.LVL196:
 1282              	.L50:
 343:D:\Psoc\TFT240_320_4200\TFT240x320.cydsn\TFT.c **** 		}
 344:D:\Psoc\TFT240_320_4200\TFT240x320.cydsn\TFT.c **** 		if (e2 > x) err += ++x*2+1;
 1283              		.loc 1 344 0 is_stmt 1
 1284 0080 B742     		cmp	r7, r6
 1285 0082 04DA     		bge	.L55
 1286              		.loc 1 344 0 is_stmt 0 discriminator 1
 1287 0084 0137     		adds	r7, r7, #1
 1288              	.LVL197:
 1289 0086 7E00     		lsls	r6, r7, #1
 1290              	.LVL198:
 1291 0088 0136     		adds	r6, r6, #1
 1292 008a 9E19     		adds	r6, r3, r6
 1293              	.LVL199:
 1294 008c 00E0     		b	.L51
 1295              	.LVL200:
 1296              	.L55:
 1297 008e 1E00     		movs	r6, r3
 1298              	.LVL201:
 1299              	.L51:
 345:D:\Psoc\TFT240_320_4200\TFT240x320.cydsn\TFT.c **** 	} while (x <= 0);
ARM GAS  C:\Users\Kayas\AppData\Local\Temp\ccpxl0Kp.s 			page 30


 1300              		.loc 1 345 0 is_stmt 1
 1301 0090 002F     		cmp	r7, #0
 1302 0092 C6DD     		ble	.L52
 346:D:\Psoc\TFT240_320_4200\TFT240x320.cydsn\TFT.c **** }
 1303              		.loc 1 346 0
 1304 0094 04B0     		add	sp, sp, #16
 1305              		@ sp needed
 1306              	.LVL202:
 1307              	.LVL203:
 1308              	.LVL204:
 1309              	.LVL205:
 1310 0096 1CBC     		pop	{r2, r3, r4}
 1311 0098 9046     		mov	r8, r2
 1312 009a 9A46     		mov	r10, r3
 1313 009c A346     		mov	fp, r4
 1314 009e F0BD     		pop	{r4, r5, r6, r7, pc}
 1315              		.cfi_endproc
 1316              	.LFE77:
 1317              		.size	TFT_FillCircle, .-TFT_FillCircle
 1318              		.section	.text.TFT_SetOrientation,"ax",%progbits
 1319              		.align	2
 1320              		.global	TFT_SetOrientation
 1321              		.code	16
 1322              		.thumb_func
 1323              		.type	TFT_SetOrientation, %function
 1324              	TFT_SetOrientation:
 1325              	.LFB78:
 347:D:\Psoc\TFT240_320_4200\TFT240x320.cydsn\TFT.c **** //*************************************************************************************
 348:D:\Psoc\TFT240_320_4200\TFT240x320.cydsn\TFT.c **** void TFT_SetOrientation(uint8_t orient)
 349:D:\Psoc\TFT240_320_4200\TFT240x320.cydsn\TFT.c **** {
 1326              		.loc 1 349 0
 1327              		.cfi_startproc
 1328              		@ args = 0, pretend = 0, frame = 0
 1329              		@ frame_needed = 0, uses_anonymous_args = 0
 1330              	.LVL206:
 1331 0000 10B5     		push	{r4, lr}
 1332              		.cfi_def_cfa_offset 8
 1333              		.cfi_offset 4, -8
 1334              		.cfi_offset 14, -4
 1335 0002 0400     		movs	r4, r0
 350:D:\Psoc\TFT240_320_4200\TFT240x320.cydsn\TFT.c **** 	TFT_SendCMD(0x36);
 1336              		.loc 1 350 0
 1337 0004 3620     		movs	r0, #54
 1338              	.LVL207:
 1339 0006 FFF7FEFF 		bl	TFT_SendCMD
 1340              	.LVL208:
 351:D:\Psoc\TFT240_320_4200\TFT240x320.cydsn\TFT.c **** 	switch (orient)
 1341              		.loc 1 351 0
 1342 000a 012C     		cmp	r4, #1
 1343 000c 0AD0     		beq	.L58
 1344 000e 002C     		cmp	r4, #0
 1345 0010 04D0     		beq	.L59
 1346 0012 022C     		cmp	r4, #2
 1347 0014 0AD0     		beq	.L60
 1348 0016 032C     		cmp	r4, #3
 1349 0018 0CD0     		beq	.L61
 1350 001a 0EE0     		b	.L57
ARM GAS  C:\Users\Kayas\AppData\Local\Temp\ccpxl0Kp.s 			page 31


 1351              	.L59:
 352:D:\Psoc\TFT240_320_4200\TFT240x320.cydsn\TFT.c **** 	{
 353:D:\Psoc\TFT240_320_4200\TFT240x320.cydsn\TFT.c **** 		case 0: TFT_WriteData(0x48);
 1352              		.loc 1 353 0
 1353 001c 4820     		movs	r0, #72
 1354 001e FFF7FEFF 		bl	TFT_WriteData
 1355              	.LVL209:
 354:D:\Psoc\TFT240_320_4200\TFT240x320.cydsn\TFT.c **** 				break;
 1356              		.loc 1 354 0
 1357 0022 0AE0     		b	.L57
 1358              	.L58:
 355:D:\Psoc\TFT240_320_4200\TFT240x320.cydsn\TFT.c **** 		case 1: TFT_WriteData(0x28);
 1359              		.loc 1 355 0
 1360 0024 2820     		movs	r0, #40
 1361 0026 FFF7FEFF 		bl	TFT_WriteData
 1362              	.LVL210:
 356:D:\Psoc\TFT240_320_4200\TFT240x320.cydsn\TFT.c **** 				break;
 1363              		.loc 1 356 0
 1364 002a 06E0     		b	.L57
 1365              	.L60:
 357:D:\Psoc\TFT240_320_4200\TFT240x320.cydsn\TFT.c **** 		case 2: TFT_WriteData(0x88);
 1366              		.loc 1 357 0
 1367 002c 8820     		movs	r0, #136
 1368 002e FFF7FEFF 		bl	TFT_WriteData
 1369              	.LVL211:
 358:D:\Psoc\TFT240_320_4200\TFT240x320.cydsn\TFT.c **** 				break;
 1370              		.loc 1 358 0
 1371 0032 02E0     		b	.L57
 1372              	.L61:
 359:D:\Psoc\TFT240_320_4200\TFT240x320.cydsn\TFT.c **** 		case 3: TFT_WriteData(0xE8);
 1373              		.loc 1 359 0
 1374 0034 E820     		movs	r0, #232
 1375 0036 FFF7FEFF 		bl	TFT_WriteData
 1376              	.LVL212:
 1377              	.L57:
 360:D:\Psoc\TFT240_320_4200\TFT240x320.cydsn\TFT.c **** 				break;
 361:D:\Psoc\TFT240_320_4200\TFT240x320.cydsn\TFT.c **** 	}
 362:D:\Psoc\TFT240_320_4200\TFT240x320.cydsn\TFT.c **** 	if (orient == 0 || orient == 2)
 1378              		.loc 1 362 0
 1379 003a 002C     		cmp	r4, #0
 1380 003c 01D0     		beq	.L62
 1381              		.loc 1 362 0 is_stmt 0 discriminator 1
 1382 003e 022C     		cmp	r4, #2
 1383 0040 05D1     		bne	.L63
 1384              	.L62:
 363:D:\Psoc\TFT240_320_4200\TFT240x320.cydsn\TFT.c **** 	{ MAX_X = 128; MAX_Y = 160;	}
 1385              		.loc 1 363 0 is_stmt 1
 1386 0042 064B     		ldr	r3, .L65
 1387 0044 8022     		movs	r2, #128
 1388 0046 1A80     		strh	r2, [r3]
 1389 0048 2032     		adds	r2, r2, #32
 1390 004a 5A80     		strh	r2, [r3, #2]
 1391 004c 04E0     		b	.L56
 1392              	.L63:
 364:D:\Psoc\TFT240_320_4200\TFT240x320.cydsn\TFT.c **** 	else
 365:D:\Psoc\TFT240_320_4200\TFT240x320.cydsn\TFT.c **** 	{ MAX_X = 160;	MAX_Y = 128;}
 1393              		.loc 1 365 0
ARM GAS  C:\Users\Kayas\AppData\Local\Temp\ccpxl0Kp.s 			page 32


 1394 004e 034B     		ldr	r3, .L65
 1395 0050 A022     		movs	r2, #160
 1396 0052 1A80     		strh	r2, [r3]
 1397 0054 203A     		subs	r2, r2, #32
 1398 0056 5A80     		strh	r2, [r3, #2]
 1399              	.L56:
 366:D:\Psoc\TFT240_320_4200\TFT240x320.cydsn\TFT.c **** }
 1400              		.loc 1 366 0
 1401              		@ sp needed
 1402 0058 10BD     		pop	{r4, pc}
 1403              	.L66:
 1404 005a C046     		.align	2
 1405              	.L65:
 1406 005c 00000000 		.word	.LANCHOR0
 1407              		.cfi_endproc
 1408              	.LFE78:
 1409              		.size	TFT_SetOrientation, .-TFT_SetOrientation
 1410              		.section	.text.TFT_Init,"ax",%progbits
 1411              		.align	2
 1412              		.global	TFT_Init
 1413              		.code	16
 1414              		.thumb_func
 1415              		.type	TFT_Init, %function
 1416              	TFT_Init:
 1417              	.LFB63:
  37:D:\Psoc\TFT240_320_4200\TFT240x320.cydsn\TFT.c ****     rst_Write(0);
 1418              		.loc 1 37 0
 1419              		.cfi_startproc
 1420              		@ args = 0, pretend = 0, frame = 0
 1421              		@ frame_needed = 0, uses_anonymous_args = 0
 1422              	.LVL213:
 1423 0000 10B5     		push	{r4, lr}
 1424              		.cfi_def_cfa_offset 8
 1425              		.cfi_offset 4, -8
 1426              		.cfi_offset 14, -4
 1427 0002 0400     		movs	r4, r0
  38:D:\Psoc\TFT240_320_4200\TFT240x320.cydsn\TFT.c ****     CyDelay(10);
 1428              		.loc 1 38 0
 1429 0004 0020     		movs	r0, #0
 1430              	.LVL214:
 1431 0006 FFF7FEFF 		bl	rst_Write
 1432              	.LVL215:
  39:D:\Psoc\TFT240_320_4200\TFT240x320.cydsn\TFT.c ****     rst_Write(1);
 1433              		.loc 1 39 0
 1434 000a 0A20     		movs	r0, #10
 1435 000c FFF7FEFF 		bl	CyDelay
 1436              	.LVL216:
  40:D:\Psoc\TFT240_320_4200\TFT240x320.cydsn\TFT.c **** TFT_SendCMD  (0x01);
 1437              		.loc 1 40 0
 1438 0010 0120     		movs	r0, #1
 1439 0012 FFF7FEFF 		bl	rst_Write
 1440              	.LVL217:
  41:D:\Psoc\TFT240_320_4200\TFT240x320.cydsn\TFT.c **** CyDelay(100);
 1441              		.loc 1 41 0
 1442 0016 0120     		movs	r0, #1
 1443 0018 FFF7FEFF 		bl	TFT_SendCMD
 1444              	.LVL218:
ARM GAS  C:\Users\Kayas\AppData\Local\Temp\ccpxl0Kp.s 			page 33


  42:D:\Psoc\TFT240_320_4200\TFT240x320.cydsn\TFT.c **** //************* Start Initial Sequence **********//
 1445              		.loc 1 42 0
 1446 001c 6420     		movs	r0, #100
 1447 001e FFF7FEFF 		bl	CyDelay
 1448              	.LVL219:
  45:D:\Psoc\TFT240_320_4200\TFT240x320.cydsn\TFT.c **** TFT_WriteData(0x39);
 1449              		.loc 1 45 0
 1450 0022 CB20     		movs	r0, #203
 1451 0024 FFF7FEFF 		bl	TFT_SendCMD
 1452              	.LVL220:
  46:D:\Psoc\TFT240_320_4200\TFT240x320.cydsn\TFT.c **** TFT_WriteData(0x2C);
 1453              		.loc 1 46 0
 1454 0028 3920     		movs	r0, #57
 1455 002a FFF7FEFF 		bl	TFT_WriteData
 1456              	.LVL221:
  47:D:\Psoc\TFT240_320_4200\TFT240x320.cydsn\TFT.c **** TFT_WriteData(0x00);
 1457              		.loc 1 47 0
 1458 002e 2C20     		movs	r0, #44
 1459 0030 FFF7FEFF 		bl	TFT_WriteData
 1460              	.LVL222:
  48:D:\Psoc\TFT240_320_4200\TFT240x320.cydsn\TFT.c **** TFT_WriteData(-0x34);
 1461              		.loc 1 48 0
 1462 0034 0020     		movs	r0, #0
 1463 0036 FFF7FEFF 		bl	TFT_WriteData
 1464              	.LVL223:
  49:D:\Psoc\TFT240_320_4200\TFT240x320.cydsn\TFT.c **** TFT_WriteData(0x02);
 1465              		.loc 1 49 0
 1466 003a CC20     		movs	r0, #204
 1467 003c FFF7FEFF 		bl	TFT_WriteData
 1468              	.LVL224:
  50:D:\Psoc\TFT240_320_4200\TFT240x320.cydsn\TFT.c **** 
 1469              		.loc 1 50 0
 1470 0040 0220     		movs	r0, #2
 1471 0042 FFF7FEFF 		bl	TFT_WriteData
 1472              	.LVL225:
  53:D:\Psoc\TFT240_320_4200\TFT240x320.cydsn\TFT.c **** TFT_WriteData(0x00);
 1473              		.loc 1 53 0
 1474 0046 CF20     		movs	r0, #207
 1475 0048 FFF7FEFF 		bl	TFT_SendCMD
 1476              	.LVL226:
  54:D:\Psoc\TFT240_320_4200\TFT240x320.cydsn\TFT.c **** TFT_WriteData(0XC1);
 1477              		.loc 1 54 0
 1478 004c 0020     		movs	r0, #0
 1479 004e FFF7FEFF 		bl	TFT_WriteData
 1480              	.LVL227:
  55:D:\Psoc\TFT240_320_4200\TFT240x320.cydsn\TFT.c **** TFT_WriteData(0X30);
 1481              		.loc 1 55 0
 1482 0052 C120     		movs	r0, #193
 1483 0054 FFF7FEFF 		bl	TFT_WriteData
 1484              	.LVL228:
  56:D:\Psoc\TFT240_320_4200\TFT240x320.cydsn\TFT.c **** 
 1485              		.loc 1 56 0
 1486 0058 3020     		movs	r0, #48
 1487 005a FFF7FEFF 		bl	TFT_WriteData
 1488              	.LVL229:
  59:D:\Psoc\TFT240_320_4200\TFT240x320.cydsn\TFT.c **** TFT_WriteData(0x85);
 1489              		.loc 1 59 0
ARM GAS  C:\Users\Kayas\AppData\Local\Temp\ccpxl0Kp.s 			page 34


 1490 005e E820     		movs	r0, #232
 1491 0060 FFF7FEFF 		bl	TFT_SendCMD
 1492              	.LVL230:
  60:D:\Psoc\TFT240_320_4200\TFT240x320.cydsn\TFT.c **** TFT_WriteData(0x00);
 1493              		.loc 1 60 0
 1494 0064 8520     		movs	r0, #133
 1495 0066 FFF7FEFF 		bl	TFT_WriteData
 1496              	.LVL231:
  61:D:\Psoc\TFT240_320_4200\TFT240x320.cydsn\TFT.c **** TFT_WriteData(0x78);
 1497              		.loc 1 61 0
 1498 006a 0020     		movs	r0, #0
 1499 006c FFF7FEFF 		bl	TFT_WriteData
 1500              	.LVL232:
  62:D:\Psoc\TFT240_320_4200\TFT240x320.cydsn\TFT.c **** 
 1501              		.loc 1 62 0
 1502 0070 7820     		movs	r0, #120
 1503 0072 FFF7FEFF 		bl	TFT_WriteData
 1504              	.LVL233:
  65:D:\Psoc\TFT240_320_4200\TFT240x320.cydsn\TFT.c **** TFT_WriteData(0x00);
 1505              		.loc 1 65 0
 1506 0076 EA20     		movs	r0, #234
 1507 0078 FFF7FEFF 		bl	TFT_SendCMD
 1508              	.LVL234:
  66:D:\Psoc\TFT240_320_4200\TFT240x320.cydsn\TFT.c **** TFT_WriteData(0x00);
 1509              		.loc 1 66 0
 1510 007c 0020     		movs	r0, #0
 1511 007e FFF7FEFF 		bl	TFT_WriteData
 1512              	.LVL235:
  67:D:\Psoc\TFT240_320_4200\TFT240x320.cydsn\TFT.c **** 
 1513              		.loc 1 67 0
 1514 0082 0020     		movs	r0, #0
 1515 0084 FFF7FEFF 		bl	TFT_WriteData
 1516              	.LVL236:
  70:D:\Psoc\TFT240_320_4200\TFT240x320.cydsn\TFT.c **** TFT_WriteData(0x64);
 1517              		.loc 1 70 0
 1518 0088 ED20     		movs	r0, #237
 1519 008a FFF7FEFF 		bl	TFT_SendCMD
 1520              	.LVL237:
  71:D:\Psoc\TFT240_320_4200\TFT240x320.cydsn\TFT.c **** TFT_WriteData(0x03);
 1521              		.loc 1 71 0
 1522 008e 6420     		movs	r0, #100
 1523 0090 FFF7FEFF 		bl	TFT_WriteData
 1524              	.LVL238:
  72:D:\Psoc\TFT240_320_4200\TFT240x320.cydsn\TFT.c **** TFT_WriteData(0X12);
 1525              		.loc 1 72 0
 1526 0094 0320     		movs	r0, #3
 1527 0096 FFF7FEFF 		bl	TFT_WriteData
 1528              	.LVL239:
  73:D:\Psoc\TFT240_320_4200\TFT240x320.cydsn\TFT.c **** TFT_WriteData(0X81);
 1529              		.loc 1 73 0
 1530 009a 1220     		movs	r0, #18
 1531 009c FFF7FEFF 		bl	TFT_WriteData
 1532              	.LVL240:
  74:D:\Psoc\TFT240_320_4200\TFT240x320.cydsn\TFT.c **** 
 1533              		.loc 1 74 0
 1534 00a0 8120     		movs	r0, #129
 1535 00a2 FFF7FEFF 		bl	TFT_WriteData
ARM GAS  C:\Users\Kayas\AppData\Local\Temp\ccpxl0Kp.s 			page 35


 1536              	.LVL241:
  77:D:\Psoc\TFT240_320_4200\TFT240x320.cydsn\TFT.c **** TFT_WriteData(0x20);
 1537              		.loc 1 77 0
 1538 00a6 F720     		movs	r0, #247
 1539 00a8 FFF7FEFF 		bl	TFT_SendCMD
 1540              	.LVL242:
  78:D:\Psoc\TFT240_320_4200\TFT240x320.cydsn\TFT.c **** 
 1541              		.loc 1 78 0
 1542 00ac 2020     		movs	r0, #32
 1543 00ae FFF7FEFF 		bl	TFT_WriteData
 1544              	.LVL243:
  81:D:\Psoc\TFT240_320_4200\TFT240x320.cydsn\TFT.c **** TFT_WriteData(0x23);
 1545              		.loc 1 81 0
 1546 00b2 C020     		movs	r0, #192
 1547 00b4 FFF7FEFF 		bl	TFT_SendCMD
 1548              	.LVL244:
  82:D:\Psoc\TFT240_320_4200\TFT240x320.cydsn\TFT.c **** 
 1549              		.loc 1 82 0
 1550 00b8 2320     		movs	r0, #35
 1551 00ba FFF7FEFF 		bl	TFT_WriteData
 1552              	.LVL245:
  85:D:\Psoc\TFT240_320_4200\TFT240x320.cydsn\TFT.c **** TFT_WriteData(0x10);
 1553              		.loc 1 85 0
 1554 00be C120     		movs	r0, #193
 1555 00c0 FFF7FEFF 		bl	TFT_SendCMD
 1556              	.LVL246:
  86:D:\Psoc\TFT240_320_4200\TFT240x320.cydsn\TFT.c **** 
 1557              		.loc 1 86 0
 1558 00c4 1020     		movs	r0, #16
 1559 00c6 FFF7FEFF 		bl	TFT_WriteData
 1560              	.LVL247:
  89:D:\Psoc\TFT240_320_4200\TFT240x320.cydsn\TFT.c **** TFT_WriteData(0x2B);
 1561              		.loc 1 89 0
 1562 00ca C520     		movs	r0, #197
 1563 00cc FFF7FEFF 		bl	TFT_SendCMD
 1564              	.LVL248:
  90:D:\Psoc\TFT240_320_4200\TFT240x320.cydsn\TFT.c **** TFT_WriteData(0x2B);
 1565              		.loc 1 90 0
 1566 00d0 2B20     		movs	r0, #43
 1567 00d2 FFF7FEFF 		bl	TFT_WriteData
 1568              	.LVL249:
  91:D:\Psoc\TFT240_320_4200\TFT240x320.cydsn\TFT.c **** 
 1569              		.loc 1 91 0
 1570 00d6 2B20     		movs	r0, #43
 1571 00d8 FFF7FEFF 		bl	TFT_WriteData
 1572              	.LVL250:
  94:D:\Psoc\TFT240_320_4200\TFT240x320.cydsn\TFT.c **** 
 1573              		.loc 1 94 0
 1574 00dc 2000     		movs	r0, r4
 1575 00de FFF7FEFF 		bl	TFT_SetOrientation
 1576              	.LVL251:
  97:D:\Psoc\TFT240_320_4200\TFT240x320.cydsn\TFT.c **** TFT_WriteData(0x00);
 1577              		.loc 1 97 0
 1578 00e2 B120     		movs	r0, #177
 1579 00e4 FFF7FEFF 		bl	TFT_SendCMD
 1580              	.LVL252:
  98:D:\Psoc\TFT240_320_4200\TFT240x320.cydsn\TFT.c **** TFT_WriteData(0x1B);	// 10
ARM GAS  C:\Users\Kayas\AppData\Local\Temp\ccpxl0Kp.s 			page 36


 1581              		.loc 1 98 0
 1582 00e8 0020     		movs	r0, #0
 1583 00ea FFF7FEFF 		bl	TFT_WriteData
 1584              	.LVL253:
  99:D:\Psoc\TFT240_320_4200\TFT240x320.cydsn\TFT.c **** 
 1585              		.loc 1 99 0
 1586 00ee 1B20     		movs	r0, #27
 1587 00f0 FFF7FEFF 		bl	TFT_WriteData
 1588              	.LVL254:
 102:D:\Psoc\TFT240_320_4200\TFT240x320.cydsn\TFT.c **** TFT_WriteData(0x0A);
 1589              		.loc 1 102 0
 1590 00f4 B620     		movs	r0, #182
 1591 00f6 FFF7FEFF 		bl	TFT_SendCMD
 1592              	.LVL255:
 103:D:\Psoc\TFT240_320_4200\TFT240x320.cydsn\TFT.c **** TFT_WriteData(0x02);	// A2
 1593              		.loc 1 103 0
 1594 00fa 0A20     		movs	r0, #10
 1595 00fc FFF7FEFF 		bl	TFT_WriteData
 1596              	.LVL256:
 104:D:\Psoc\TFT240_320_4200\TFT240x320.cydsn\TFT.c **** 
 1597              		.loc 1 104 0
 1598 0100 0220     		movs	r0, #2
 1599 0102 FFF7FEFF 		bl	TFT_WriteData
 1600              	.LVL257:
 107:D:\Psoc\TFT240_320_4200\TFT240x320.cydsn\TFT.c **** TFT_WriteData(0x02);  //off
 1601              		.loc 1 107 0
 1602 0106 F220     		movs	r0, #242
 1603 0108 FFF7FEFF 		bl	TFT_SendCMD
 1604              	.LVL258:
 108:D:\Psoc\TFT240_320_4200\TFT240x320.cydsn\TFT.c **** 
 1605              		.loc 1 108 0
 1606 010c 0220     		movs	r0, #2
 1607 010e FFF7FEFF 		bl	TFT_WriteData
 1608              	.LVL259:
 112:D:\Psoc\TFT240_320_4200\TFT240x320.cydsn\TFT.c **** TFT_WriteData(0x05);
 1609              		.loc 1 112 0
 1610 0112 3A20     		movs	r0, #58
 1611 0114 FFF7FEFF 		bl	TFT_SendCMD
 1612              	.LVL260:
 113:D:\Psoc\TFT240_320_4200\TFT240x320.cydsn\TFT.c **** 
 1613              		.loc 1 113 0
 1614 0118 0520     		movs	r0, #5
 1615 011a FFF7FEFF 		bl	TFT_WriteData
 1616              	.LVL261:
 116:D:\Psoc\TFT240_320_4200\TFT240x320.cydsn\TFT.c **** TFT_WriteData(0x01);
 1617              		.loc 1 116 0
 1618 011e 2620     		movs	r0, #38
 1619 0120 FFF7FEFF 		bl	TFT_SendCMD
 1620              	.LVL262:
 117:D:\Psoc\TFT240_320_4200\TFT240x320.cydsn\TFT.c **** 
 1621              		.loc 1 117 0
 1622 0124 0120     		movs	r0, #1
 1623 0126 FFF7FEFF 		bl	TFT_WriteData
 1624              	.LVL263:
 120:D:\Psoc\TFT240_320_4200\TFT240x320.cydsn\TFT.c **** TFT_WriteData(0x0F);
 1625              		.loc 1 120 0
 1626 012a E020     		movs	r0, #224
ARM GAS  C:\Users\Kayas\AppData\Local\Temp\ccpxl0Kp.s 			page 37


 1627 012c FFF7FEFF 		bl	TFT_SendCMD
 1628              	.LVL264:
 121:D:\Psoc\TFT240_320_4200\TFT240x320.cydsn\TFT.c **** TFT_WriteData(0x31);
 1629              		.loc 1 121 0
 1630 0130 0F20     		movs	r0, #15
 1631 0132 FFF7FEFF 		bl	TFT_WriteData
 1632              	.LVL265:
 122:D:\Psoc\TFT240_320_4200\TFT240x320.cydsn\TFT.c **** TFT_WriteData(0x2B);
 1633              		.loc 1 122 0
 1634 0136 3120     		movs	r0, #49
 1635 0138 FFF7FEFF 		bl	TFT_WriteData
 1636              	.LVL266:
 123:D:\Psoc\TFT240_320_4200\TFT240x320.cydsn\TFT.c **** TFT_WriteData(0x0C);
 1637              		.loc 1 123 0
 1638 013c 2B20     		movs	r0, #43
 1639 013e FFF7FEFF 		bl	TFT_WriteData
 1640              	.LVL267:
 124:D:\Psoc\TFT240_320_4200\TFT240x320.cydsn\TFT.c **** TFT_WriteData(0x0E);
 1641              		.loc 1 124 0
 1642 0142 0C20     		movs	r0, #12
 1643 0144 FFF7FEFF 		bl	TFT_WriteData
 1644              	.LVL268:
 125:D:\Psoc\TFT240_320_4200\TFT240x320.cydsn\TFT.c **** TFT_WriteData(0x08);
 1645              		.loc 1 125 0
 1646 0148 0E20     		movs	r0, #14
 1647 014a FFF7FEFF 		bl	TFT_WriteData
 1648              	.LVL269:
 126:D:\Psoc\TFT240_320_4200\TFT240x320.cydsn\TFT.c **** TFT_WriteData(0x4E);
 1649              		.loc 1 126 0
 1650 014e 0820     		movs	r0, #8
 1651 0150 FFF7FEFF 		bl	TFT_WriteData
 1652              	.LVL270:
 127:D:\Psoc\TFT240_320_4200\TFT240x320.cydsn\TFT.c **** TFT_WriteData(0xF1);
 1653              		.loc 1 127 0
 1654 0154 4E20     		movs	r0, #78
 1655 0156 FFF7FEFF 		bl	TFT_WriteData
 1656              	.LVL271:
 128:D:\Psoc\TFT240_320_4200\TFT240x320.cydsn\TFT.c **** TFT_WriteData(0x37);
 1657              		.loc 1 128 0
 1658 015a F120     		movs	r0, #241
 1659 015c FFF7FEFF 		bl	TFT_WriteData
 1660              	.LVL272:
 129:D:\Psoc\TFT240_320_4200\TFT240x320.cydsn\TFT.c **** TFT_WriteData(0x07);
 1661              		.loc 1 129 0
 1662 0160 3720     		movs	r0, #55
 1663 0162 FFF7FEFF 		bl	TFT_WriteData
 1664              	.LVL273:
 130:D:\Psoc\TFT240_320_4200\TFT240x320.cydsn\TFT.c **** TFT_WriteData(0x10);
 1665              		.loc 1 130 0
 1666 0166 0720     		movs	r0, #7
 1667 0168 FFF7FEFF 		bl	TFT_WriteData
 1668              	.LVL274:
 131:D:\Psoc\TFT240_320_4200\TFT240x320.cydsn\TFT.c **** TFT_WriteData(0x03);
 1669              		.loc 1 131 0
 1670 016c 1020     		movs	r0, #16
 1671 016e FFF7FEFF 		bl	TFT_WriteData
 1672              	.LVL275:
ARM GAS  C:\Users\Kayas\AppData\Local\Temp\ccpxl0Kp.s 			page 38


 132:D:\Psoc\TFT240_320_4200\TFT240x320.cydsn\TFT.c **** TFT_WriteData(0x0E);
 1673              		.loc 1 132 0
 1674 0172 0320     		movs	r0, #3
 1675 0174 FFF7FEFF 		bl	TFT_WriteData
 1676              	.LVL276:
 133:D:\Psoc\TFT240_320_4200\TFT240x320.cydsn\TFT.c **** TFT_WriteData(0x09);
 1677              		.loc 1 133 0
 1678 0178 0E20     		movs	r0, #14
 1679 017a FFF7FEFF 		bl	TFT_WriteData
 1680              	.LVL277:
 134:D:\Psoc\TFT240_320_4200\TFT240x320.cydsn\TFT.c **** TFT_WriteData(0x00);
 1681              		.loc 1 134 0
 1682 017e 0920     		movs	r0, #9
 1683 0180 FFF7FEFF 		bl	TFT_WriteData
 1684              	.LVL278:
 135:D:\Psoc\TFT240_320_4200\TFT240x320.cydsn\TFT.c **** 
 1685              		.loc 1 135 0
 1686 0184 0020     		movs	r0, #0
 1687 0186 FFF7FEFF 		bl	TFT_WriteData
 1688              	.LVL279:
 138:D:\Psoc\TFT240_320_4200\TFT240x320.cydsn\TFT.c **** TFT_WriteData(0x00);
 1689              		.loc 1 138 0
 1690 018a E120     		movs	r0, #225
 1691 018c FFF7FEFF 		bl	TFT_SendCMD
 1692              	.LVL280:
 139:D:\Psoc\TFT240_320_4200\TFT240x320.cydsn\TFT.c **** TFT_WriteData(0x0E);
 1693              		.loc 1 139 0
 1694 0190 0020     		movs	r0, #0
 1695 0192 FFF7FEFF 		bl	TFT_WriteData
 1696              	.LVL281:
 140:D:\Psoc\TFT240_320_4200\TFT240x320.cydsn\TFT.c **** TFT_WriteData(0x14);
 1697              		.loc 1 140 0
 1698 0196 0E20     		movs	r0, #14
 1699 0198 FFF7FEFF 		bl	TFT_WriteData
 1700              	.LVL282:
 141:D:\Psoc\TFT240_320_4200\TFT240x320.cydsn\TFT.c **** TFT_WriteData(0x03);
 1701              		.loc 1 141 0
 1702 019c 1420     		movs	r0, #20
 1703 019e FFF7FEFF 		bl	TFT_WriteData
 1704              	.LVL283:
 142:D:\Psoc\TFT240_320_4200\TFT240x320.cydsn\TFT.c **** TFT_WriteData(0x11);
 1705              		.loc 1 142 0
 1706 01a2 0320     		movs	r0, #3
 1707 01a4 FFF7FEFF 		bl	TFT_WriteData
 1708              	.LVL284:
 143:D:\Psoc\TFT240_320_4200\TFT240x320.cydsn\TFT.c **** TFT_WriteData(0x07);
 1709              		.loc 1 143 0
 1710 01a8 1120     		movs	r0, #17
 1711 01aa FFF7FEFF 		bl	TFT_WriteData
 1712              	.LVL285:
 144:D:\Psoc\TFT240_320_4200\TFT240x320.cydsn\TFT.c **** TFT_WriteData(0x31);
 1713              		.loc 1 144 0
 1714 01ae 0720     		movs	r0, #7
 1715 01b0 FFF7FEFF 		bl	TFT_WriteData
 1716              	.LVL286:
 145:D:\Psoc\TFT240_320_4200\TFT240x320.cydsn\TFT.c **** TFT_WriteData(0xC1);
 1717              		.loc 1 145 0
ARM GAS  C:\Users\Kayas\AppData\Local\Temp\ccpxl0Kp.s 			page 39


 1718 01b4 3120     		movs	r0, #49
 1719 01b6 FFF7FEFF 		bl	TFT_WriteData
 1720              	.LVL287:
 146:D:\Psoc\TFT240_320_4200\TFT240x320.cydsn\TFT.c **** TFT_WriteData(0x48);
 1721              		.loc 1 146 0
 1722 01ba C120     		movs	r0, #193
 1723 01bc FFF7FEFF 		bl	TFT_WriteData
 1724              	.LVL288:
 147:D:\Psoc\TFT240_320_4200\TFT240x320.cydsn\TFT.c **** TFT_WriteData(0x08);
 1725              		.loc 1 147 0
 1726 01c0 4820     		movs	r0, #72
 1727 01c2 FFF7FEFF 		bl	TFT_WriteData
 1728              	.LVL289:
 148:D:\Psoc\TFT240_320_4200\TFT240x320.cydsn\TFT.c **** TFT_WriteData(0x0F);
 1729              		.loc 1 148 0
 1730 01c6 0820     		movs	r0, #8
 1731 01c8 FFF7FEFF 		bl	TFT_WriteData
 1732              	.LVL290:
 149:D:\Psoc\TFT240_320_4200\TFT240x320.cydsn\TFT.c **** TFT_WriteData(0x0C);
 1733              		.loc 1 149 0
 1734 01cc 0F20     		movs	r0, #15
 1735 01ce FFF7FEFF 		bl	TFT_WriteData
 1736              	.LVL291:
 150:D:\Psoc\TFT240_320_4200\TFT240x320.cydsn\TFT.c **** TFT_WriteData(0x31);
 1737              		.loc 1 150 0
 1738 01d2 0C20     		movs	r0, #12
 1739 01d4 FFF7FEFF 		bl	TFT_WriteData
 1740              	.LVL292:
 151:D:\Psoc\TFT240_320_4200\TFT240x320.cydsn\TFT.c **** TFT_WriteData(0x36);
 1741              		.loc 1 151 0
 1742 01d8 3120     		movs	r0, #49
 1743 01da FFF7FEFF 		bl	TFT_WriteData
 1744              	.LVL293:
 152:D:\Psoc\TFT240_320_4200\TFT240x320.cydsn\TFT.c **** TFT_WriteData(0x0F);
 1745              		.loc 1 152 0
 1746 01de 3620     		movs	r0, #54
 1747 01e0 FFF7FEFF 		bl	TFT_WriteData
 1748              	.LVL294:
 153:D:\Psoc\TFT240_320_4200\TFT240x320.cydsn\TFT.c **** // Sleep Out
 1749              		.loc 1 153 0
 1750 01e4 0F20     		movs	r0, #15
 1751 01e6 FFF7FEFF 		bl	TFT_WriteData
 1752              	.LVL295:
 155:D:\Psoc\TFT240_320_4200\TFT240x320.cydsn\TFT.c **** CyDelay(120);
 1753              		.loc 1 155 0
 1754 01ea 1120     		movs	r0, #17
 1755 01ec FFF7FEFF 		bl	TFT_SendCMD
 1756              	.LVL296:
 156:D:\Psoc\TFT240_320_4200\TFT240x320.cydsn\TFT.c **** //Display On
 1757              		.loc 1 156 0
 1758 01f0 7820     		movs	r0, #120
 1759 01f2 FFF7FEFF 		bl	CyDelay
 1760              	.LVL297:
 158:D:\Psoc\TFT240_320_4200\TFT240x320.cydsn\TFT.c **** }
 1761              		.loc 1 158 0
 1762 01f6 2920     		movs	r0, #41
 1763 01f8 FFF7FEFF 		bl	TFT_SendCMD
ARM GAS  C:\Users\Kayas\AppData\Local\Temp\ccpxl0Kp.s 			page 40


 1764              	.LVL298:
 159:D:\Psoc\TFT240_320_4200\TFT240x320.cydsn\TFT.c **** //*************************************************************************************
 1765              		.loc 1 159 0
 1766              		@ sp needed
 1767 01fc 10BD     		pop	{r4, pc}
 1768              		.cfi_endproc
 1769              	.LFE63:
 1770              		.size	TFT_Init, .-TFT_Init
 1771 01fe C046     		.section	.text.drawChar,"ax",%progbits
 1772              		.align	2
 1773              		.global	drawChar
 1774              		.code	16
 1775              		.thumb_func
 1776              		.type	drawChar, %function
 1777              	drawChar:
 1778              	.LFB79:
 367:D:\Psoc\TFT240_320_4200\TFT240x320.cydsn\TFT.c **** 
 368:D:\Psoc\TFT240_320_4200\TFT240x320.cydsn\TFT.c **** 
 369:D:\Psoc\TFT240_320_4200\TFT240x320.cydsn\TFT.c **** void drawChar(unsigned char c,int16_t x, int16_t y, uint8_t size,uint16_t color)
 370:D:\Psoc\TFT240_320_4200\TFT240x320.cydsn\TFT.c **** {
 1779              		.loc 1 370 0
 1780              		.cfi_startproc
 1781              		@ args = 4, pretend = 0, frame = 8
 1782              		@ frame_needed = 0, uses_anonymous_args = 0
 1783              	.LVL299:
 1784 0000 F0B5     		push	{r4, r5, r6, r7, lr}
 1785              		.cfi_def_cfa_offset 20
 1786              		.cfi_offset 4, -20
 1787              		.cfi_offset 5, -16
 1788              		.cfi_offset 6, -12
 1789              		.cfi_offset 7, -8
 1790              		.cfi_offset 14, -4
 1791 0002 5746     		mov	r7, r10
 1792 0004 4E46     		mov	r6, r9
 1793 0006 4546     		mov	r5, r8
 1794 0008 E0B4     		push	{r5, r6, r7}
 1795              		.cfi_def_cfa_offset 32
 1796              		.cfi_offset 8, -32
 1797              		.cfi_offset 9, -28
 1798              		.cfi_offset 10, -24
 1799 000a 84B0     		sub	sp, sp, #16
 1800              		.cfi_def_cfa_offset 48
 1801 000c 8146     		mov	r9, r0
 1802 000e 0F00     		movs	r7, r1
 1803 0010 9246     		mov	r10, r2
 1804 0012 9846     		mov	r8, r3
 1805 0014 0CAB     		add	r3, sp, #48
 1806              	.LVL300:
 1807 0016 1B88     		ldrh	r3, [r3]
 1808              	.LVL301:
 1809 0018 0393     		str	r3, [sp, #12]
 1810              	.LVL302:
 371:D:\Psoc\TFT240_320_4200\TFT240x320.cydsn\TFT.c ****     uint16_t bg=color;
 372:D:\Psoc\TFT240_320_4200\TFT240x320.cydsn\TFT.c ****   if((x >= MAX_X)		|| // Clip right
 1811              		.loc 1 372 0
 1812 001a 284B     		ldr	r3, .L78
 1813 001c 1B88     		ldrh	r3, [r3]
ARM GAS  C:\Users\Kayas\AppData\Local\Temp\ccpxl0Kp.s 			page 41


 1814 001e 9942     		cmp	r1, r3
 1815 0020 45DA     		bge	.L68
 373:D:\Psoc\TFT240_320_4200\TFT240x320.cydsn\TFT.c ****      (y >= MAX_Y)		|| // Clip bottom
 1816              		.loc 1 373 0 discriminator 1
 1817 0022 264B     		ldr	r3, .L78
 1818 0024 5B88     		ldrh	r3, [r3, #2]
 372:D:\Psoc\TFT240_320_4200\TFT240x320.cydsn\TFT.c ****      (y >= MAX_Y)		|| // Clip bottom
 1819              		.loc 1 372 0 discriminator 1
 1820 0026 9A42     		cmp	r2, r3
 1821 0028 41DA     		bge	.L68
 374:D:\Psoc\TFT240_320_4200\TFT240x320.cydsn\TFT.c ****      ((x + 6 * size - 1) < 0)	|| // Clip left
 1822              		.loc 1 374 0
 1823 002a 4346     		mov	r3, r8
 1824 002c 5A00     		lsls	r2, r3, #1
 1825              	.LVL303:
 1826 002e 4244     		add	r2, r2, r8
 1827 0030 5300     		lsls	r3, r2, #1
 1828 0032 CB18     		adds	r3, r1, r3
 373:D:\Psoc\TFT240_320_4200\TFT240x320.cydsn\TFT.c ****      (y >= MAX_Y)		|| // Clip bottom
 1829              		.loc 1 373 0
 1830 0034 012B     		cmp	r3, #1
 1831 0036 3AD4     		bmi	.L68
 375:D:\Psoc\TFT240_320_4200\TFT240x320.cydsn\TFT.c ****      ((y + 8 * size - 1) < 0))     // Clip top
 1832              		.loc 1 375 0
 1833 0038 4346     		mov	r3, r8
 1834 003a DB00     		lsls	r3, r3, #3
 1835 003c 5344     		add	r3, r3, r10
 374:D:\Psoc\TFT240_320_4200\TFT240x320.cydsn\TFT.c ****      ((x + 6 * size - 1) < 0)	|| // Clip left
 1836              		.loc 1 374 0
 1837 003e 012B     		cmp	r3, #1
 1838 0040 35D4     		bmi	.L68
 1839 0042 0026     		movs	r6, #0
 1840 0044 31E0     		b	.L70
 1841              	.LVL304:
 1842              	.L76:
 1843              	.LBB2:
 1844              	.LBB3:
 376:D:\Psoc\TFT240_320_4200\TFT240x320.cydsn\TFT.c ****     return;
 377:D:\Psoc\TFT240_320_4200\TFT240x320.cydsn\TFT.c **** 
 378:D:\Psoc\TFT240_320_4200\TFT240x320.cydsn\TFT.c ****   for (int8_t i=0; i<6; i++ ) {
 379:D:\Psoc\TFT240_320_4200\TFT240x320.cydsn\TFT.c ****     uint8_t line;
 380:D:\Psoc\TFT240_320_4200\TFT240x320.cydsn\TFT.c ****     if (i == 5) 
 1845              		.loc 1 380 0
 1846 0046 052E     		cmp	r6, #5
 1847 0048 06D0     		beq	.L77
 381:D:\Psoc\TFT240_320_4200\TFT240x320.cydsn\TFT.c ****       line = 0x0;
 382:D:\Psoc\TFT240_320_4200\TFT240x320.cydsn\TFT.c ****     else 
 383:D:\Psoc\TFT240_320_4200\TFT240x320.cydsn\TFT.c ****       line = pgm_read_byte(font+(c*5)+i);
 1848              		.loc 1 383 0
 1849 004a 4B46     		mov	r3, r9
 1850 004c 9B00     		lsls	r3, r3, #2
 1851 004e 4B44     		add	r3, r3, r9
 1852 0050 9B19     		adds	r3, r3, r6
 1853 0052 1B4A     		ldr	r2, .L78+4
 1854 0054 D55C     		ldrb	r5, [r2, r3]
 1855              	.LVL305:
 1856 0056 00E0     		b	.L71
ARM GAS  C:\Users\Kayas\AppData\Local\Temp\ccpxl0Kp.s 			page 42


 1857              	.LVL306:
 1858              	.L77:
 381:D:\Psoc\TFT240_320_4200\TFT240x320.cydsn\TFT.c ****       line = 0x0;
 1859              		.loc 1 381 0
 1860 0058 0025     		movs	r5, #0
 1861              	.L71:
 381:D:\Psoc\TFT240_320_4200\TFT240x320.cydsn\TFT.c ****       line = 0x0;
 1862              		.loc 1 381 0 is_stmt 0 discriminator 1
 1863 005a 0024     		movs	r4, #0
 1864 005c 21E0     		b	.L72
 1865              	.LVL307:
 1866              	.L75:
 1867              	.LBB4:
 384:D:\Psoc\TFT240_320_4200\TFT240x320.cydsn\TFT.c ****     for (int8_t j = 0; j<8; j++) {
 385:D:\Psoc\TFT240_320_4200\TFT240x320.cydsn\TFT.c ****       if (line & 0x1) {
 1868              		.loc 1 385 0 is_stmt 1
 1869 005e EB07     		lsls	r3, r5, #31
 1870 0060 1CD5     		bpl	.L73
 386:D:\Psoc\TFT240_320_4200\TFT240x320.cydsn\TFT.c ****         if (size == 1) // default size
 1871              		.loc 1 386 0
 1872 0062 4346     		mov	r3, r8
 1873 0064 012B     		cmp	r3, #1
 1874 0066 08D1     		bne	.L74
 387:D:\Psoc\TFT240_320_4200\TFT240x320.cydsn\TFT.c ****           TFT_SetPixel( y+j,x+i, color);
 1875              		.loc 1 387 0
 1876 0068 F119     		adds	r1, r6, r7
 1877 006a 89B2     		uxth	r1, r1
 1878 006c 5346     		mov	r3, r10
 1879 006e E018     		adds	r0, r4, r3
 1880 0070 80B2     		uxth	r0, r0
 1881 0072 039A     		ldr	r2, [sp, #12]
 1882 0074 FFF7FEFF 		bl	TFT_SetPixel
 1883              	.LVL308:
 1884 0078 10E0     		b	.L73
 1885              	.L74:
 388:D:\Psoc\TFT240_320_4200\TFT240x320.cydsn\TFT.c ****         else {  // big size
 389:D:\Psoc\TFT240_320_4200\TFT240x320.cydsn\TFT.c ****           TFT_FillRectangle( y+(j*size), x+(i*size),size, size, 0xffff);
 1886              		.loc 1 389 0
 1887 007a 4346     		mov	r3, r8
 1888 007c 6A46     		mov	r2, sp
 1889 007e 5381     		strh	r3, [r2, #10]
 1890 0080 5289     		ldrh	r2, [r2, #10]
 1891 0082 3100     		movs	r1, r6
 1892 0084 5143     		muls	r1, r2
 1893 0086 C919     		adds	r1, r1, r7
 1894 0088 89B2     		uxth	r1, r1
 1895 008a 2000     		movs	r0, r4
 1896 008c 5043     		muls	r0, r2
 1897 008e 5044     		add	r0, r0, r10
 1898 0090 80B2     		uxth	r0, r0
 1899 0092 0C4B     		ldr	r3, .L78+8
 1900 0094 0093     		str	r3, [sp]
 1901 0096 1300     		movs	r3, r2
 1902 0098 FFF7FEFF 		bl	TFT_FillRectangle
 1903              	.LVL309:
 1904              	.L73:
 390:D:\Psoc\TFT240_320_4200\TFT240x320.cydsn\TFT.c ****         } 
ARM GAS  C:\Users\Kayas\AppData\Local\Temp\ccpxl0Kp.s 			page 43


 391:D:\Psoc\TFT240_320_4200\TFT240x320.cydsn\TFT.c ****       } else if (bg != color) {
 392:D:\Psoc\TFT240_320_4200\TFT240x320.cydsn\TFT.c ****         if (size == 1) // default size
 393:D:\Psoc\TFT240_320_4200\TFT240x320.cydsn\TFT.c ****           TFT_SetPixel(x+i, y+j, color);
 394:D:\Psoc\TFT240_320_4200\TFT240x320.cydsn\TFT.c ****         else {  // big size
 395:D:\Psoc\TFT240_320_4200\TFT240x320.cydsn\TFT.c ****           TFT_FillRectangle(x+i*size, y+j*size, size, size, bg);
 396:D:\Psoc\TFT240_320_4200\TFT240x320.cydsn\TFT.c ****         } 	
 397:D:\Psoc\TFT240_320_4200\TFT240x320.cydsn\TFT.c ****       }
 398:D:\Psoc\TFT240_320_4200\TFT240x320.cydsn\TFT.c ****       line >>= 1;
 1905              		.loc 1 398 0 discriminator 2
 1906 009c 6D08     		lsrs	r5, r5, #1
 1907              	.LVL310:
 384:D:\Psoc\TFT240_320_4200\TFT240x320.cydsn\TFT.c ****       if (line & 0x1) {
 1908              		.loc 1 384 0 discriminator 2
 1909 009e 0134     		adds	r4, r4, #1
 1910              	.LVL311:
 1911 00a0 64B2     		sxtb	r4, r4
 1912              	.LVL312:
 1913              	.L72:
 384:D:\Psoc\TFT240_320_4200\TFT240x320.cydsn\TFT.c ****       if (line & 0x1) {
 1914              		.loc 1 384 0 is_stmt 0 discriminator 1
 1915 00a2 072C     		cmp	r4, #7
 1916 00a4 DBDD     		ble	.L75
 1917              	.LBE4:
 1918              	.LBE3:
 378:D:\Psoc\TFT240_320_4200\TFT240x320.cydsn\TFT.c ****     uint8_t line;
 1919              		.loc 1 378 0 is_stmt 1 discriminator 2
 1920 00a6 0136     		adds	r6, r6, #1
 1921              	.LVL313:
 1922 00a8 76B2     		sxtb	r6, r6
 1923              	.LVL314:
 1924              	.L70:
 378:D:\Psoc\TFT240_320_4200\TFT240x320.cydsn\TFT.c ****     uint8_t line;
 1925              		.loc 1 378 0 is_stmt 0 discriminator 1
 1926 00aa 052E     		cmp	r6, #5
 1927 00ac CBDD     		ble	.L76
 1928              	.LVL315:
 1929              	.L68:
 1930              	.LBE2:
 399:D:\Psoc\TFT240_320_4200\TFT240x320.cydsn\TFT.c ****     }
 400:D:\Psoc\TFT240_320_4200\TFT240x320.cydsn\TFT.c ****   }
 401:D:\Psoc\TFT240_320_4200\TFT240x320.cydsn\TFT.c **** }
 1931              		.loc 1 401 0 is_stmt 1
 1932 00ae 04B0     		add	sp, sp, #16
 1933              		@ sp needed
 1934 00b0 1CBC     		pop	{r2, r3, r4}
 1935 00b2 9046     		mov	r8, r2
 1936 00b4 9946     		mov	r9, r3
 1937 00b6 A246     		mov	r10, r4
 1938 00b8 F0BD     		pop	{r4, r5, r6, r7, pc}
 1939              	.L79:
 1940 00ba C046     		.align	2
 1941              	.L78:
 1942 00bc 00000000 		.word	.LANCHOR0
 1943 00c0 00000000 		.word	.LANCHOR1
 1944 00c4 FFFF0000 		.word	65535
 1945              		.cfi_endproc
 1946              	.LFE79:
ARM GAS  C:\Users\Kayas\AppData\Local\Temp\ccpxl0Kp.s 			page 44


 1947              		.size	drawChar, .-drawChar
 1948              		.section	.text.DrawString,"ax",%progbits
 1949              		.align	2
 1950              		.global	DrawString
 1951              		.code	16
 1952              		.thumb_func
 1953              		.type	DrawString, %function
 1954              	DrawString:
 1955              	.LFB80:
 402:D:\Psoc\TFT240_320_4200\TFT240x320.cydsn\TFT.c **** 
 403:D:\Psoc\TFT240_320_4200\TFT240x320.cydsn\TFT.c **** void DrawString(char *string,uint16_t poX, uint16_t poY, uint16_t size,uint16_t fgcolor)
 404:D:\Psoc\TFT240_320_4200\TFT240x320.cydsn\TFT.c **** {
 1956              		.loc 1 404 0
 1957              		.cfi_startproc
 1958              		@ args = 4, pretend = 0, frame = 8
 1959              		@ frame_needed = 0, uses_anonymous_args = 0
 1960              	.LVL316:
 1961 0000 F0B5     		push	{r4, r5, r6, r7, lr}
 1962              		.cfi_def_cfa_offset 20
 1963              		.cfi_offset 4, -20
 1964              		.cfi_offset 5, -16
 1965              		.cfi_offset 6, -12
 1966              		.cfi_offset 7, -8
 1967              		.cfi_offset 14, -4
 1968 0002 4746     		mov	r7, r8
 1969 0004 80B4     		push	{r7}
 1970              		.cfi_def_cfa_offset 24
 1971              		.cfi_offset 8, -24
 1972 0006 84B0     		sub	sp, sp, #16
 1973              		.cfi_def_cfa_offset 40
 1974 0008 0400     		movs	r4, r0
 1975 000a 0F00     		movs	r7, r1
 1976 000c 1600     		movs	r6, r2
 1977 000e 1D00     		movs	r5, r3
 1978 0010 0AAB     		add	r3, sp, #40
 1979              	.LVL317:
 1980 0012 1B88     		ldrh	r3, [r3]
 1981              	.LVL318:
 1982 0014 9846     		mov	r8, r3
 405:D:\Psoc\TFT240_320_4200\TFT240x320.cydsn\TFT.c **** 	while(*string)
 1983              		.loc 1 405 0
 1984 0016 23E0     		b	.L81
 1985              	.LVL319:
 1986              	.L84:
 406:D:\Psoc\TFT240_320_4200\TFT240x320.cydsn\TFT.c **** 	{
 407:D:\Psoc\TFT240_320_4200\TFT240x320.cydsn\TFT.c **** 		 if (*string == '\n') {
 1987              		.loc 1 407 0
 1988 0018 0A28     		cmp	r0, #10
 1989 001a 04D1     		bne	.L82
 408:D:\Psoc\TFT240_320_4200\TFT240x320.cydsn\TFT.c ****     poY += size*8;
 1990              		.loc 1 408 0
 1991 001c EB00     		lsls	r3, r5, #3
 1992 001e F618     		adds	r6, r6, r3
 1993              	.LVL320:
 1994 0020 B6B2     		uxth	r6, r6
 1995              	.LVL321:
 409:D:\Psoc\TFT240_320_4200\TFT240x320.cydsn\TFT.c ****     poX = 0;
ARM GAS  C:\Users\Kayas\AppData\Local\Temp\ccpxl0Kp.s 			page 45


 1996              		.loc 1 409 0
 1997 0022 0027     		movs	r7, #0
 1998 0024 1BE0     		b	.L83
 1999              	.LVL322:
 2000              	.L82:
 410:D:\Psoc\TFT240_320_4200\TFT240x320.cydsn\TFT.c ****   } else if (*string == '\r') {
 2001              		.loc 1 410 0
 2002 0026 0D28     		cmp	r0, #13
 2003 0028 19D0     		beq	.L83
 411:D:\Psoc\TFT240_320_4200\TFT240x320.cydsn\TFT.c ****     // skip em
 412:D:\Psoc\TFT240_320_4200\TFT240x320.cydsn\TFT.c ****   } else {
 413:D:\Psoc\TFT240_320_4200\TFT240x320.cydsn\TFT.c ****     drawChar(*string, poY, poX, size, fgcolor);
 2004              		.loc 1 413 0
 2005 002a EBB2     		uxtb	r3, r5
 2006 002c 0393     		str	r3, [sp, #12]
 2007 002e 3AB2     		sxth	r2, r7
 2008 0030 31B2     		sxth	r1, r6
 2009 0032 4346     		mov	r3, r8
 2010 0034 0093     		str	r3, [sp]
 2011 0036 039B     		ldr	r3, [sp, #12]
 2012 0038 FFF7FEFF 		bl	drawChar
 2013              	.LVL323:
 414:D:\Psoc\TFT240_320_4200\TFT240x320.cydsn\TFT.c ****     //drawChar(cursor_x, cursor_y, c, textcolor, textbgcolor, textsize);
 415:D:\Psoc\TFT240_320_4200\TFT240x320.cydsn\TFT.c ****     poY += size*6;
 2014              		.loc 1 415 0
 2015 003c 6A00     		lsls	r2, r5, #1
 2016 003e AA18     		adds	r2, r5, r2
 2017 0040 5300     		lsls	r3, r2, #1
 2018 0042 F618     		adds	r6, r6, r3
 2019              	.LVL324:
 2020 0044 B6B2     		uxth	r6, r6
 2021              	.LVL325:
 416:D:\Psoc\TFT240_320_4200\TFT240x320.cydsn\TFT.c ****     
 417:D:\Psoc\TFT240_320_4200\TFT240x320.cydsn\TFT.c ****     if ((poX > (MAX_X - size*6))) {
 2022              		.loc 1 417 0
 2023 0046 AA00     		lsls	r2, r5, #2
 2024 0048 AA1A     		subs	r2, r5, r2
 2025 004a 5300     		lsls	r3, r2, #1
 2026 004c 084A     		ldr	r2, .L85
 2027 004e 1288     		ldrh	r2, [r2]
 2028 0050 D318     		adds	r3, r2, r3
 2029 0052 9F42     		cmp	r7, r3
 2030 0054 03DD     		ble	.L83
 418:D:\Psoc\TFT240_320_4200\TFT240x320.cydsn\TFT.c ****       poX += size*8;
 2031              		.loc 1 418 0
 2032 0056 EB00     		lsls	r3, r5, #3
 2033 0058 FF18     		adds	r7, r7, r3
 2034              	.LVL326:
 2035 005a BFB2     		uxth	r7, r7
 2036              	.LVL327:
 419:D:\Psoc\TFT240_320_4200\TFT240x320.cydsn\TFT.c ****       poY = 0;
 2037              		.loc 1 419 0
 2038 005c 0026     		movs	r6, #0
 2039              	.LVL328:
 2040              	.L83:
 420:D:\Psoc\TFT240_320_4200\TFT240x320.cydsn\TFT.c **** 		
 421:D:\Psoc\TFT240_320_4200\TFT240x320.cydsn\TFT.c **** 		//drawChar(*string, poX, poY, size, fgcolor);
ARM GAS  C:\Users\Kayas\AppData\Local\Temp\ccpxl0Kp.s 			page 46


 422:D:\Psoc\TFT240_320_4200\TFT240x320.cydsn\TFT.c **** 		
 423:D:\Psoc\TFT240_320_4200\TFT240x320.cydsn\TFT.c **** 	}
 424:D:\Psoc\TFT240_320_4200\TFT240x320.cydsn\TFT.c ****     
 425:D:\Psoc\TFT240_320_4200\TFT240x320.cydsn\TFT.c **** }
 426:D:\Psoc\TFT240_320_4200\TFT240x320.cydsn\TFT.c **** string++;
 2041              		.loc 1 426 0
 2042 005e 0134     		adds	r4, r4, #1
 2043              	.LVL329:
 2044              	.L81:
 405:D:\Psoc\TFT240_320_4200\TFT240x320.cydsn\TFT.c **** 	{
 2045              		.loc 1 405 0
 2046 0060 2078     		ldrb	r0, [r4]
 2047 0062 0028     		cmp	r0, #0
 2048 0064 D8D1     		bne	.L84
 427:D:\Psoc\TFT240_320_4200\TFT240x320.cydsn\TFT.c **** }
 428:D:\Psoc\TFT240_320_4200\TFT240x320.cydsn\TFT.c **** }
 2049              		.loc 1 428 0
 2050 0066 04B0     		add	sp, sp, #16
 2051              		@ sp needed
 2052              	.LVL330:
 2053              	.LVL331:
 2054              	.LVL332:
 2055 0068 04BC     		pop	{r2}
 2056 006a 9046     		mov	r8, r2
 2057 006c F0BD     		pop	{r4, r5, r6, r7, pc}
 2058              	.L86:
 2059 006e C046     		.align	2
 2060              	.L85:
 2061 0070 00000000 		.word	.LANCHOR0
 2062              		.cfi_endproc
 2063              	.LFE80:
 2064              		.size	DrawString, .-DrawString
 2065              		.section	.text.TFT_DrawChar,"ax",%progbits
 2066              		.align	2
 2067              		.global	TFT_DrawChar
 2068              		.code	16
 2069              		.thumb_func
 2070              		.type	TFT_DrawChar, %function
 2071              	TFT_DrawChar:
 2072              	.LFB81:
 429:D:\Psoc\TFT240_320_4200\TFT240x320.cydsn\TFT.c **** //*************************************************************************************
 430:D:\Psoc\TFT240_320_4200\TFT240x320.cydsn\TFT.c **** void TFT_DrawChar( uint8_t ascii, uint16_t poX, uint16_t poY,uint16_t size, uint16_t fgcolor)
 431:D:\Psoc\TFT240_320_4200\TFT240x320.cydsn\TFT.c **** {
 2073              		.loc 1 431 0
 2074              		.cfi_startproc
 2075              		@ args = 4, pretend = 0, frame = 8
 2076              		@ frame_needed = 0, uses_anonymous_args = 0
 2077              	.LVL333:
 2078 0000 F0B5     		push	{r4, r5, r6, r7, lr}
 2079              		.cfi_def_cfa_offset 20
 2080              		.cfi_offset 4, -20
 2081              		.cfi_offset 5, -16
 2082              		.cfi_offset 6, -12
 2083              		.cfi_offset 7, -8
 2084              		.cfi_offset 14, -4
 2085 0002 5F46     		mov	r7, fp
 2086 0004 5646     		mov	r6, r10
ARM GAS  C:\Users\Kayas\AppData\Local\Temp\ccpxl0Kp.s 			page 47


 2087 0006 4D46     		mov	r5, r9
 2088 0008 4446     		mov	r4, r8
 2089 000a F0B4     		push	{r4, r5, r6, r7}
 2090              		.cfi_def_cfa_offset 36
 2091              		.cfi_offset 8, -36
 2092              		.cfi_offset 9, -32
 2093              		.cfi_offset 10, -28
 2094              		.cfi_offset 11, -24
 2095 000c 85B0     		sub	sp, sp, #20
 2096              		.cfi_def_cfa_offset 56
 2097 000e 8346     		mov	fp, r0
 2098 0010 8946     		mov	r9, r1
 2099 0012 9246     		mov	r10, r2
 2100 0014 1E00     		movs	r6, r3
 2101 0016 0EAB     		add	r3, sp, #56
 2102              	.LVL334:
 2103 0018 1B88     		ldrh	r3, [r3]
 2104              	.LVL335:
 2105 001a 0393     		str	r3, [sp, #12]
 2106              	.LVL336:
 432:D:\Psoc\TFT240_320_4200\TFT240x320.cydsn\TFT.c **** 	int i = 0;   uint8_t f =0 ;
 433:D:\Psoc\TFT240_320_4200\TFT240x320.cydsn\TFT.c **** 	uint8_t temp=0, k;
 434:D:\Psoc\TFT240_320_4200\TFT240x320.cydsn\TFT.c **** 	if((ascii>=32)&&(ascii<=255))	{;}
 2107              		.loc 1 434 0
 2108 001c 1F28     		cmp	r0, #31
 2109 001e 01D8     		bhi	.L88
 435:D:\Psoc\TFT240_320_4200\TFT240x320.cydsn\TFT.c **** 	else	{ascii = '?'-32;}
 2110              		.loc 1 435 0
 2111 0020 1F23     		movs	r3, #31
 2112 0022 9B46     		mov	fp, r3
 2113              	.L88:
 2114              	.LVL337:
 433:D:\Psoc\TFT240_320_4200\TFT240x320.cydsn\TFT.c **** 	if((ascii>=32)&&(ascii<=255))	{;}
 2115              		.loc 1 433 0
 2116 0024 0023     		movs	r3, #0
 2117 0026 9846     		mov	r8, r3
 436:D:\Psoc\TFT240_320_4200\TFT240x320.cydsn\TFT.c **** 	
 437:D:\Psoc\TFT240_320_4200\TFT240x320.cydsn\TFT.c **** 	for (i = 0; i < FONT_X; i++ ) 
 2118              		.loc 1 437 0
 2119 0028 0027     		movs	r7, #0
 2120 002a 52E0     		b	.L89
 2121              	.LVL338:
 2122              	.L96:
 438:D:\Psoc\TFT240_320_4200\TFT240x320.cydsn\TFT.c **** 	{
 439:D:\Psoc\TFT240_320_4200\TFT240x320.cydsn\TFT.c **** 		if ((ascii >= 0x20) && (ascii <= 0x7F))
 2123              		.loc 1 439 0
 2124 002c 5B46     		mov	r3, fp
 2125 002e 203B     		subs	r3, r3, #32
 2126 0030 DBB2     		uxtb	r3, r3
 2127 0032 5F2B     		cmp	r3, #95
 2128 0034 09D8     		bhi	.L90
 440:D:\Psoc\TFT240_320_4200\TFT240x320.cydsn\TFT.c **** 		{
 441:D:\Psoc\TFT240_320_4200\TFT240x320.cydsn\TFT.c **** 			temp = (Font16x16[ascii-0x20][i]);// temp = (&Font16x16[ascii-0x20][i]);
 2129              		.loc 1 441 0
 2130 0036 5B46     		mov	r3, fp
 2131 0038 203B     		subs	r3, r3, #32
 2132 003a 1B01     		lsls	r3, r3, #4
ARM GAS  C:\Users\Kayas\AppData\Local\Temp\ccpxl0Kp.s 			page 48


 2133 003c 294A     		ldr	r2, .L98
 2134 003e D318     		adds	r3, r2, r3
 2135 0040 DB19     		adds	r3, r3, r7
 2136 0042 7C22     		movs	r2, #124
 2137 0044 9B5C     		ldrb	r3, [r3, r2]
 2138 0046 9846     		mov	r8, r3
 2139              	.LVL339:
 2140 0048 0AE0     		b	.L91
 2141              	.L90:
 442:D:\Psoc\TFT240_320_4200\TFT240x320.cydsn\TFT.c **** 		}
 443:D:\Psoc\TFT240_320_4200\TFT240x320.cydsn\TFT.c **** 		else if ( ascii >= 0xC0 )
 2142              		.loc 1 443 0
 2143 004a 5B46     		mov	r3, fp
 2144 004c BF2B     		cmp	r3, #191
 2145 004e 07D9     		bls	.L91
 444:D:\Psoc\TFT240_320_4200\TFT240x320.cydsn\TFT.c **** 		{
 445:D:\Psoc\TFT240_320_4200\TFT240x320.cydsn\TFT.c **** 			temp = (Font16x16[ascii-0x65][i]);//  temp = (&Font16x16[ascii-0x65][i]);+++++++++++++++++++
 2146              		.loc 1 445 0
 2147 0050 653B     		subs	r3, r3, #101
 2148 0052 1B01     		lsls	r3, r3, #4
 2149 0054 234A     		ldr	r2, .L98
 2150 0056 D318     		adds	r3, r2, r3
 2151 0058 DB19     		adds	r3, r3, r7
 2152 005a 7C22     		movs	r2, #124
 2153 005c 9B5C     		ldrb	r3, [r3, r2]
 2154 005e 9846     		mov	r8, r3
 2155              	.LVL340:
 2156              	.L91:
 446:D:\Psoc\TFT240_320_4200\TFT240x320.cydsn\TFT.c **** 		}
 447:D:\Psoc\TFT240_320_4200\TFT240x320.cydsn\TFT.c **** 		k=i / 8;
 2157              		.loc 1 447 0
 2158 0060 FB17     		asrs	r3, r7, #31
 2159 0062 0725     		movs	r5, #7
 2160 0064 1D40     		ands	r5, r3
 2161 0066 ED19     		adds	r5, r5, r7
 2162 0068 ED10     		asrs	r5, r5, #3
 2163 006a EDB2     		uxtb	r5, r5
 2164              	.LVL341:
 448:D:\Psoc\TFT240_320_4200\TFT240x320.cydsn\TFT.c **** 		for(f =0 ; f < FONT_Y; f++)
 2165              		.loc 1 448 0
 2166 006c 0024     		movs	r4, #0
 2167 006e 2B00     		movs	r3, r5
 2168 0070 4546     		mov	r5, r8
 2169              	.LVL342:
 2170 0072 9846     		mov	r8, r3
 2171              	.LVL343:
 2172 0074 29E0     		b	.L92
 2173              	.LVL344:
 2174              	.L95:
 449:D:\Psoc\TFT240_320_4200\TFT240x320.cydsn\TFT.c **** 		{
 450:D:\Psoc\TFT240_320_4200\TFT240x320.cydsn\TFT.c **** 			if((temp>>f)&0x01)
 2175              		.loc 1 450 0
 2176 0076 2B00     		movs	r3, r5
 2177 0078 2341     		asrs	r3, r3, r4
 2178 007a DB07     		lsls	r3, r3, #31
 2179 007c 23D5     		bpl	.L93
 451:D:\Psoc\TFT240_320_4200\TFT240x320.cydsn\TFT.c **** 			{
ARM GAS  C:\Users\Kayas\AppData\Local\Temp\ccpxl0Kp.s 			page 49


 452:D:\Psoc\TFT240_320_4200\TFT240x320.cydsn\TFT.c **** 				if (size == 0)TFT_SetPixel( poY+f+(k*8),poX+i-(k*8),fgcolor);
 2180              		.loc 1 452 0
 2181 007e 002E     		cmp	r6, #0
 2182 0080 0DD1     		bne	.L94
 2183              		.loc 1 452 0 is_stmt 0 discriminator 1
 2184 0082 4346     		mov	r3, r8
 2185 0084 D800     		lsls	r0, r3, #3
 2186 0086 4B46     		mov	r3, r9
 2187 0088 D919     		adds	r1, r3, r7
 2188 008a 091A     		subs	r1, r1, r0
 2189 008c 89B2     		uxth	r1, r1
 2190 008e 5346     		mov	r3, r10
 2191 0090 1B19     		adds	r3, r3, r4
 2192 0092 C018     		adds	r0, r0, r3
 2193 0094 80B2     		uxth	r0, r0
 2194 0096 039A     		ldr	r2, [sp, #12]
 2195 0098 FFF7FEFF 		bl	TFT_SetPixel
 2196              	.LVL345:
 2197 009c 13E0     		b	.L93
 2198              	.L94:
 453:D:\Psoc\TFT240_320_4200\TFT240x320.cydsn\TFT.c **** 				else TFT_FillRectangle( poY+f*size+(k*8)*size,poX+i*size-(k*8)*size, size, size, fgcolor);
 2199              		.loc 1 453 0 is_stmt 1
 2200 009e 4046     		mov	r0, r8
 2201 00a0 7043     		muls	r0, r6
 2202 00a2 C000     		lsls	r0, r0, #3
 2203 00a4 80B2     		uxth	r0, r0
 2204 00a6 3900     		movs	r1, r7
 2205 00a8 7143     		muls	r1, r6
 2206 00aa 4944     		add	r1, r1, r9
 2207 00ac 091A     		subs	r1, r1, r0
 2208 00ae 89B2     		uxth	r1, r1
 2209 00b0 2300     		movs	r3, r4
 2210 00b2 7343     		muls	r3, r6
 2211 00b4 C018     		adds	r0, r0, r3
 2212 00b6 5044     		add	r0, r0, r10
 2213 00b8 80B2     		uxth	r0, r0
 2214 00ba 039B     		ldr	r3, [sp, #12]
 2215 00bc 0093     		str	r3, [sp]
 2216 00be 3300     		movs	r3, r6
 2217 00c0 3200     		movs	r2, r6
 2218 00c2 FFF7FEFF 		bl	TFT_FillRectangle
 2219              	.LVL346:
 2220              	.L93:
 448:D:\Psoc\TFT240_320_4200\TFT240x320.cydsn\TFT.c **** 		{
 2221              		.loc 1 448 0 discriminator 2
 2222 00c6 0134     		adds	r4, r4, #1
 2223              	.LVL347:
 2224 00c8 E4B2     		uxtb	r4, r4
 2225              	.LVL348:
 2226              	.L92:
 448:D:\Psoc\TFT240_320_4200\TFT240x320.cydsn\TFT.c **** 		{
 2227              		.loc 1 448 0 is_stmt 0 discriminator 1
 2228 00ca 072C     		cmp	r4, #7
 2229 00cc D3D9     		bls	.L95
 2230 00ce A846     		mov	r8, r5
 2231              	.LVL349:
 437:D:\Psoc\TFT240_320_4200\TFT240x320.cydsn\TFT.c **** 	{
ARM GAS  C:\Users\Kayas\AppData\Local\Temp\ccpxl0Kp.s 			page 50


 2232              		.loc 1 437 0 is_stmt 1 discriminator 2
 2233 00d0 0137     		adds	r7, r7, #1
 2234              	.LVL350:
 2235              	.L89:
 437:D:\Psoc\TFT240_320_4200\TFT240x320.cydsn\TFT.c **** 	{
 2236              		.loc 1 437 0 is_stmt 0 discriminator 1
 2237 00d2 0F2F     		cmp	r7, #15
 2238 00d4 AADD     		ble	.L96
 454:D:\Psoc\TFT240_320_4200\TFT240x320.cydsn\TFT.c **** 			}
 455:D:\Psoc\TFT240_320_4200\TFT240x320.cydsn\TFT.c **** 		}
 456:D:\Psoc\TFT240_320_4200\TFT240x320.cydsn\TFT.c **** 	}
 457:D:\Psoc\TFT240_320_4200\TFT240x320.cydsn\TFT.c **** }
 2239              		.loc 1 457 0 is_stmt 1
 2240 00d6 05B0     		add	sp, sp, #20
 2241              		@ sp needed
 2242              	.LVL351:
 2243              	.LVL352:
 2244              	.LVL353:
 2245 00d8 3CBC     		pop	{r2, r3, r4, r5}
 2246 00da 9046     		mov	r8, r2
 2247 00dc 9946     		mov	r9, r3
 2248 00de A246     		mov	r10, r4
 2249 00e0 AB46     		mov	fp, r5
 2250 00e2 F0BD     		pop	{r4, r5, r6, r7, pc}
 2251              	.L99:
 2252              		.align	2
 2253              	.L98:
 2254 00e4 80040000 		.word	.LANCHOR2
 2255              		.cfi_endproc
 2256              	.LFE81:
 2257              		.size	TFT_DrawChar, .-TFT_DrawChar
 2258              		.section	.text.TFT_DrawString,"ax",%progbits
 2259              		.align	2
 2260              		.global	TFT_DrawString
 2261              		.code	16
 2262              		.thumb_func
 2263              		.type	TFT_DrawString, %function
 2264              	TFT_DrawString:
 2265              	.LFB82:
 458:D:\Psoc\TFT240_320_4200\TFT240x320.cydsn\TFT.c **** 
 459:D:\Psoc\TFT240_320_4200\TFT240x320.cydsn\TFT.c **** //*************************************************************************************
 460:D:\Psoc\TFT240_320_4200\TFT240x320.cydsn\TFT.c **** void TFT_DrawString(char *string,uint16_t poX, uint16_t poY, uint16_t size,uint16_t fgcolor)
 461:D:\Psoc\TFT240_320_4200\TFT240x320.cydsn\TFT.c **** {
 2266              		.loc 1 461 0
 2267              		.cfi_startproc
 2268              		@ args = 4, pretend = 0, frame = 0
 2269              		@ frame_needed = 0, uses_anonymous_args = 0
 2270              	.LVL354:
 2271 0000 F0B5     		push	{r4, r5, r6, r7, lr}
 2272              		.cfi_def_cfa_offset 20
 2273              		.cfi_offset 4, -20
 2274              		.cfi_offset 5, -16
 2275              		.cfi_offset 6, -12
 2276              		.cfi_offset 7, -8
 2277              		.cfi_offset 14, -4
 2278 0002 4746     		mov	r7, r8
 2279 0004 80B4     		push	{r7}
ARM GAS  C:\Users\Kayas\AppData\Local\Temp\ccpxl0Kp.s 			page 51


 2280              		.cfi_def_cfa_offset 24
 2281              		.cfi_offset 8, -24
 2282 0006 82B0     		sub	sp, sp, #8
 2283              		.cfi_def_cfa_offset 32
 2284 0008 0600     		movs	r6, r0
 2285 000a 0C00     		movs	r4, r1
 2286 000c 1700     		movs	r7, r2
 2287 000e 1D00     		movs	r5, r3
 2288 0010 08AB     		add	r3, sp, #32
 2289              	.LVL355:
 2290 0012 1B88     		ldrh	r3, [r3]
 2291              	.LVL356:
 2292 0014 9846     		mov	r8, r3
 462:D:\Psoc\TFT240_320_4200\TFT240x320.cydsn\TFT.c **** 	while(*string)
 2293              		.loc 1 462 0
 2294 0016 1EE0     		b	.L101
 2295              	.LVL357:
 2296              	.L105:
 463:D:\Psoc\TFT240_320_4200\TFT240x320.cydsn\TFT.c **** 	{
 464:D:\Psoc\TFT240_320_4200\TFT240x320.cydsn\TFT.c **** 		if((poX + FONT_SPACE) > MAX_X)
 2297              		.loc 1 464 0
 2298 0018 124B     		ldr	r3, .L106
 2299 001a 1A88     		ldrh	r2, [r3]
 2300 001c 2300     		movs	r3, r4
 2301 001e 0A33     		adds	r3, r3, #10
 2302 0020 9342     		cmp	r3, r2
 2303 0022 04DD     		ble	.L102
 2304              	.LVL358:
 465:D:\Psoc\TFT240_320_4200\TFT240x320.cydsn\TFT.c ****           
 466:D:\Psoc\TFT240_320_4200\TFT240x320.cydsn\TFT.c ****         {poX = 1; poY = poY + FONT_X*(size+1);}
 2305              		.loc 1 466 0
 2306 0024 6B1C     		adds	r3, r5, #1
 2307 0026 1B01     		lsls	r3, r3, #4
 2308 0028 FF18     		adds	r7, r7, r3
 2309              	.LVL359:
 2310 002a BFB2     		uxth	r7, r7
 2311              	.LVL360:
 2312 002c 0124     		movs	r4, #1
 2313              	.LVL361:
 2314              	.L102:
 467:D:\Psoc\TFT240_320_4200\TFT240x320.cydsn\TFT.c **** 		
 468:D:\Psoc\TFT240_320_4200\TFT240x320.cydsn\TFT.c **** 		TFT_DrawChar(*string, poX, poY, size, ~fgcolor);
 2315              		.loc 1 468 0
 2316 002e 4346     		mov	r3, r8
 2317 0030 DB43     		mvns	r3, r3
 2318 0032 9BB2     		uxth	r3, r3
 2319 0034 0093     		str	r3, [sp]
 2320 0036 2B00     		movs	r3, r5
 2321 0038 3A00     		movs	r2, r7
 2322 003a 2100     		movs	r1, r4
 2323 003c FFF7FEFF 		bl	TFT_DrawChar
 2324              	.LVL362:
 469:D:\Psoc\TFT240_320_4200\TFT240x320.cydsn\TFT.c **** 		if (size > 0) poX += FONT_SPACE*size;
 2325              		.loc 1 469 0
 2326 0040 002D     		cmp	r5, #0
 2327 0042 05D0     		beq	.L103
 2328              		.loc 1 469 0 is_stmt 0 discriminator 1
ARM GAS  C:\Users\Kayas\AppData\Local\Temp\ccpxl0Kp.s 			page 52


 2329 0044 AA00     		lsls	r2, r5, #2
 2330 0046 AA18     		adds	r2, r5, r2
 2331 0048 5300     		lsls	r3, r2, #1
 2332 004a E418     		adds	r4, r4, r3
 2333              	.LVL363:
 2334 004c A4B2     		uxth	r4, r4
 2335              	.LVL364:
 2336 004e 01E0     		b	.L104
 2337              	.L103:
 470:D:\Psoc\TFT240_320_4200\TFT240x320.cydsn\TFT.c **** 		else poX += FONT_SPACE;
 2338              		.loc 1 470 0 is_stmt 1
 2339 0050 0A34     		adds	r4, r4, #10
 2340              	.LVL365:
 2341 0052 A4B2     		uxth	r4, r4
 2342              	.LVL366:
 2343              	.L104:
 471:D:\Psoc\TFT240_320_4200\TFT240x320.cydsn\TFT.c **** 		string++;
 2344              		.loc 1 471 0
 2345 0054 0136     		adds	r6, r6, #1
 2346              	.LVL367:
 2347              	.L101:
 462:D:\Psoc\TFT240_320_4200\TFT240x320.cydsn\TFT.c **** 	{
 2348              		.loc 1 462 0
 2349 0056 3078     		ldrb	r0, [r6]
 2350 0058 0028     		cmp	r0, #0
 2351 005a DDD1     		bne	.L105
 472:D:\Psoc\TFT240_320_4200\TFT240x320.cydsn\TFT.c **** 	}
 473:D:\Psoc\TFT240_320_4200\TFT240x320.cydsn\TFT.c **** }
 2352              		.loc 1 473 0
 2353 005c 02B0     		add	sp, sp, #8
 2354              		@ sp needed
 2355              	.LVL368:
 2356              	.LVL369:
 2357              	.LVL370:
 2358 005e 04BC     		pop	{r2}
 2359 0060 9046     		mov	r8, r2
 2360 0062 F0BD     		pop	{r4, r5, r6, r7, pc}
 2361              	.L107:
 2362              		.align	2
 2363              	.L106:
 2364 0064 00000000 		.word	.LANCHOR0
 2365              		.cfi_endproc
 2366              	.LFE82:
 2367              		.size	TFT_DrawString, .-TFT_DrawString
 2368              		.section	.text.TFT_FillBitmap,"ax",%progbits
 2369              		.align	2
 2370              		.global	TFT_FillBitmap
 2371              		.code	16
 2372              		.thumb_func
 2373              		.type	TFT_FillBitmap, %function
 2374              	TFT_FillBitmap:
 2375              	.LFB83:
 474:D:\Psoc\TFT240_320_4200\TFT240x320.cydsn\TFT.c **** 
 475:D:\Psoc\TFT240_320_4200\TFT240x320.cydsn\TFT.c **** //************************************************************************************+++++++++++++
 476:D:\Psoc\TFT240_320_4200\TFT240x320.cydsn\TFT.c **** void TFT_FillBitmap(uint16_t XL, uint16_t XR, uint16_t YU, uint16_t YD, unsigned short *Bitmap)
 477:D:\Psoc\TFT240_320_4200\TFT240x320.cydsn\TFT.c **** {
 2376              		.loc 1 477 0
ARM GAS  C:\Users\Kayas\AppData\Local\Temp\ccpxl0Kp.s 			page 53


 2377              		.cfi_startproc
 2378              		@ args = 4, pretend = 0, frame = 0
 2379              		@ frame_needed = 0, uses_anonymous_args = 0
 2380              	.LVL371:
 2381 0000 F8B5     		push	{r3, r4, r5, r6, r7, lr}
 2382              		.cfi_def_cfa_offset 24
 2383              		.cfi_offset 3, -24
 2384              		.cfi_offset 4, -20
 2385              		.cfi_offset 5, -16
 2386              		.cfi_offset 6, -12
 2387              		.cfi_offset 7, -8
 2388              		.cfi_offset 14, -4
 2389 0002 1400     		movs	r4, r2
 2390 0004 1D00     		movs	r5, r3
 2391 0006 069F     		ldr	r7, [sp, #24]
 2392              	.LVL372:
 478:D:\Psoc\TFT240_320_4200\TFT240x320.cydsn\TFT.c **** 	unsigned long  XY=0;
 479:D:\Psoc\TFT240_320_4200\TFT240x320.cydsn\TFT.c **** 	unsigned long i=0;
 480:D:\Psoc\TFT240_320_4200\TFT240x320.cydsn\TFT.c **** 	XY = (XR-XL+1);
 2393              		.loc 1 480 0
 2394 0008 0E1A     		subs	r6, r1, r0
 2395 000a 731C     		adds	r3, r6, #1
 2396              	.LVL373:
 481:D:\Psoc\TFT240_320_4200\TFT240x320.cydsn\TFT.c **** 	XY = XY*(YD-YU+1);
 2397              		.loc 1 481 0
 2398 000c AE1A     		subs	r6, r5, r2
 2399 000e 0136     		adds	r6, r6, #1
 2400 0010 5E43     		muls	r6, r3
 2401              	.LVL374:
 482:D:\Psoc\TFT240_320_4200\TFT240x320.cydsn\TFT.c **** 
 483:D:\Psoc\TFT240_320_4200\TFT240x320.cydsn\TFT.c **** 	TFT_SetCol(XL,XR);
 2402              		.loc 1 483 0
 2403 0012 FFF7FEFF 		bl	TFT_SetCol
 2404              	.LVL375:
 484:D:\Psoc\TFT240_320_4200\TFT240x320.cydsn\TFT.c **** 	TFT_SetPage(YU, YD);
 2405              		.loc 1 484 0
 2406 0016 2900     		movs	r1, r5
 2407 0018 2000     		movs	r0, r4
 2408 001a FFF7FEFF 		bl	TFT_SetPage
 2409              	.LVL376:
 485:D:\Psoc\TFT240_320_4200\TFT240x320.cydsn\TFT.c **** 	TFT_SendCMD(0x2c);                     /* start to write to display ra */
 2410              		.loc 1 485 0
 2411 001e 2C20     		movs	r0, #44
 2412 0020 FFF7FEFF 		bl	TFT_SendCMD
 2413              	.LVL377:
 486:D:\Psoc\TFT240_320_4200\TFT240x320.cydsn\TFT.c **** 
 487:D:\Psoc\TFT240_320_4200\TFT240x320.cydsn\TFT.c **** 	for(i=0; i < XY; i++)
 2414              		.loc 1 487 0
 2415 0024 0025     		movs	r5, #0
 2416 0026 0CE0     		b	.L109
 2417              	.LVL378:
 2418              	.L110:
 2419              	.LBB5:
 488:D:\Psoc\TFT240_320_4200\TFT240x320.cydsn\TFT.c **** 	{										 //color[i] =( ~color[i+1]);	
 489:D:\Psoc\TFT240_320_4200\TFT240x320.cydsn\TFT.c **** 	uint8_t Hcolor = (~Bitmap[i])>>8;
 2420              		.loc 1 489 0 discriminator 3
 2421 0028 6B00     		lsls	r3, r5, #1
ARM GAS  C:\Users\Kayas\AppData\Local\Temp\ccpxl0Kp.s 			page 54


 2422 002a DB5B     		ldrh	r3, [r3, r7]
 2423 002c D843     		mvns	r0, r3
 2424 002e 0012     		asrs	r0, r0, #8
 2425 0030 C0B2     		uxtb	r0, r0
 2426              	.LVL379:
 490:D:\Psoc\TFT240_320_4200\TFT240x320.cydsn\TFT.c **** 	uint8_t Lcolor = (~Bitmap[i])&0xff;	
 2427              		.loc 1 490 0 discriminator 3
 2428 0032 DB43     		mvns	r3, r3
 2429 0034 DCB2     		uxtb	r4, r3
 2430              	.LVL380:
 491:D:\Psoc\TFT240_320_4200\TFT240x320.cydsn\TFT.c **** 		TFT_WriteData(Hcolor);
 2431              		.loc 1 491 0 discriminator 3
 2432 0036 FFF7FEFF 		bl	TFT_WriteData
 2433              	.LVL381:
 492:D:\Psoc\TFT240_320_4200\TFT240x320.cydsn\TFT.c **** 		TFT_WriteData(Lcolor);
 2434              		.loc 1 492 0 discriminator 3
 2435 003a 2000     		movs	r0, r4
 2436 003c FFF7FEFF 		bl	TFT_WriteData
 2437              	.LVL382:
 2438              	.LBE5:
 487:D:\Psoc\TFT240_320_4200\TFT240x320.cydsn\TFT.c **** 	{										 //color[i] =( ~color[i+1]);	
 2439              		.loc 1 487 0 discriminator 3
 2440 0040 0135     		adds	r5, r5, #1
 2441              	.LVL383:
 2442              	.L109:
 487:D:\Psoc\TFT240_320_4200\TFT240x320.cydsn\TFT.c **** 	{										 //color[i] =( ~color[i+1]);	
 2443              		.loc 1 487 0 is_stmt 0 discriminator 1
 2444 0042 B542     		cmp	r5, r6
 2445 0044 F0D3     		bcc	.L110
 493:D:\Psoc\TFT240_320_4200\TFT240x320.cydsn\TFT.c **** 	}
 494:D:\Psoc\TFT240_320_4200\TFT240x320.cydsn\TFT.c **** }
 2446              		.loc 1 494 0 is_stmt 1
 2447              		@ sp needed
 2448              	.LVL384:
 2449              	.LVL385:
 2450 0046 F8BD     		pop	{r3, r4, r5, r6, r7, pc}
 2451              		.cfi_endproc
 2452              	.LFE83:
 2453              		.size	TFT_FillBitmap, .-TFT_FillBitmap
 2454              		.section	.text.TFT_Graf,"ax",%progbits
 2455              		.align	2
 2456              		.global	TFT_Graf
 2457              		.code	16
 2458              		.thumb_func
 2459              		.type	TFT_Graf, %function
 2460              	TFT_Graf:
 2461              	.LFB84:
 495:D:\Psoc\TFT240_320_4200\TFT240x320.cydsn\TFT.c **** 
 496:D:\Psoc\TFT240_320_4200\TFT240x320.cydsn\TFT.c **** /*
 497:D:\Psoc\TFT240_320_4200\TFT240x320.cydsn\TFT.c **** 
 498:D:\Psoc\TFT240_320_4200\TFT240x320.cydsn\TFT.c **** void Read_SD_Pictute(uint16_t XL, uint16_t XR, uint16_t YU, uint16_t YD, unsigned short *FileName)
 499:D:\Psoc\TFT240_320_4200\TFT240x320.cydsn\TFT.c **** {
 500:D:\Psoc\TFT240_320_4200\TFT240x320.cydsn\TFT.c **** char  fp;
 501:D:\Psoc\TFT240_320_4200\TFT240x320.cydsn\TFT.c **** long  XY=0, i=0;
 502:D:\Psoc\TFT240_320_4200\TFT240x320.cydsn\TFT.c **** XY = (XR-XL+1);
 503:D:\Psoc\TFT240_320_4200\TFT240x320.cydsn\TFT.c **** XY = 2*XY*(YD-YU)+1;
 504:D:\Psoc\TFT240_320_4200\TFT240x320.cydsn\TFT.c **** TFT_SetCol(XL,XR);
ARM GAS  C:\Users\Kayas\AppData\Local\Temp\ccpxl0Kp.s 			page 55


 505:D:\Psoc\TFT240_320_4200\TFT240x320.cydsn\TFT.c **** TFT_SetPage(YU, YD);
 506:D:\Psoc\TFT240_320_4200\TFT240x320.cydsn\TFT.c **** TFT_SendCMD(0x2c);     // start to write to display ra 
 507:D:\Psoc\TFT240_320_4200\TFT240x320.cydsn\TFT.c **** fp = SDCard_fopen((uint8 *)FileName, (uint8 *)"r");
 508:D:\Psoc\TFT240_320_4200\TFT240x320.cydsn\TFT.c **** 
 509:D:\Psoc\TFT240_320_4200\TFT240x320.cydsn\TFT.c ****  while(! SDCard_feof(fp))           // Check for end of input file
 510:D:\Psoc\TFT240_320_4200\TFT240x320.cydsn\TFT.c **** {
 511:D:\Psoc\TFT240_320_4200\TFT240x320.cydsn\TFT.c **** extern uint8   SDCard_SectBuf1[];
 512:D:\Psoc\TFT240_320_4200\TFT240x320.cydsn\TFT.c **** extern uint8   SDCard_SectBuf2[];
 513:D:\Psoc\TFT240_320_4200\TFT240x320.cydsn\TFT.c **** 
 514:D:\Psoc\TFT240_320_4200\TFT240x320.cydsn\TFT.c ****   SDCard_ReadFileSect(fp);    // Read sector
 515:D:\Psoc\TFT240_320_4200\TFT240x320.cydsn\TFT.c **** 
 516:D:\Psoc\TFT240_320_4200\TFT240x320.cydsn\TFT.c **** 	for(i=0; i < 256 ; i++)
 517:D:\Psoc\TFT240_320_4200\TFT240x320.cydsn\TFT.c **** 		{	if(XY<0)  break;
 518:D:\Psoc\TFT240_320_4200\TFT240x320.cydsn\TFT.c **** 		TFT_WriteData(~SDCard_SectBuf1[i]); XY--; }
 519:D:\Psoc\TFT240_320_4200\TFT240x320.cydsn\TFT.c **** 
 520:D:\Psoc\TFT240_320_4200\TFT240x320.cydsn\TFT.c **** 	for(i=0; i < 256; i++)
 521:D:\Psoc\TFT240_320_4200\TFT240x320.cydsn\TFT.c **** 		{ 	if(XY<0)  break;
 522:D:\Psoc\TFT240_320_4200\TFT240x320.cydsn\TFT.c **** 		TFT_WriteData(~SDCard_SectBuf2[i]); XY--; }
 523:D:\Psoc\TFT240_320_4200\TFT240x320.cydsn\TFT.c **** 	
 524:D:\Psoc\TFT240_320_4200\TFT240x320.cydsn\TFT.c **** SDCard_NextSect(fp);               // Advance to next read sector
 525:D:\Psoc\TFT240_320_4200\TFT240x320.cydsn\TFT.c **** }
 526:D:\Psoc\TFT240_320_4200\TFT240x320.cydsn\TFT.c **** 	SDCard_fclose(fp); 
 527:D:\Psoc\TFT240_320_4200\TFT240x320.cydsn\TFT.c **** }
 528:D:\Psoc\TFT240_320_4200\TFT240x320.cydsn\TFT.c **** 
 529:D:\Psoc\TFT240_320_4200\TFT240x320.cydsn\TFT.c **** */
 530:D:\Psoc\TFT240_320_4200\TFT240x320.cydsn\TFT.c **** 
 531:D:\Psoc\TFT240_320_4200\TFT240x320.cydsn\TFT.c **** //----------------------------------------------------------------------------------
 532:D:\Psoc\TFT240_320_4200\TFT240x320.cydsn\TFT.c **** void TFT_Graf(uint16_t XL, uint16_t YU, uint16_t YD, char  Ydata , char last)
 533:D:\Psoc\TFT240_320_4200\TFT240x320.cydsn\TFT.c **** {
 2462              		.loc 1 533 0
 2463              		.cfi_startproc
 2464              		@ args = 4, pretend = 0, frame = 8
 2465              		@ frame_needed = 0, uses_anonymous_args = 0
 2466              	.LVL386:
 2467 0000 F0B5     		push	{r4, r5, r6, r7, lr}
 2468              		.cfi_def_cfa_offset 20
 2469              		.cfi_offset 4, -20
 2470              		.cfi_offset 5, -16
 2471              		.cfi_offset 6, -12
 2472              		.cfi_offset 7, -8
 2473              		.cfi_offset 14, -4
 2474 0002 83B0     		sub	sp, sp, #12
 2475              		.cfi_def_cfa_offset 32
 2476 0004 0E00     		movs	r6, r1
 2477 0006 1D00     		movs	r5, r3
 2478 0008 08AB     		add	r3, sp, #32
 2479              	.LVL387:
 2480 000a 1C78     		ldrb	r4, [r3]
 2481              	.LVL388:
 534:D:\Psoc\TFT240_320_4200\TFT240x320.cydsn\TFT.c **** 	unsigned long  XY=0;
 535:D:\Psoc\TFT240_320_4200\TFT240x320.cydsn\TFT.c **** 	unsigned long i=0;
 536:D:\Psoc\TFT240_320_4200\TFT240x320.cydsn\TFT.c **** //	volatile char last;
 537:D:\Psoc\TFT240_320_4200\TFT240x320.cydsn\TFT.c **** 	//XY = (XR-XL+1);
 538:D:\Psoc\TFT240_320_4200\TFT240x320.cydsn\TFT.c **** 	XY = YD-YU+1;
 2482              		.loc 1 538 0
 2483 000c 0192     		str	r2, [sp, #4]
 2484 000e 531A     		subs	r3, r2, r1
ARM GAS  C:\Users\Kayas\AppData\Local\Temp\ccpxl0Kp.s 			page 56


 2485              	.LVL389:
 2486 0010 5F1C     		adds	r7, r3, #1
 2487              	.LVL390:
 539:D:\Psoc\TFT240_320_4200\TFT240x320.cydsn\TFT.c **** 
 540:D:\Psoc\TFT240_320_4200\TFT240x320.cydsn\TFT.c **** 	TFT_SetCol(XL,XL);
 2488              		.loc 1 540 0
 2489 0012 0100     		movs	r1, r0
 2490              	.LVL391:
 2491 0014 FFF7FEFF 		bl	TFT_SetCol
 2492              	.LVL392:
 541:D:\Psoc\TFT240_320_4200\TFT240x320.cydsn\TFT.c **** 	TFT_SetPage(YU, YD);
 2493              		.loc 1 541 0
 2494 0018 0199     		ldr	r1, [sp, #4]
 2495 001a 3000     		movs	r0, r6
 2496 001c FFF7FEFF 		bl	TFT_SetPage
 2497              	.LVL393:
 542:D:\Psoc\TFT240_320_4200\TFT240x320.cydsn\TFT.c **** 	TFT_SendCMD(0x2c);                     /* start to write to display ra */
 2498              		.loc 1 542 0
 2499 0020 2C20     		movs	r0, #44
 2500 0022 FFF7FEFF 		bl	TFT_SendCMD
 2501              	.LVL394:
 543:D:\Psoc\TFT240_320_4200\TFT240x320.cydsn\TFT.c **** 
 544:D:\Psoc\TFT240_320_4200\TFT240x320.cydsn\TFT.c **** 	for(i=0; i < XY; i++)
 2502              		.loc 1 544 0
 2503 0026 0026     		movs	r6, #0
 2504 0028 16E0     		b	.L112
 2505              	.LVL395:
 2506              	.L113:
 2507              	.LBB6:
 545:D:\Psoc\TFT240_320_4200\TFT240x320.cydsn\TFT.c **** 	{										 //color[i] =( ~color[i+1]);	
 546:D:\Psoc\TFT240_320_4200\TFT240x320.cydsn\TFT.c ****    //  uint8_t Hcolor = 255*( (i<last )    );
 547:D:\Psoc\TFT240_320_4200\TFT240x320.cydsn\TFT.c **** 	//uint8_t Hcolor = ~(255*( ((i>=last)&(i<=Ydata))|((i<=last)&(i>=Ydata))  ) );
 548:D:\Psoc\TFT240_320_4200\TFT240x320.cydsn\TFT.c ****  uint8_t Hcolor =  (255*( ((i<last)|(i>Ydata))&((i>last)|(i<Ydata))  ) );
 2508              		.loc 1 548 0 discriminator 3
 2509 002a A642     		cmp	r6, r4
 2510 002c 8041     		sbcs	r0, r0, r0
 2511 002e 4042     		rsbs	r0, r0, #0
 2512 0030 B542     		cmp	r5, r6
 2513 0032 9241     		sbcs	r2, r2, r2
 2514 0034 5342     		rsbs	r3, r2, #0
 2515 0036 0343     		orrs	r3, r0
 2516 0038 B442     		cmp	r4, r6
 2517 003a 8041     		sbcs	r0, r0, r0
 2518 003c 4042     		rsbs	r0, r0, #0
 2519 003e AE42     		cmp	r6, r5
 2520 0040 9241     		sbcs	r2, r2, r2
 2521 0042 5242     		rsbs	r2, r2, #0
 2522 0044 1043     		orrs	r0, r2
 2523 0046 1840     		ands	r0, r3
 2524 0048 4042     		rsbs	r0, r0, #0
 2525 004a C0B2     		uxtb	r0, r0
 2526              	.LVL396:
 549:D:\Psoc\TFT240_320_4200\TFT240x320.cydsn\TFT.c **** 	//uint8_t Hcolor = 255*(Ydata!=i);//(~Bitmap[i])>>8;
 550:D:\Psoc\TFT240_320_4200\TFT240x320.cydsn\TFT.c **** 	uint8_t Lcolor = 128;//(~Bitmap[i])&0xff;	
 551:D:\Psoc\TFT240_320_4200\TFT240x320.cydsn\TFT.c **** 		TFT_WriteData(Hcolor);
 2527              		.loc 1 551 0 discriminator 3
 2528 004c FFF7FEFF 		bl	TFT_WriteData
ARM GAS  C:\Users\Kayas\AppData\Local\Temp\ccpxl0Kp.s 			page 57


 2529              	.LVL397:
 552:D:\Psoc\TFT240_320_4200\TFT240x320.cydsn\TFT.c **** 		TFT_WriteData(Lcolor);
 2530              		.loc 1 552 0 discriminator 3
 2531 0050 8020     		movs	r0, #128
 2532 0052 FFF7FEFF 		bl	TFT_WriteData
 2533              	.LVL398:
 2534              	.LBE6:
 544:D:\Psoc\TFT240_320_4200\TFT240x320.cydsn\TFT.c **** 	{										 //color[i] =( ~color[i+1]);	
 2535              		.loc 1 544 0 discriminator 3
 2536 0056 0136     		adds	r6, r6, #1
 2537              	.LVL399:
 2538              	.L112:
 544:D:\Psoc\TFT240_320_4200\TFT240x320.cydsn\TFT.c **** 	{										 //color[i] =( ~color[i+1]);	
 2539              		.loc 1 544 0 is_stmt 0 discriminator 1
 2540 0058 BE42     		cmp	r6, r7
 2541 005a E6D3     		bcc	.L113
 553:D:\Psoc\TFT240_320_4200\TFT240x320.cydsn\TFT.c **** 		
 554:D:\Psoc\TFT240_320_4200\TFT240x320.cydsn\TFT.c **** 		
 555:D:\Psoc\TFT240_320_4200\TFT240x320.cydsn\TFT.c **** 	}
 556:D:\Psoc\TFT240_320_4200\TFT240x320.cydsn\TFT.c **** last =Ydata;
 557:D:\Psoc\TFT240_320_4200\TFT240x320.cydsn\TFT.c **** 
 558:D:\Psoc\TFT240_320_4200\TFT240x320.cydsn\TFT.c **** }
 2542              		.loc 1 558 0 is_stmt 1
 2543 005c 03B0     		add	sp, sp, #12
 2544              		@ sp needed
 2545              	.LVL400:
 2546              	.LVL401:
 2547 005e F0BD     		pop	{r4, r5, r6, r7, pc}
 2548              		.cfi_endproc
 2549              	.LFE84:
 2550              		.size	TFT_Graf, .-TFT_Graf
 2551              		.global	MAX_Y
 2552              		.global	MAX_X
 2553              		.global	Font16x16
 2554              		.section	.rodata
 2555              		.align	2
 2556              		.set	.LANCHOR1,. + 0
 2557              		.set	.LANCHOR2,. + 1152
 2558              		.type	font, %object
 2559              		.size	font, 1275
 2560              	font:
 2561 0000 00       		.byte	0
 2562 0001 00       		.byte	0
 2563 0002 00       		.byte	0
 2564 0003 00       		.byte	0
 2565 0004 00       		.byte	0
 2566 0005 3E       		.byte	62
 2567 0006 5B       		.byte	91
 2568 0007 4F       		.byte	79
 2569 0008 5B       		.byte	91
 2570 0009 3E       		.byte	62
 2571 000a 3E       		.byte	62
 2572 000b 6B       		.byte	107
 2573 000c 4F       		.byte	79
 2574 000d 6B       		.byte	107
 2575 000e 3E       		.byte	62
 2576 000f 1C       		.byte	28
ARM GAS  C:\Users\Kayas\AppData\Local\Temp\ccpxl0Kp.s 			page 58


 2577 0010 3E       		.byte	62
 2578 0011 7C       		.byte	124
 2579 0012 3E       		.byte	62
 2580 0013 1C       		.byte	28
 2581 0014 18       		.byte	24
 2582 0015 3C       		.byte	60
 2583 0016 7E       		.byte	126
 2584 0017 3C       		.byte	60
 2585 0018 18       		.byte	24
 2586 0019 1C       		.byte	28
 2587 001a 57       		.byte	87
 2588 001b 7D       		.byte	125
 2589 001c 57       		.byte	87
 2590 001d 1C       		.byte	28
 2591 001e 1C       		.byte	28
 2592 001f 5E       		.byte	94
 2593 0020 7F       		.byte	127
 2594 0021 5E       		.byte	94
 2595 0022 1C       		.byte	28
 2596 0023 00       		.byte	0
 2597 0024 18       		.byte	24
 2598 0025 3C       		.byte	60
 2599 0026 18       		.byte	24
 2600 0027 00       		.byte	0
 2601 0028 FF       		.byte	-1
 2602 0029 E7       		.byte	-25
 2603 002a C3       		.byte	-61
 2604 002b E7       		.byte	-25
 2605 002c FF       		.byte	-1
 2606 002d 00       		.byte	0
 2607 002e 18       		.byte	24
 2608 002f 24       		.byte	36
 2609 0030 18       		.byte	24
 2610 0031 00       		.byte	0
 2611 0032 FF       		.byte	-1
 2612 0033 E7       		.byte	-25
 2613 0034 DB       		.byte	-37
 2614 0035 E7       		.byte	-25
 2615 0036 FF       		.byte	-1
 2616 0037 30       		.byte	48
 2617 0038 48       		.byte	72
 2618 0039 3A       		.byte	58
 2619 003a 06       		.byte	6
 2620 003b 0E       		.byte	14
 2621 003c 26       		.byte	38
 2622 003d 29       		.byte	41
 2623 003e 79       		.byte	121
 2624 003f 29       		.byte	41
 2625 0040 26       		.byte	38
 2626 0041 40       		.byte	64
 2627 0042 7F       		.byte	127
 2628 0043 05       		.byte	5
 2629 0044 05       		.byte	5
 2630 0045 07       		.byte	7
 2631 0046 40       		.byte	64
 2632 0047 7F       		.byte	127
 2633 0048 05       		.byte	5
ARM GAS  C:\Users\Kayas\AppData\Local\Temp\ccpxl0Kp.s 			page 59


 2634 0049 25       		.byte	37
 2635 004a 3F       		.byte	63
 2636 004b 5A       		.byte	90
 2637 004c 3C       		.byte	60
 2638 004d E7       		.byte	-25
 2639 004e 3C       		.byte	60
 2640 004f 5A       		.byte	90
 2641 0050 7F       		.byte	127
 2642 0051 3E       		.byte	62
 2643 0052 1C       		.byte	28
 2644 0053 1C       		.byte	28
 2645 0054 08       		.byte	8
 2646 0055 08       		.byte	8
 2647 0056 1C       		.byte	28
 2648 0057 1C       		.byte	28
 2649 0058 3E       		.byte	62
 2650 0059 7F       		.byte	127
 2651 005a 14       		.byte	20
 2652 005b 22       		.byte	34
 2653 005c 7F       		.byte	127
 2654 005d 22       		.byte	34
 2655 005e 14       		.byte	20
 2656 005f 5F       		.byte	95
 2657 0060 5F       		.byte	95
 2658 0061 00       		.byte	0
 2659 0062 5F       		.byte	95
 2660 0063 5F       		.byte	95
 2661 0064 06       		.byte	6
 2662 0065 09       		.byte	9
 2663 0066 7F       		.byte	127
 2664 0067 01       		.byte	1
 2665 0068 7F       		.byte	127
 2666 0069 00       		.byte	0
 2667 006a 66       		.byte	102
 2668 006b 89       		.byte	-119
 2669 006c 95       		.byte	-107
 2670 006d 6A       		.byte	106
 2671 006e 60       		.byte	96
 2672 006f 60       		.byte	96
 2673 0070 60       		.byte	96
 2674 0071 60       		.byte	96
 2675 0072 60       		.byte	96
 2676 0073 94       		.byte	-108
 2677 0074 A2       		.byte	-94
 2678 0075 FF       		.byte	-1
 2679 0076 A2       		.byte	-94
 2680 0077 94       		.byte	-108
 2681 0078 08       		.byte	8
 2682 0079 04       		.byte	4
 2683 007a 7E       		.byte	126
 2684 007b 04       		.byte	4
 2685 007c 08       		.byte	8
 2686 007d 10       		.byte	16
 2687 007e 20       		.byte	32
 2688 007f 7E       		.byte	126
 2689 0080 20       		.byte	32
 2690 0081 10       		.byte	16
ARM GAS  C:\Users\Kayas\AppData\Local\Temp\ccpxl0Kp.s 			page 60


 2691 0082 08       		.byte	8
 2692 0083 08       		.byte	8
 2693 0084 2A       		.byte	42
 2694 0085 1C       		.byte	28
 2695 0086 08       		.byte	8
 2696 0087 08       		.byte	8
 2697 0088 1C       		.byte	28
 2698 0089 2A       		.byte	42
 2699 008a 08       		.byte	8
 2700 008b 08       		.byte	8
 2701 008c 1E       		.byte	30
 2702 008d 10       		.byte	16
 2703 008e 10       		.byte	16
 2704 008f 10       		.byte	16
 2705 0090 10       		.byte	16
 2706 0091 0C       		.byte	12
 2707 0092 1E       		.byte	30
 2708 0093 0C       		.byte	12
 2709 0094 1E       		.byte	30
 2710 0095 0C       		.byte	12
 2711 0096 30       		.byte	48
 2712 0097 38       		.byte	56
 2713 0098 3E       		.byte	62
 2714 0099 38       		.byte	56
 2715 009a 30       		.byte	48
 2716 009b 06       		.byte	6
 2717 009c 0E       		.byte	14
 2718 009d 3E       		.byte	62
 2719 009e 0E       		.byte	14
 2720 009f 06       		.byte	6
 2721 00a0 00       		.byte	0
 2722 00a1 00       		.byte	0
 2723 00a2 00       		.byte	0
 2724 00a3 00       		.byte	0
 2725 00a4 00       		.byte	0
 2726 00a5 00       		.byte	0
 2727 00a6 00       		.byte	0
 2728 00a7 5F       		.byte	95
 2729 00a8 00       		.byte	0
 2730 00a9 00       		.byte	0
 2731 00aa 00       		.byte	0
 2732 00ab 07       		.byte	7
 2733 00ac 00       		.byte	0
 2734 00ad 07       		.byte	7
 2735 00ae 00       		.byte	0
 2736 00af 14       		.byte	20
 2737 00b0 7F       		.byte	127
 2738 00b1 14       		.byte	20
 2739 00b2 7F       		.byte	127
 2740 00b3 14       		.byte	20
 2741 00b4 24       		.byte	36
 2742 00b5 2A       		.byte	42
 2743 00b6 7F       		.byte	127
 2744 00b7 2A       		.byte	42
 2745 00b8 12       		.byte	18
 2746 00b9 23       		.byte	35
 2747 00ba 13       		.byte	19
ARM GAS  C:\Users\Kayas\AppData\Local\Temp\ccpxl0Kp.s 			page 61


 2748 00bb 08       		.byte	8
 2749 00bc 64       		.byte	100
 2750 00bd 62       		.byte	98
 2751 00be 36       		.byte	54
 2752 00bf 49       		.byte	73
 2753 00c0 56       		.byte	86
 2754 00c1 20       		.byte	32
 2755 00c2 50       		.byte	80
 2756 00c3 00       		.byte	0
 2757 00c4 08       		.byte	8
 2758 00c5 07       		.byte	7
 2759 00c6 03       		.byte	3
 2760 00c7 00       		.byte	0
 2761 00c8 00       		.byte	0
 2762 00c9 1C       		.byte	28
 2763 00ca 22       		.byte	34
 2764 00cb 41       		.byte	65
 2765 00cc 00       		.byte	0
 2766 00cd 00       		.byte	0
 2767 00ce 41       		.byte	65
 2768 00cf 22       		.byte	34
 2769 00d0 1C       		.byte	28
 2770 00d1 00       		.byte	0
 2771 00d2 2A       		.byte	42
 2772 00d3 1C       		.byte	28
 2773 00d4 7F       		.byte	127
 2774 00d5 1C       		.byte	28
 2775 00d6 2A       		.byte	42
 2776 00d7 08       		.byte	8
 2777 00d8 08       		.byte	8
 2778 00d9 3E       		.byte	62
 2779 00da 08       		.byte	8
 2780 00db 08       		.byte	8
 2781 00dc 00       		.byte	0
 2782 00dd 80       		.byte	-128
 2783 00de 70       		.byte	112
 2784 00df 30       		.byte	48
 2785 00e0 00       		.byte	0
 2786 00e1 08       		.byte	8
 2787 00e2 08       		.byte	8
 2788 00e3 08       		.byte	8
 2789 00e4 08       		.byte	8
 2790 00e5 08       		.byte	8
 2791 00e6 00       		.byte	0
 2792 00e7 00       		.byte	0
 2793 00e8 60       		.byte	96
 2794 00e9 60       		.byte	96
 2795 00ea 00       		.byte	0
 2796 00eb 20       		.byte	32
 2797 00ec 10       		.byte	16
 2798 00ed 08       		.byte	8
 2799 00ee 04       		.byte	4
 2800 00ef 02       		.byte	2
 2801 00f0 3E       		.byte	62
 2802 00f1 51       		.byte	81
 2803 00f2 49       		.byte	73
 2804 00f3 45       		.byte	69
ARM GAS  C:\Users\Kayas\AppData\Local\Temp\ccpxl0Kp.s 			page 62


 2805 00f4 3E       		.byte	62
 2806 00f5 00       		.byte	0
 2807 00f6 42       		.byte	66
 2808 00f7 7F       		.byte	127
 2809 00f8 40       		.byte	64
 2810 00f9 00       		.byte	0
 2811 00fa 72       		.byte	114
 2812 00fb 49       		.byte	73
 2813 00fc 49       		.byte	73
 2814 00fd 49       		.byte	73
 2815 00fe 46       		.byte	70
 2816 00ff 21       		.byte	33
 2817 0100 41       		.byte	65
 2818 0101 49       		.byte	73
 2819 0102 4D       		.byte	77
 2820 0103 33       		.byte	51
 2821 0104 18       		.byte	24
 2822 0105 14       		.byte	20
 2823 0106 12       		.byte	18
 2824 0107 7F       		.byte	127
 2825 0108 10       		.byte	16
 2826 0109 27       		.byte	39
 2827 010a 45       		.byte	69
 2828 010b 45       		.byte	69
 2829 010c 45       		.byte	69
 2830 010d 39       		.byte	57
 2831 010e 3C       		.byte	60
 2832 010f 4A       		.byte	74
 2833 0110 49       		.byte	73
 2834 0111 49       		.byte	73
 2835 0112 31       		.byte	49
 2836 0113 41       		.byte	65
 2837 0114 21       		.byte	33
 2838 0115 11       		.byte	17
 2839 0116 09       		.byte	9
 2840 0117 07       		.byte	7
 2841 0118 36       		.byte	54
 2842 0119 49       		.byte	73
 2843 011a 49       		.byte	73
 2844 011b 49       		.byte	73
 2845 011c 36       		.byte	54
 2846 011d 46       		.byte	70
 2847 011e 49       		.byte	73
 2848 011f 49       		.byte	73
 2849 0120 29       		.byte	41
 2850 0121 1E       		.byte	30
 2851 0122 00       		.byte	0
 2852 0123 00       		.byte	0
 2853 0124 14       		.byte	20
 2854 0125 00       		.byte	0
 2855 0126 00       		.byte	0
 2856 0127 00       		.byte	0
 2857 0128 40       		.byte	64
 2858 0129 34       		.byte	52
 2859 012a 00       		.byte	0
 2860 012b 00       		.byte	0
 2861 012c 00       		.byte	0
ARM GAS  C:\Users\Kayas\AppData\Local\Temp\ccpxl0Kp.s 			page 63


 2862 012d 08       		.byte	8
 2863 012e 14       		.byte	20
 2864 012f 22       		.byte	34
 2865 0130 41       		.byte	65
 2866 0131 14       		.byte	20
 2867 0132 14       		.byte	20
 2868 0133 14       		.byte	20
 2869 0134 14       		.byte	20
 2870 0135 14       		.byte	20
 2871 0136 00       		.byte	0
 2872 0137 41       		.byte	65
 2873 0138 22       		.byte	34
 2874 0139 14       		.byte	20
 2875 013a 08       		.byte	8
 2876 013b 02       		.byte	2
 2877 013c 01       		.byte	1
 2878 013d 59       		.byte	89
 2879 013e 09       		.byte	9
 2880 013f 06       		.byte	6
 2881 0140 3E       		.byte	62
 2882 0141 41       		.byte	65
 2883 0142 5D       		.byte	93
 2884 0143 59       		.byte	89
 2885 0144 4E       		.byte	78
 2886 0145 7C       		.byte	124
 2887 0146 12       		.byte	18
 2888 0147 11       		.byte	17
 2889 0148 12       		.byte	18
 2890 0149 7C       		.byte	124
 2891 014a 7F       		.byte	127
 2892 014b 49       		.byte	73
 2893 014c 49       		.byte	73
 2894 014d 49       		.byte	73
 2895 014e 36       		.byte	54
 2896 014f 3E       		.byte	62
 2897 0150 41       		.byte	65
 2898 0151 41       		.byte	65
 2899 0152 41       		.byte	65
 2900 0153 22       		.byte	34
 2901 0154 7F       		.byte	127
 2902 0155 41       		.byte	65
 2903 0156 41       		.byte	65
 2904 0157 41       		.byte	65
 2905 0158 3E       		.byte	62
 2906 0159 7F       		.byte	127
 2907 015a 49       		.byte	73
 2908 015b 49       		.byte	73
 2909 015c 49       		.byte	73
 2910 015d 41       		.byte	65
 2911 015e 7F       		.byte	127
 2912 015f 09       		.byte	9
 2913 0160 09       		.byte	9
 2914 0161 09       		.byte	9
 2915 0162 01       		.byte	1
 2916 0163 3E       		.byte	62
 2917 0164 41       		.byte	65
 2918 0165 41       		.byte	65
ARM GAS  C:\Users\Kayas\AppData\Local\Temp\ccpxl0Kp.s 			page 64


 2919 0166 51       		.byte	81
 2920 0167 73       		.byte	115
 2921 0168 7F       		.byte	127
 2922 0169 08       		.byte	8
 2923 016a 08       		.byte	8
 2924 016b 08       		.byte	8
 2925 016c 7F       		.byte	127
 2926 016d 00       		.byte	0
 2927 016e 41       		.byte	65
 2928 016f 7F       		.byte	127
 2929 0170 41       		.byte	65
 2930 0171 00       		.byte	0
 2931 0172 20       		.byte	32
 2932 0173 40       		.byte	64
 2933 0174 41       		.byte	65
 2934 0175 3F       		.byte	63
 2935 0176 01       		.byte	1
 2936 0177 7F       		.byte	127
 2937 0178 08       		.byte	8
 2938 0179 14       		.byte	20
 2939 017a 22       		.byte	34
 2940 017b 41       		.byte	65
 2941 017c 7F       		.byte	127
 2942 017d 40       		.byte	64
 2943 017e 40       		.byte	64
 2944 017f 40       		.byte	64
 2945 0180 40       		.byte	64
 2946 0181 7F       		.byte	127
 2947 0182 02       		.byte	2
 2948 0183 1C       		.byte	28
 2949 0184 02       		.byte	2
 2950 0185 7F       		.byte	127
 2951 0186 7F       		.byte	127
 2952 0187 04       		.byte	4
 2953 0188 08       		.byte	8
 2954 0189 10       		.byte	16
 2955 018a 7F       		.byte	127
 2956 018b 3E       		.byte	62
 2957 018c 41       		.byte	65
 2958 018d 41       		.byte	65
 2959 018e 41       		.byte	65
 2960 018f 3E       		.byte	62
 2961 0190 7F       		.byte	127
 2962 0191 09       		.byte	9
 2963 0192 09       		.byte	9
 2964 0193 09       		.byte	9
 2965 0194 06       		.byte	6
 2966 0195 3E       		.byte	62
 2967 0196 41       		.byte	65
 2968 0197 51       		.byte	81
 2969 0198 21       		.byte	33
 2970 0199 5E       		.byte	94
 2971 019a 7F       		.byte	127
 2972 019b 09       		.byte	9
 2973 019c 19       		.byte	25
 2974 019d 29       		.byte	41
 2975 019e 46       		.byte	70
ARM GAS  C:\Users\Kayas\AppData\Local\Temp\ccpxl0Kp.s 			page 65


 2976 019f 26       		.byte	38
 2977 01a0 49       		.byte	73
 2978 01a1 49       		.byte	73
 2979 01a2 49       		.byte	73
 2980 01a3 32       		.byte	50
 2981 01a4 03       		.byte	3
 2982 01a5 01       		.byte	1
 2983 01a6 7F       		.byte	127
 2984 01a7 01       		.byte	1
 2985 01a8 03       		.byte	3
 2986 01a9 3F       		.byte	63
 2987 01aa 40       		.byte	64
 2988 01ab 40       		.byte	64
 2989 01ac 40       		.byte	64
 2990 01ad 3F       		.byte	63
 2991 01ae 1F       		.byte	31
 2992 01af 20       		.byte	32
 2993 01b0 40       		.byte	64
 2994 01b1 20       		.byte	32
 2995 01b2 1F       		.byte	31
 2996 01b3 3F       		.byte	63
 2997 01b4 40       		.byte	64
 2998 01b5 38       		.byte	56
 2999 01b6 40       		.byte	64
 3000 01b7 3F       		.byte	63
 3001 01b8 63       		.byte	99
 3002 01b9 14       		.byte	20
 3003 01ba 08       		.byte	8
 3004 01bb 14       		.byte	20
 3005 01bc 63       		.byte	99
 3006 01bd 03       		.byte	3
 3007 01be 04       		.byte	4
 3008 01bf 78       		.byte	120
 3009 01c0 04       		.byte	4
 3010 01c1 03       		.byte	3
 3011 01c2 61       		.byte	97
 3012 01c3 59       		.byte	89
 3013 01c4 49       		.byte	73
 3014 01c5 4D       		.byte	77
 3015 01c6 43       		.byte	67
 3016 01c7 00       		.byte	0
 3017 01c8 7F       		.byte	127
 3018 01c9 41       		.byte	65
 3019 01ca 41       		.byte	65
 3020 01cb 41       		.byte	65
 3021 01cc 02       		.byte	2
 3022 01cd 04       		.byte	4
 3023 01ce 08       		.byte	8
 3024 01cf 10       		.byte	16
 3025 01d0 20       		.byte	32
 3026 01d1 00       		.byte	0
 3027 01d2 41       		.byte	65
 3028 01d3 41       		.byte	65
 3029 01d4 41       		.byte	65
 3030 01d5 7F       		.byte	127
 3031 01d6 04       		.byte	4
 3032 01d7 02       		.byte	2
ARM GAS  C:\Users\Kayas\AppData\Local\Temp\ccpxl0Kp.s 			page 66


 3033 01d8 01       		.byte	1
 3034 01d9 02       		.byte	2
 3035 01da 04       		.byte	4
 3036 01db 40       		.byte	64
 3037 01dc 40       		.byte	64
 3038 01dd 40       		.byte	64
 3039 01de 40       		.byte	64
 3040 01df 40       		.byte	64
 3041 01e0 00       		.byte	0
 3042 01e1 03       		.byte	3
 3043 01e2 07       		.byte	7
 3044 01e3 08       		.byte	8
 3045 01e4 00       		.byte	0
 3046 01e5 20       		.byte	32
 3047 01e6 54       		.byte	84
 3048 01e7 54       		.byte	84
 3049 01e8 78       		.byte	120
 3050 01e9 40       		.byte	64
 3051 01ea 7F       		.byte	127
 3052 01eb 28       		.byte	40
 3053 01ec 44       		.byte	68
 3054 01ed 44       		.byte	68
 3055 01ee 38       		.byte	56
 3056 01ef 38       		.byte	56
 3057 01f0 44       		.byte	68
 3058 01f1 44       		.byte	68
 3059 01f2 44       		.byte	68
 3060 01f3 28       		.byte	40
 3061 01f4 38       		.byte	56
 3062 01f5 44       		.byte	68
 3063 01f6 44       		.byte	68
 3064 01f7 28       		.byte	40
 3065 01f8 7F       		.byte	127
 3066 01f9 38       		.byte	56
 3067 01fa 54       		.byte	84
 3068 01fb 54       		.byte	84
 3069 01fc 54       		.byte	84
 3070 01fd 18       		.byte	24
 3071 01fe 00       		.byte	0
 3072 01ff 08       		.byte	8
 3073 0200 7E       		.byte	126
 3074 0201 09       		.byte	9
 3075 0202 02       		.byte	2
 3076 0203 18       		.byte	24
 3077 0204 A4       		.byte	-92
 3078 0205 A4       		.byte	-92
 3079 0206 9C       		.byte	-100
 3080 0207 78       		.byte	120
 3081 0208 7F       		.byte	127
 3082 0209 08       		.byte	8
 3083 020a 04       		.byte	4
 3084 020b 04       		.byte	4
 3085 020c 78       		.byte	120
 3086 020d 00       		.byte	0
 3087 020e 44       		.byte	68
 3088 020f 7D       		.byte	125
 3089 0210 40       		.byte	64
ARM GAS  C:\Users\Kayas\AppData\Local\Temp\ccpxl0Kp.s 			page 67


 3090 0211 00       		.byte	0
 3091 0212 20       		.byte	32
 3092 0213 40       		.byte	64
 3093 0214 40       		.byte	64
 3094 0215 3D       		.byte	61
 3095 0216 00       		.byte	0
 3096 0217 7F       		.byte	127
 3097 0218 10       		.byte	16
 3098 0219 28       		.byte	40
 3099 021a 44       		.byte	68
 3100 021b 00       		.byte	0
 3101 021c 00       		.byte	0
 3102 021d 41       		.byte	65
 3103 021e 7F       		.byte	127
 3104 021f 40       		.byte	64
 3105 0220 00       		.byte	0
 3106 0221 7C       		.byte	124
 3107 0222 04       		.byte	4
 3108 0223 78       		.byte	120
 3109 0224 04       		.byte	4
 3110 0225 78       		.byte	120
 3111 0226 7C       		.byte	124
 3112 0227 08       		.byte	8
 3113 0228 04       		.byte	4
 3114 0229 04       		.byte	4
 3115 022a 78       		.byte	120
 3116 022b 38       		.byte	56
 3117 022c 44       		.byte	68
 3118 022d 44       		.byte	68
 3119 022e 44       		.byte	68
 3120 022f 38       		.byte	56
 3121 0230 FC       		.byte	-4
 3122 0231 18       		.byte	24
 3123 0232 24       		.byte	36
 3124 0233 24       		.byte	36
 3125 0234 18       		.byte	24
 3126 0235 18       		.byte	24
 3127 0236 24       		.byte	36
 3128 0237 24       		.byte	36
 3129 0238 18       		.byte	24
 3130 0239 FC       		.byte	-4
 3131 023a 7C       		.byte	124
 3132 023b 08       		.byte	8
 3133 023c 04       		.byte	4
 3134 023d 04       		.byte	4
 3135 023e 08       		.byte	8
 3136 023f 48       		.byte	72
 3137 0240 54       		.byte	84
 3138 0241 54       		.byte	84
 3139 0242 54       		.byte	84
 3140 0243 24       		.byte	36
 3141 0244 04       		.byte	4
 3142 0245 04       		.byte	4
 3143 0246 3F       		.byte	63
 3144 0247 44       		.byte	68
 3145 0248 24       		.byte	36
 3146 0249 3C       		.byte	60
ARM GAS  C:\Users\Kayas\AppData\Local\Temp\ccpxl0Kp.s 			page 68


 3147 024a 40       		.byte	64
 3148 024b 40       		.byte	64
 3149 024c 20       		.byte	32
 3150 024d 7C       		.byte	124
 3151 024e 1C       		.byte	28
 3152 024f 20       		.byte	32
 3153 0250 40       		.byte	64
 3154 0251 20       		.byte	32
 3155 0252 1C       		.byte	28
 3156 0253 3C       		.byte	60
 3157 0254 40       		.byte	64
 3158 0255 30       		.byte	48
 3159 0256 40       		.byte	64
 3160 0257 3C       		.byte	60
 3161 0258 44       		.byte	68
 3162 0259 28       		.byte	40
 3163 025a 10       		.byte	16
 3164 025b 28       		.byte	40
 3165 025c 44       		.byte	68
 3166 025d 4C       		.byte	76
 3167 025e 90       		.byte	-112
 3168 025f 90       		.byte	-112
 3169 0260 90       		.byte	-112
 3170 0261 7C       		.byte	124
 3171 0262 44       		.byte	68
 3172 0263 64       		.byte	100
 3173 0264 54       		.byte	84
 3174 0265 4C       		.byte	76
 3175 0266 44       		.byte	68
 3176 0267 00       		.byte	0
 3177 0268 08       		.byte	8
 3178 0269 36       		.byte	54
 3179 026a 41       		.byte	65
 3180 026b 00       		.byte	0
 3181 026c 00       		.byte	0
 3182 026d 00       		.byte	0
 3183 026e 77       		.byte	119
 3184 026f 00       		.byte	0
 3185 0270 00       		.byte	0
 3186 0271 00       		.byte	0
 3187 0272 41       		.byte	65
 3188 0273 36       		.byte	54
 3189 0274 08       		.byte	8
 3190 0275 00       		.byte	0
 3191 0276 02       		.byte	2
 3192 0277 01       		.byte	1
 3193 0278 02       		.byte	2
 3194 0279 04       		.byte	4
 3195 027a 02       		.byte	2
 3196 027b 3C       		.byte	60
 3197 027c 26       		.byte	38
 3198 027d 23       		.byte	35
 3199 027e 26       		.byte	38
 3200 027f 3C       		.byte	60
 3201 0280 1E       		.byte	30
 3202 0281 A1       		.byte	-95
 3203 0282 A1       		.byte	-95
ARM GAS  C:\Users\Kayas\AppData\Local\Temp\ccpxl0Kp.s 			page 69


 3204 0283 61       		.byte	97
 3205 0284 12       		.byte	18
 3206 0285 3A       		.byte	58
 3207 0286 40       		.byte	64
 3208 0287 40       		.byte	64
 3209 0288 20       		.byte	32
 3210 0289 7A       		.byte	122
 3211 028a 38       		.byte	56
 3212 028b 54       		.byte	84
 3213 028c 54       		.byte	84
 3214 028d 55       		.byte	85
 3215 028e 59       		.byte	89
 3216 028f 21       		.byte	33
 3217 0290 55       		.byte	85
 3218 0291 55       		.byte	85
 3219 0292 79       		.byte	121
 3220 0293 41       		.byte	65
 3221 0294 21       		.byte	33
 3222 0295 54       		.byte	84
 3223 0296 54       		.byte	84
 3224 0297 78       		.byte	120
 3225 0298 41       		.byte	65
 3226 0299 21       		.byte	33
 3227 029a 55       		.byte	85
 3228 029b 54       		.byte	84
 3229 029c 78       		.byte	120
 3230 029d 40       		.byte	64
 3231 029e 20       		.byte	32
 3232 029f 54       		.byte	84
 3233 02a0 55       		.byte	85
 3234 02a1 79       		.byte	121
 3235 02a2 40       		.byte	64
 3236 02a3 0C       		.byte	12
 3237 02a4 1E       		.byte	30
 3238 02a5 52       		.byte	82
 3239 02a6 72       		.byte	114
 3240 02a7 12       		.byte	18
 3241 02a8 39       		.byte	57
 3242 02a9 55       		.byte	85
 3243 02aa 55       		.byte	85
 3244 02ab 55       		.byte	85
 3245 02ac 59       		.byte	89
 3246 02ad 39       		.byte	57
 3247 02ae 54       		.byte	84
 3248 02af 54       		.byte	84
 3249 02b0 54       		.byte	84
 3250 02b1 59       		.byte	89
 3251 02b2 39       		.byte	57
 3252 02b3 55       		.byte	85
 3253 02b4 54       		.byte	84
 3254 02b5 54       		.byte	84
 3255 02b6 58       		.byte	88
 3256 02b7 00       		.byte	0
 3257 02b8 00       		.byte	0
 3258 02b9 45       		.byte	69
 3259 02ba 7C       		.byte	124
 3260 02bb 41       		.byte	65
ARM GAS  C:\Users\Kayas\AppData\Local\Temp\ccpxl0Kp.s 			page 70


 3261 02bc 00       		.byte	0
 3262 02bd 02       		.byte	2
 3263 02be 45       		.byte	69
 3264 02bf 7D       		.byte	125
 3265 02c0 42       		.byte	66
 3266 02c1 00       		.byte	0
 3267 02c2 01       		.byte	1
 3268 02c3 45       		.byte	69
 3269 02c4 7C       		.byte	124
 3270 02c5 40       		.byte	64
 3271 02c6 F0       		.byte	-16
 3272 02c7 29       		.byte	41
 3273 02c8 24       		.byte	36
 3274 02c9 29       		.byte	41
 3275 02ca F0       		.byte	-16
 3276 02cb F0       		.byte	-16
 3277 02cc 28       		.byte	40
 3278 02cd 25       		.byte	37
 3279 02ce 28       		.byte	40
 3280 02cf F0       		.byte	-16
 3281 02d0 7C       		.byte	124
 3282 02d1 54       		.byte	84
 3283 02d2 55       		.byte	85
 3284 02d3 45       		.byte	69
 3285 02d4 00       		.byte	0
 3286 02d5 20       		.byte	32
 3287 02d6 54       		.byte	84
 3288 02d7 54       		.byte	84
 3289 02d8 7C       		.byte	124
 3290 02d9 54       		.byte	84
 3291 02da 7C       		.byte	124
 3292 02db 0A       		.byte	10
 3293 02dc 09       		.byte	9
 3294 02dd 7F       		.byte	127
 3295 02de 49       		.byte	73
 3296 02df 32       		.byte	50
 3297 02e0 49       		.byte	73
 3298 02e1 49       		.byte	73
 3299 02e2 49       		.byte	73
 3300 02e3 32       		.byte	50
 3301 02e4 32       		.byte	50
 3302 02e5 48       		.byte	72
 3303 02e6 48       		.byte	72
 3304 02e7 48       		.byte	72
 3305 02e8 32       		.byte	50
 3306 02e9 32       		.byte	50
 3307 02ea 4A       		.byte	74
 3308 02eb 48       		.byte	72
 3309 02ec 48       		.byte	72
 3310 02ed 30       		.byte	48
 3311 02ee 3A       		.byte	58
 3312 02ef 41       		.byte	65
 3313 02f0 41       		.byte	65
 3314 02f1 21       		.byte	33
 3315 02f2 7A       		.byte	122
 3316 02f3 3A       		.byte	58
 3317 02f4 42       		.byte	66
ARM GAS  C:\Users\Kayas\AppData\Local\Temp\ccpxl0Kp.s 			page 71


 3318 02f5 40       		.byte	64
 3319 02f6 20       		.byte	32
 3320 02f7 78       		.byte	120
 3321 02f8 00       		.byte	0
 3322 02f9 9D       		.byte	-99
 3323 02fa A0       		.byte	-96
 3324 02fb A0       		.byte	-96
 3325 02fc 7D       		.byte	125
 3326 02fd 39       		.byte	57
 3327 02fe 44       		.byte	68
 3328 02ff 44       		.byte	68
 3329 0300 44       		.byte	68
 3330 0301 39       		.byte	57
 3331 0302 3D       		.byte	61
 3332 0303 40       		.byte	64
 3333 0304 40       		.byte	64
 3334 0305 40       		.byte	64
 3335 0306 3D       		.byte	61
 3336 0307 3C       		.byte	60
 3337 0308 24       		.byte	36
 3338 0309 FF       		.byte	-1
 3339 030a 24       		.byte	36
 3340 030b 24       		.byte	36
 3341 030c 48       		.byte	72
 3342 030d 7E       		.byte	126
 3343 030e 49       		.byte	73
 3344 030f 43       		.byte	67
 3345 0310 66       		.byte	102
 3346 0311 2B       		.byte	43
 3347 0312 2F       		.byte	47
 3348 0313 FC       		.byte	-4
 3349 0314 2F       		.byte	47
 3350 0315 2B       		.byte	43
 3351 0316 FF       		.byte	-1
 3352 0317 09       		.byte	9
 3353 0318 29       		.byte	41
 3354 0319 F6       		.byte	-10
 3355 031a 20       		.byte	32
 3356 031b C0       		.byte	-64
 3357 031c 88       		.byte	-120
 3358 031d 7E       		.byte	126
 3359 031e 09       		.byte	9
 3360 031f 03       		.byte	3
 3361 0320 20       		.byte	32
 3362 0321 54       		.byte	84
 3363 0322 54       		.byte	84
 3364 0323 79       		.byte	121
 3365 0324 41       		.byte	65
 3366 0325 00       		.byte	0
 3367 0326 00       		.byte	0
 3368 0327 44       		.byte	68
 3369 0328 7D       		.byte	125
 3370 0329 41       		.byte	65
 3371 032a 30       		.byte	48
 3372 032b 48       		.byte	72
 3373 032c 48       		.byte	72
 3374 032d 4A       		.byte	74
ARM GAS  C:\Users\Kayas\AppData\Local\Temp\ccpxl0Kp.s 			page 72


 3375 032e 32       		.byte	50
 3376 032f 38       		.byte	56
 3377 0330 40       		.byte	64
 3378 0331 40       		.byte	64
 3379 0332 22       		.byte	34
 3380 0333 7A       		.byte	122
 3381 0334 00       		.byte	0
 3382 0335 7A       		.byte	122
 3383 0336 0A       		.byte	10
 3384 0337 0A       		.byte	10
 3385 0338 72       		.byte	114
 3386 0339 7D       		.byte	125
 3387 033a 0D       		.byte	13
 3388 033b 19       		.byte	25
 3389 033c 31       		.byte	49
 3390 033d 7D       		.byte	125
 3391 033e 26       		.byte	38
 3392 033f 29       		.byte	41
 3393 0340 29       		.byte	41
 3394 0341 2F       		.byte	47
 3395 0342 28       		.byte	40
 3396 0343 26       		.byte	38
 3397 0344 29       		.byte	41
 3398 0345 29       		.byte	41
 3399 0346 29       		.byte	41
 3400 0347 26       		.byte	38
 3401 0348 30       		.byte	48
 3402 0349 48       		.byte	72
 3403 034a 4D       		.byte	77
 3404 034b 40       		.byte	64
 3405 034c 20       		.byte	32
 3406 034d 38       		.byte	56
 3407 034e 08       		.byte	8
 3408 034f 08       		.byte	8
 3409 0350 08       		.byte	8
 3410 0351 08       		.byte	8
 3411 0352 08       		.byte	8
 3412 0353 08       		.byte	8
 3413 0354 08       		.byte	8
 3414 0355 08       		.byte	8
 3415 0356 38       		.byte	56
 3416 0357 2F       		.byte	47
 3417 0358 10       		.byte	16
 3418 0359 C8       		.byte	-56
 3419 035a AC       		.byte	-84
 3420 035b BA       		.byte	-70
 3421 035c 2F       		.byte	47
 3422 035d 10       		.byte	16
 3423 035e 28       		.byte	40
 3424 035f 34       		.byte	52
 3425 0360 FA       		.byte	-6
 3426 0361 00       		.byte	0
 3427 0362 00       		.byte	0
 3428 0363 7B       		.byte	123
 3429 0364 00       		.byte	0
 3430 0365 00       		.byte	0
 3431 0366 08       		.byte	8
ARM GAS  C:\Users\Kayas\AppData\Local\Temp\ccpxl0Kp.s 			page 73


 3432 0367 14       		.byte	20
 3433 0368 2A       		.byte	42
 3434 0369 14       		.byte	20
 3435 036a 22       		.byte	34
 3436 036b 22       		.byte	34
 3437 036c 14       		.byte	20
 3438 036d 2A       		.byte	42
 3439 036e 14       		.byte	20
 3440 036f 08       		.byte	8
 3441 0370 AA       		.byte	-86
 3442 0371 00       		.byte	0
 3443 0372 55       		.byte	85
 3444 0373 00       		.byte	0
 3445 0374 AA       		.byte	-86
 3446 0375 AA       		.byte	-86
 3447 0376 55       		.byte	85
 3448 0377 AA       		.byte	-86
 3449 0378 55       		.byte	85
 3450 0379 AA       		.byte	-86
 3451 037a 00       		.byte	0
 3452 037b 00       		.byte	0
 3453 037c 00       		.byte	0
 3454 037d FF       		.byte	-1
 3455 037e 00       		.byte	0
 3456 037f 10       		.byte	16
 3457 0380 10       		.byte	16
 3458 0381 10       		.byte	16
 3459 0382 FF       		.byte	-1
 3460 0383 00       		.byte	0
 3461 0384 14       		.byte	20
 3462 0385 14       		.byte	20
 3463 0386 14       		.byte	20
 3464 0387 FF       		.byte	-1
 3465 0388 00       		.byte	0
 3466 0389 10       		.byte	16
 3467 038a 10       		.byte	16
 3468 038b FF       		.byte	-1
 3469 038c 00       		.byte	0
 3470 038d FF       		.byte	-1
 3471 038e 10       		.byte	16
 3472 038f 10       		.byte	16
 3473 0390 F0       		.byte	-16
 3474 0391 10       		.byte	16
 3475 0392 F0       		.byte	-16
 3476 0393 14       		.byte	20
 3477 0394 14       		.byte	20
 3478 0395 14       		.byte	20
 3479 0396 FC       		.byte	-4
 3480 0397 00       		.byte	0
 3481 0398 14       		.byte	20
 3482 0399 14       		.byte	20
 3483 039a F7       		.byte	-9
 3484 039b 00       		.byte	0
 3485 039c FF       		.byte	-1
 3486 039d 00       		.byte	0
 3487 039e 00       		.byte	0
 3488 039f FF       		.byte	-1
ARM GAS  C:\Users\Kayas\AppData\Local\Temp\ccpxl0Kp.s 			page 74


 3489 03a0 00       		.byte	0
 3490 03a1 FF       		.byte	-1
 3491 03a2 14       		.byte	20
 3492 03a3 14       		.byte	20
 3493 03a4 F4       		.byte	-12
 3494 03a5 04       		.byte	4
 3495 03a6 FC       		.byte	-4
 3496 03a7 14       		.byte	20
 3497 03a8 14       		.byte	20
 3498 03a9 17       		.byte	23
 3499 03aa 10       		.byte	16
 3500 03ab 1F       		.byte	31
 3501 03ac 10       		.byte	16
 3502 03ad 10       		.byte	16
 3503 03ae 1F       		.byte	31
 3504 03af 10       		.byte	16
 3505 03b0 1F       		.byte	31
 3506 03b1 14       		.byte	20
 3507 03b2 14       		.byte	20
 3508 03b3 14       		.byte	20
 3509 03b4 1F       		.byte	31
 3510 03b5 00       		.byte	0
 3511 03b6 10       		.byte	16
 3512 03b7 10       		.byte	16
 3513 03b8 10       		.byte	16
 3514 03b9 F0       		.byte	-16
 3515 03ba 00       		.byte	0
 3516 03bb 00       		.byte	0
 3517 03bc 00       		.byte	0
 3518 03bd 00       		.byte	0
 3519 03be 1F       		.byte	31
 3520 03bf 10       		.byte	16
 3521 03c0 10       		.byte	16
 3522 03c1 10       		.byte	16
 3523 03c2 10       		.byte	16
 3524 03c3 1F       		.byte	31
 3525 03c4 10       		.byte	16
 3526 03c5 10       		.byte	16
 3527 03c6 10       		.byte	16
 3528 03c7 10       		.byte	16
 3529 03c8 F0       		.byte	-16
 3530 03c9 10       		.byte	16
 3531 03ca 00       		.byte	0
 3532 03cb 00       		.byte	0
 3533 03cc 00       		.byte	0
 3534 03cd FF       		.byte	-1
 3535 03ce 10       		.byte	16
 3536 03cf 10       		.byte	16
 3537 03d0 10       		.byte	16
 3538 03d1 10       		.byte	16
 3539 03d2 10       		.byte	16
 3540 03d3 10       		.byte	16
 3541 03d4 10       		.byte	16
 3542 03d5 10       		.byte	16
 3543 03d6 10       		.byte	16
 3544 03d7 FF       		.byte	-1
 3545 03d8 10       		.byte	16
ARM GAS  C:\Users\Kayas\AppData\Local\Temp\ccpxl0Kp.s 			page 75


 3546 03d9 00       		.byte	0
 3547 03da 00       		.byte	0
 3548 03db 00       		.byte	0
 3549 03dc FF       		.byte	-1
 3550 03dd 14       		.byte	20
 3551 03de 00       		.byte	0
 3552 03df 00       		.byte	0
 3553 03e0 FF       		.byte	-1
 3554 03e1 00       		.byte	0
 3555 03e2 FF       		.byte	-1
 3556 03e3 00       		.byte	0
 3557 03e4 00       		.byte	0
 3558 03e5 1F       		.byte	31
 3559 03e6 10       		.byte	16
 3560 03e7 17       		.byte	23
 3561 03e8 00       		.byte	0
 3562 03e9 00       		.byte	0
 3563 03ea FC       		.byte	-4
 3564 03eb 04       		.byte	4
 3565 03ec F4       		.byte	-12
 3566 03ed 14       		.byte	20
 3567 03ee 14       		.byte	20
 3568 03ef 17       		.byte	23
 3569 03f0 10       		.byte	16
 3570 03f1 17       		.byte	23
 3571 03f2 14       		.byte	20
 3572 03f3 14       		.byte	20
 3573 03f4 F4       		.byte	-12
 3574 03f5 04       		.byte	4
 3575 03f6 F4       		.byte	-12
 3576 03f7 00       		.byte	0
 3577 03f8 00       		.byte	0
 3578 03f9 FF       		.byte	-1
 3579 03fa 00       		.byte	0
 3580 03fb F7       		.byte	-9
 3581 03fc 14       		.byte	20
 3582 03fd 14       		.byte	20
 3583 03fe 14       		.byte	20
 3584 03ff 14       		.byte	20
 3585 0400 14       		.byte	20
 3586 0401 14       		.byte	20
 3587 0402 14       		.byte	20
 3588 0403 F7       		.byte	-9
 3589 0404 00       		.byte	0
 3590 0405 F7       		.byte	-9
 3591 0406 14       		.byte	20
 3592 0407 14       		.byte	20
 3593 0408 14       		.byte	20
 3594 0409 17       		.byte	23
 3595 040a 14       		.byte	20
 3596 040b 10       		.byte	16
 3597 040c 10       		.byte	16
 3598 040d 1F       		.byte	31
 3599 040e 10       		.byte	16
 3600 040f 1F       		.byte	31
 3601 0410 14       		.byte	20
 3602 0411 14       		.byte	20
ARM GAS  C:\Users\Kayas\AppData\Local\Temp\ccpxl0Kp.s 			page 76


 3603 0412 14       		.byte	20
 3604 0413 F4       		.byte	-12
 3605 0414 14       		.byte	20
 3606 0415 10       		.byte	16
 3607 0416 10       		.byte	16
 3608 0417 F0       		.byte	-16
 3609 0418 10       		.byte	16
 3610 0419 F0       		.byte	-16
 3611 041a 00       		.byte	0
 3612 041b 00       		.byte	0
 3613 041c 1F       		.byte	31
 3614 041d 10       		.byte	16
 3615 041e 1F       		.byte	31
 3616 041f 00       		.byte	0
 3617 0420 00       		.byte	0
 3618 0421 00       		.byte	0
 3619 0422 1F       		.byte	31
 3620 0423 14       		.byte	20
 3621 0424 00       		.byte	0
 3622 0425 00       		.byte	0
 3623 0426 00       		.byte	0
 3624 0427 FC       		.byte	-4
 3625 0428 14       		.byte	20
 3626 0429 00       		.byte	0
 3627 042a 00       		.byte	0
 3628 042b F0       		.byte	-16
 3629 042c 10       		.byte	16
 3630 042d F0       		.byte	-16
 3631 042e 10       		.byte	16
 3632 042f 10       		.byte	16
 3633 0430 FF       		.byte	-1
 3634 0431 10       		.byte	16
 3635 0432 FF       		.byte	-1
 3636 0433 14       		.byte	20
 3637 0434 14       		.byte	20
 3638 0435 14       		.byte	20
 3639 0436 FF       		.byte	-1
 3640 0437 14       		.byte	20
 3641 0438 10       		.byte	16
 3642 0439 10       		.byte	16
 3643 043a 10       		.byte	16
 3644 043b 1F       		.byte	31
 3645 043c 00       		.byte	0
 3646 043d 00       		.byte	0
 3647 043e 00       		.byte	0
 3648 043f 00       		.byte	0
 3649 0440 F0       		.byte	-16
 3650 0441 10       		.byte	16
 3651 0442 FF       		.byte	-1
 3652 0443 FF       		.byte	-1
 3653 0444 FF       		.byte	-1
 3654 0445 FF       		.byte	-1
 3655 0446 FF       		.byte	-1
 3656 0447 F0       		.byte	-16
 3657 0448 F0       		.byte	-16
 3658 0449 F0       		.byte	-16
 3659 044a F0       		.byte	-16
ARM GAS  C:\Users\Kayas\AppData\Local\Temp\ccpxl0Kp.s 			page 77


 3660 044b F0       		.byte	-16
 3661 044c FF       		.byte	-1
 3662 044d FF       		.byte	-1
 3663 044e FF       		.byte	-1
 3664 044f 00       		.byte	0
 3665 0450 00       		.byte	0
 3666 0451 00       		.byte	0
 3667 0452 00       		.byte	0
 3668 0453 00       		.byte	0
 3669 0454 FF       		.byte	-1
 3670 0455 FF       		.byte	-1
 3671 0456 0F       		.byte	15
 3672 0457 0F       		.byte	15
 3673 0458 0F       		.byte	15
 3674 0459 0F       		.byte	15
 3675 045a 0F       		.byte	15
 3676 045b 38       		.byte	56
 3677 045c 44       		.byte	68
 3678 045d 44       		.byte	68
 3679 045e 38       		.byte	56
 3680 045f 44       		.byte	68
 3681 0460 7C       		.byte	124
 3682 0461 2A       		.byte	42
 3683 0462 2A       		.byte	42
 3684 0463 3E       		.byte	62
 3685 0464 14       		.byte	20
 3686 0465 7E       		.byte	126
 3687 0466 02       		.byte	2
 3688 0467 02       		.byte	2
 3689 0468 06       		.byte	6
 3690 0469 06       		.byte	6
 3691 046a 02       		.byte	2
 3692 046b 7E       		.byte	126
 3693 046c 02       		.byte	2
 3694 046d 7E       		.byte	126
 3695 046e 02       		.byte	2
 3696 046f 63       		.byte	99
 3697 0470 55       		.byte	85
 3698 0471 49       		.byte	73
 3699 0472 41       		.byte	65
 3700 0473 63       		.byte	99
 3701 0474 38       		.byte	56
 3702 0475 44       		.byte	68
 3703 0476 44       		.byte	68
 3704 0477 3C       		.byte	60
 3705 0478 04       		.byte	4
 3706 0479 40       		.byte	64
 3707 047a 7E       		.byte	126
 3708 047b 20       		.byte	32
 3709 047c 1E       		.byte	30
 3710 047d 20       		.byte	32
 3711 047e 06       		.byte	6
 3712 047f 02       		.byte	2
 3713 0480 7E       		.byte	126
 3714 0481 02       		.byte	2
 3715 0482 02       		.byte	2
 3716 0483 99       		.byte	-103
ARM GAS  C:\Users\Kayas\AppData\Local\Temp\ccpxl0Kp.s 			page 78


 3717 0484 A5       		.byte	-91
 3718 0485 E7       		.byte	-25
 3719 0486 A5       		.byte	-91
 3720 0487 99       		.byte	-103
 3721 0488 1C       		.byte	28
 3722 0489 2A       		.byte	42
 3723 048a 49       		.byte	73
 3724 048b 2A       		.byte	42
 3725 048c 1C       		.byte	28
 3726 048d 4C       		.byte	76
 3727 048e 72       		.byte	114
 3728 048f 01       		.byte	1
 3729 0490 72       		.byte	114
 3730 0491 4C       		.byte	76
 3731 0492 30       		.byte	48
 3732 0493 4A       		.byte	74
 3733 0494 4D       		.byte	77
 3734 0495 4D       		.byte	77
 3735 0496 30       		.byte	48
 3736 0497 30       		.byte	48
 3737 0498 48       		.byte	72
 3738 0499 78       		.byte	120
 3739 049a 48       		.byte	72
 3740 049b 30       		.byte	48
 3741 049c BC       		.byte	-68
 3742 049d 62       		.byte	98
 3743 049e 5A       		.byte	90
 3744 049f 46       		.byte	70
 3745 04a0 3D       		.byte	61
 3746 04a1 3E       		.byte	62
 3747 04a2 49       		.byte	73
 3748 04a3 49       		.byte	73
 3749 04a4 49       		.byte	73
 3750 04a5 00       		.byte	0
 3751 04a6 7E       		.byte	126
 3752 04a7 01       		.byte	1
 3753 04a8 01       		.byte	1
 3754 04a9 01       		.byte	1
 3755 04aa 7E       		.byte	126
 3756 04ab 2A       		.byte	42
 3757 04ac 2A       		.byte	42
 3758 04ad 2A       		.byte	42
 3759 04ae 2A       		.byte	42
 3760 04af 2A       		.byte	42
 3761 04b0 44       		.byte	68
 3762 04b1 44       		.byte	68
 3763 04b2 5F       		.byte	95
 3764 04b3 44       		.byte	68
 3765 04b4 44       		.byte	68
 3766 04b5 40       		.byte	64
 3767 04b6 51       		.byte	81
 3768 04b7 4A       		.byte	74
 3769 04b8 44       		.byte	68
 3770 04b9 40       		.byte	64
 3771 04ba 40       		.byte	64
 3772 04bb 44       		.byte	68
 3773 04bc 4A       		.byte	74
ARM GAS  C:\Users\Kayas\AppData\Local\Temp\ccpxl0Kp.s 			page 79


 3774 04bd 51       		.byte	81
 3775 04be 40       		.byte	64
 3776 04bf 00       		.byte	0
 3777 04c0 00       		.byte	0
 3778 04c1 FF       		.byte	-1
 3779 04c2 01       		.byte	1
 3780 04c3 03       		.byte	3
 3781 04c4 E0       		.byte	-32
 3782 04c5 80       		.byte	-128
 3783 04c6 FF       		.byte	-1
 3784 04c7 00       		.byte	0
 3785 04c8 00       		.byte	0
 3786 04c9 08       		.byte	8
 3787 04ca 08       		.byte	8
 3788 04cb 6B       		.byte	107
 3789 04cc 6B       		.byte	107
 3790 04cd 08       		.byte	8
 3791 04ce 36       		.byte	54
 3792 04cf 12       		.byte	18
 3793 04d0 36       		.byte	54
 3794 04d1 24       		.byte	36
 3795 04d2 36       		.byte	54
 3796 04d3 06       		.byte	6
 3797 04d4 0F       		.byte	15
 3798 04d5 09       		.byte	9
 3799 04d6 0F       		.byte	15
 3800 04d7 06       		.byte	6
 3801 04d8 00       		.byte	0
 3802 04d9 00       		.byte	0
 3803 04da 18       		.byte	24
 3804 04db 18       		.byte	24
 3805 04dc 00       		.byte	0
 3806 04dd 00       		.byte	0
 3807 04de 00       		.byte	0
 3808 04df 10       		.byte	16
 3809 04e0 10       		.byte	16
 3810 04e1 00       		.byte	0
 3811 04e2 30       		.byte	48
 3812 04e3 40       		.byte	64
 3813 04e4 FF       		.byte	-1
 3814 04e5 01       		.byte	1
 3815 04e6 01       		.byte	1
 3816 04e7 00       		.byte	0
 3817 04e8 1F       		.byte	31
 3818 04e9 01       		.byte	1
 3819 04ea 01       		.byte	1
 3820 04eb 1E       		.byte	30
 3821 04ec 00       		.byte	0
 3822 04ed 19       		.byte	25
 3823 04ee 1D       		.byte	29
 3824 04ef 17       		.byte	23
 3825 04f0 12       		.byte	18
 3826 04f1 00       		.byte	0
 3827 04f2 3C       		.byte	60
 3828 04f3 3C       		.byte	60
 3829 04f4 3C       		.byte	60
 3830 04f5 3C       		.byte	60
ARM GAS  C:\Users\Kayas\AppData\Local\Temp\ccpxl0Kp.s 			page 80


 3831 04f6 00       		.byte	0
 3832 04f7 00       		.byte	0
 3833 04f8 00       		.byte	0
 3834 04f9 00       		.byte	0
 3835 04fa 00       		.byte	0
 3836 04fb 00       		.space	1
 3837              		.type	Font16x16, %object
 3838              		.size	Font16x16, 2480
 3839              	Font16x16:
 3840 04fc 00       		.byte	0
 3841 04fd 00       		.byte	0
 3842 04fe 00       		.byte	0
 3843 04ff 00       		.byte	0
 3844 0500 00       		.byte	0
 3845 0501 00       		.byte	0
 3846 0502 00       		.byte	0
 3847 0503 00       		.byte	0
 3848 0504 00       		.byte	0
 3849 0505 00       		.byte	0
 3850 0506 00       		.byte	0
 3851 0507 00       		.byte	0
 3852 0508 00       		.byte	0
 3853 0509 00       		.byte	0
 3854 050a 00       		.byte	0
 3855 050b 00       		.byte	0
 3856 050c 00       		.byte	0
 3857 050d 00       		.byte	0
 3858 050e 00       		.byte	0
 3859 050f 00       		.byte	0
 3860 0510 F8       		.byte	-8
 3861 0511 00       		.byte	0
 3862 0512 00       		.byte	0
 3863 0513 00       		.byte	0
 3864 0514 00       		.byte	0
 3865 0515 00       		.byte	0
 3866 0516 00       		.byte	0
 3867 0517 00       		.byte	0
 3868 0518 19       		.byte	25
 3869 0519 00       		.byte	0
 3870 051a 00       		.byte	0
 3871 051b 00       		.byte	0
 3872 051c 00       		.byte	0
 3873 051d 00       		.byte	0
 3874 051e 00       		.byte	0
 3875 051f 78       		.byte	120
 3876 0520 00       		.byte	0
 3877 0521 78       		.byte	120
 3878 0522 00       		.byte	0
 3879 0523 00       		.byte	0
 3880 0524 00       		.byte	0
 3881 0525 00       		.byte	0
 3882 0526 00       		.byte	0
 3883 0527 00       		.byte	0
 3884 0528 00       		.byte	0
 3885 0529 00       		.byte	0
 3886 052a 00       		.byte	0
 3887 052b 00       		.byte	0
ARM GAS  C:\Users\Kayas\AppData\Local\Temp\ccpxl0Kp.s 			page 81


 3888 052c 00       		.byte	0
 3889 052d 40       		.byte	64
 3890 052e C0       		.byte	-64
 3891 052f 78       		.byte	120
 3892 0530 40       		.byte	64
 3893 0531 E0       		.byte	-32
 3894 0532 78       		.byte	120
 3895 0533 40       		.byte	64
 3896 0534 02       		.byte	2
 3897 0535 1A       		.byte	26
 3898 0536 07       		.byte	7
 3899 0537 02       		.byte	2
 3900 0538 1E       		.byte	30
 3901 0539 03       		.byte	3
 3902 053a 02       		.byte	2
 3903 053b 00       		.byte	0
 3904 053c 00       		.byte	0
 3905 053d E0       		.byte	-32
 3906 053e 90       		.byte	-112
 3907 053f 10       		.byte	16
 3908 0540 FC       		.byte	-4
 3909 0541 10       		.byte	16
 3910 0542 10       		.byte	16
 3911 0543 20       		.byte	32
 3912 0544 00       		.byte	0
 3913 0545 08       		.byte	8
 3914 0546 11       		.byte	17
 3915 0547 11       		.byte	17
 3916 0548 7F       		.byte	127
 3917 0549 11       		.byte	17
 3918 054a 13       		.byte	19
 3919 054b 0E       		.byte	14
 3920 054c 30       		.byte	48
 3921 054d 48       		.byte	72
 3922 054e 48       		.byte	72
 3923 054f 30       		.byte	48
 3924 0550 80       		.byte	-128
 3925 0551 80       		.byte	-128
 3926 0552 40       		.byte	64
 3927 0553 00       		.byte	0
 3928 0554 00       		.byte	0
 3929 0555 02       		.byte	2
 3930 0556 01       		.byte	1
 3931 0557 01       		.byte	1
 3932 0558 0C       		.byte	12
 3933 0559 12       		.byte	18
 3934 055a 12       		.byte	18
 3935 055b 0C       		.byte	12
 3936 055c 00       		.byte	0
 3937 055d 00       		.byte	0
 3938 055e F0       		.byte	-16
 3939 055f C8       		.byte	-56
 3940 0560 08       		.byte	8
 3941 0561 08       		.byte	8
 3942 0562 00       		.byte	0
 3943 0563 00       		.byte	0
 3944 0564 00       		.byte	0
ARM GAS  C:\Users\Kayas\AppData\Local\Temp\ccpxl0Kp.s 			page 82


 3945 0565 0F       		.byte	15
 3946 0566 18       		.byte	24
 3947 0567 10       		.byte	16
 3948 0568 11       		.byte	17
 3949 0569 16       		.byte	22
 3950 056a 08       		.byte	8
 3951 056b 17       		.byte	23
 3952 056c 00       		.byte	0
 3953 056d 00       		.byte	0
 3954 056e 00       		.byte	0
 3955 056f 00       		.byte	0
 3956 0570 78       		.byte	120
 3957 0571 00       		.byte	0
 3958 0572 00       		.byte	0
 3959 0573 00       		.byte	0
 3960 0574 00       		.byte	0
 3961 0575 00       		.byte	0
 3962 0576 00       		.byte	0
 3963 0577 00       		.byte	0
 3964 0578 00       		.byte	0
 3965 0579 00       		.byte	0
 3966 057a 00       		.byte	0
 3967 057b 00       		.byte	0
 3968 057c 00       		.byte	0
 3969 057d 00       		.byte	0
 3970 057e 00       		.byte	0
 3971 057f E0       		.byte	-32
 3972 0580 1C       		.byte	28
 3973 0581 04       		.byte	4
 3974 0582 00       		.byte	0
 3975 0583 00       		.byte	0
 3976 0584 00       		.byte	0
 3977 0585 00       		.byte	0
 3978 0586 00       		.byte	0
 3979 0587 07       		.byte	7
 3980 0588 18       		.byte	24
 3981 0589 20       		.byte	32
 3982 058a 00       		.byte	0
 3983 058b 00       		.byte	0
 3984 058c 00       		.byte	0
 3985 058d 00       		.byte	0
 3986 058e 04       		.byte	4
 3987 058f 1C       		.byte	28
 3988 0590 E0       		.byte	-32
 3989 0591 00       		.byte	0
 3990 0592 00       		.byte	0
 3991 0593 00       		.byte	0
 3992 0594 00       		.byte	0
 3993 0595 00       		.byte	0
 3994 0596 20       		.byte	32
 3995 0597 38       		.byte	56
 3996 0598 07       		.byte	7
 3997 0599 00       		.byte	0
 3998 059a 00       		.byte	0
 3999 059b 00       		.byte	0
 4000 059c 00       		.byte	0
 4001 059d 90       		.byte	-112
ARM GAS  C:\Users\Kayas\AppData\Local\Temp\ccpxl0Kp.s 			page 83


 4002 059e A0       		.byte	-96
 4003 059f 60       		.byte	96
 4004 05a0 F8       		.byte	-8
 4005 05a1 60       		.byte	96
 4006 05a2 A0       		.byte	-96
 4007 05a3 90       		.byte	-112
 4008 05a4 00       		.byte	0
 4009 05a5 00       		.byte	0
 4010 05a6 00       		.byte	0
 4011 05a7 00       		.byte	0
 4012 05a8 01       		.byte	1
 4013 05a9 00       		.byte	0
 4014 05aa 00       		.byte	0
 4015 05ab 00       		.byte	0
 4016 05ac 00       		.byte	0
 4017 05ad 00       		.byte	0
 4018 05ae 00       		.byte	0
 4019 05af 00       		.byte	0
 4020 05b0 E0       		.byte	-32
 4021 05b1 00       		.byte	0
 4022 05b2 00       		.byte	0
 4023 05b3 00       		.byte	0
 4024 05b4 00       		.byte	0
 4025 05b5 01       		.byte	1
 4026 05b6 01       		.byte	1
 4027 05b7 01       		.byte	1
 4028 05b8 0F       		.byte	15
 4029 05b9 01       		.byte	1
 4030 05ba 01       		.byte	1
 4031 05bb 01       		.byte	1
 4032 05bc 00       		.byte	0
 4033 05bd 00       		.byte	0
 4034 05be 00       		.byte	0
 4035 05bf 00       		.byte	0
 4036 05c0 00       		.byte	0
 4037 05c1 00       		.byte	0
 4038 05c2 00       		.byte	0
 4039 05c3 00       		.byte	0
 4040 05c4 00       		.byte	0
 4041 05c5 00       		.byte	0
 4042 05c6 40       		.byte	64
 4043 05c7 38       		.byte	56
 4044 05c8 18       		.byte	24
 4045 05c9 00       		.byte	0
 4046 05ca 00       		.byte	0
 4047 05cb 00       		.byte	0
 4048 05cc 00       		.byte	0
 4049 05cd 00       		.byte	0
 4050 05ce 00       		.byte	0
 4051 05cf 00       		.byte	0
 4052 05d0 00       		.byte	0
 4053 05d1 00       		.byte	0
 4054 05d2 00       		.byte	0
 4055 05d3 00       		.byte	0
 4056 05d4 00       		.byte	0
 4057 05d5 00       		.byte	0
 4058 05d6 02       		.byte	2
ARM GAS  C:\Users\Kayas\AppData\Local\Temp\ccpxl0Kp.s 			page 84


 4059 05d7 02       		.byte	2
 4060 05d8 02       		.byte	2
 4061 05d9 02       		.byte	2
 4062 05da 00       		.byte	0
 4063 05db 00       		.byte	0
 4064 05dc 00       		.byte	0
 4065 05dd 00       		.byte	0
 4066 05de 00       		.byte	0
 4067 05df 00       		.byte	0
 4068 05e0 00       		.byte	0
 4069 05e1 00       		.byte	0
 4070 05e2 00       		.byte	0
 4071 05e3 00       		.byte	0
 4072 05e4 00       		.byte	0
 4073 05e5 00       		.byte	0
 4074 05e6 00       		.byte	0
 4075 05e7 18       		.byte	24
 4076 05e8 18       		.byte	24
 4077 05e9 00       		.byte	0
 4078 05ea 00       		.byte	0
 4079 05eb 00       		.byte	0
 4080 05ec 00       		.byte	0
 4081 05ed 00       		.byte	0
 4082 05ee 00       		.byte	0
 4083 05ef 00       		.byte	0
 4084 05f0 80       		.byte	-128
 4085 05f1 70       		.byte	112
 4086 05f2 08       		.byte	8
 4087 05f3 00       		.byte	0
 4088 05f4 00       		.byte	0
 4089 05f5 40       		.byte	64
 4090 05f6 38       		.byte	56
 4091 05f7 06       		.byte	6
 4092 05f8 01       		.byte	1
 4093 05f9 00       		.byte	0
 4094 05fa 00       		.byte	0
 4095 05fb 00       		.byte	0
 4096 05fc 00       		.byte	0
 4097 05fd E0       		.byte	-32
 4098 05fe 10       		.byte	16
 4099 05ff 08       		.byte	8
 4100 0600 88       		.byte	-120
 4101 0601 08       		.byte	8
 4102 0602 10       		.byte	16
 4103 0603 E0       		.byte	-32
 4104 0604 00       		.byte	0
 4105 0605 07       		.byte	7
 4106 0606 08       		.byte	8
 4107 0607 10       		.byte	16
 4108 0608 10       		.byte	16
 4109 0609 10       		.byte	16
 4110 060a 08       		.byte	8
 4111 060b 07       		.byte	7
 4112 060c 00       		.byte	0
 4113 060d 00       		.byte	0
 4114 060e 10       		.byte	16
 4115 060f 08       		.byte	8
ARM GAS  C:\Users\Kayas\AppData\Local\Temp\ccpxl0Kp.s 			page 85


 4116 0610 F8       		.byte	-8
 4117 0611 00       		.byte	0
 4118 0612 00       		.byte	0
 4119 0613 00       		.byte	0
 4120 0614 00       		.byte	0
 4121 0615 00       		.byte	0
 4122 0616 10       		.byte	16
 4123 0617 10       		.byte	16
 4124 0618 1F       		.byte	31
 4125 0619 10       		.byte	16
 4126 061a 10       		.byte	16
 4127 061b 00       		.byte	0
 4128 061c 00       		.byte	0
 4129 061d 10       		.byte	16
 4130 061e 08       		.byte	8
 4131 061f 08       		.byte	8
 4132 0620 08       		.byte	8
 4133 0621 08       		.byte	8
 4134 0622 98       		.byte	-104
 4135 0623 70       		.byte	112
 4136 0624 00       		.byte	0
 4137 0625 10       		.byte	16
 4138 0626 18       		.byte	24
 4139 0627 14       		.byte	20
 4140 0628 12       		.byte	18
 4141 0629 13       		.byte	19
 4142 062a 11       		.byte	17
 4143 062b 10       		.byte	16
 4144 062c 00       		.byte	0
 4145 062d 10       		.byte	16
 4146 062e 08       		.byte	8
 4147 062f 88       		.byte	-120
 4148 0630 88       		.byte	-120
 4149 0631 88       		.byte	-120
 4150 0632 48       		.byte	72
 4151 0633 70       		.byte	112
 4152 0634 00       		.byte	0
 4153 0635 08       		.byte	8
 4154 0636 10       		.byte	16
 4155 0637 10       		.byte	16
 4156 0638 10       		.byte	16
 4157 0639 10       		.byte	16
 4158 063a 19       		.byte	25
 4159 063b 0F       		.byte	15
 4160 063c 00       		.byte	0
 4161 063d 00       		.byte	0
 4162 063e 80       		.byte	-128
 4163 063f 60       		.byte	96
 4164 0640 30       		.byte	48
 4165 0641 08       		.byte	8
 4166 0642 F8       		.byte	-8
 4167 0643 00       		.byte	0
 4168 0644 00       		.byte	0
 4169 0645 03       		.byte	3
 4170 0646 02       		.byte	2
 4171 0647 02       		.byte	2
 4172 0648 02       		.byte	2
ARM GAS  C:\Users\Kayas\AppData\Local\Temp\ccpxl0Kp.s 			page 86


 4173 0649 02       		.byte	2
 4174 064a 1F       		.byte	31
 4175 064b 02       		.byte	2
 4176 064c 00       		.byte	0
 4177 064d F8       		.byte	-8
 4178 064e 48       		.byte	72
 4179 064f 48       		.byte	72
 4180 0650 48       		.byte	72
 4181 0651 48       		.byte	72
 4182 0652 88       		.byte	-120
 4183 0653 00       		.byte	0
 4184 0654 00       		.byte	0
 4185 0655 08       		.byte	8
 4186 0656 10       		.byte	16
 4187 0657 10       		.byte	16
 4188 0658 10       		.byte	16
 4189 0659 10       		.byte	16
 4190 065a 08       		.byte	8
 4191 065b 07       		.byte	7
 4192 065c 00       		.byte	0
 4193 065d E0       		.byte	-32
 4194 065e 30       		.byte	48
 4195 065f 98       		.byte	-104
 4196 0660 88       		.byte	-120
 4197 0661 88       		.byte	-120
 4198 0662 88       		.byte	-120
 4199 0663 10       		.byte	16
 4200 0664 00       		.byte	0
 4201 0665 07       		.byte	7
 4202 0666 09       		.byte	9
 4203 0667 10       		.byte	16
 4204 0668 10       		.byte	16
 4205 0669 10       		.byte	16
 4206 066a 19       		.byte	25
 4207 066b 0F       		.byte	15
 4208 066c 00       		.byte	0
 4209 066d 08       		.byte	8
 4210 066e 08       		.byte	8
 4211 066f 08       		.byte	8
 4212 0670 08       		.byte	8
 4213 0671 C8       		.byte	-56
 4214 0672 38       		.byte	56
 4215 0673 18       		.byte	24
 4216 0674 00       		.byte	0
 4217 0675 00       		.byte	0
 4218 0676 10       		.byte	16
 4219 0677 0C       		.byte	12
 4220 0678 03       		.byte	3
 4221 0679 00       		.byte	0
 4222 067a 00       		.byte	0
 4223 067b 00       		.byte	0
 4224 067c 00       		.byte	0
 4225 067d 70       		.byte	112
 4226 067e 88       		.byte	-120
 4227 067f 88       		.byte	-120
 4228 0680 88       		.byte	-120
 4229 0681 88       		.byte	-120
ARM GAS  C:\Users\Kayas\AppData\Local\Temp\ccpxl0Kp.s 			page 87


 4230 0682 88       		.byte	-120
 4231 0683 70       		.byte	112
 4232 0684 00       		.byte	0
 4233 0685 0F       		.byte	15
 4234 0686 19       		.byte	25
 4235 0687 10       		.byte	16
 4236 0688 10       		.byte	16
 4237 0689 10       		.byte	16
 4238 068a 19       		.byte	25
 4239 068b 0F       		.byte	15
 4240 068c 00       		.byte	0
 4241 068d F0       		.byte	-16
 4242 068e 98       		.byte	-104
 4243 068f 08       		.byte	8
 4244 0690 08       		.byte	8
 4245 0691 08       		.byte	8
 4246 0692 90       		.byte	-112
 4247 0693 E0       		.byte	-32
 4248 0694 00       		.byte	0
 4249 0695 08       		.byte	8
 4250 0696 11       		.byte	17
 4251 0697 11       		.byte	17
 4252 0698 11       		.byte	17
 4253 0699 19       		.byte	25
 4254 069a 0C       		.byte	12
 4255 069b 07       		.byte	7
 4256 069c 00       		.byte	0
 4257 069d 00       		.byte	0
 4258 069e 00       		.byte	0
 4259 069f C0       		.byte	-64
 4260 06a0 C0       		.byte	-64
 4261 06a1 00       		.byte	0
 4262 06a2 00       		.byte	0
 4263 06a3 00       		.byte	0
 4264 06a4 00       		.byte	0
 4265 06a5 00       		.byte	0
 4266 06a6 00       		.byte	0
 4267 06a7 18       		.byte	24
 4268 06a8 18       		.byte	24
 4269 06a9 00       		.byte	0
 4270 06aa 00       		.byte	0
 4271 06ab 00       		.byte	0
 4272 06ac 00       		.byte	0
 4273 06ad 00       		.byte	0
 4274 06ae 00       		.byte	0
 4275 06af C0       		.byte	-64
 4276 06b0 C0       		.byte	-64
 4277 06b1 00       		.byte	0
 4278 06b2 00       		.byte	0
 4279 06b3 00       		.byte	0
 4280 06b4 00       		.byte	0
 4281 06b5 00       		.byte	0
 4282 06b6 40       		.byte	64
 4283 06b7 38       		.byte	56
 4284 06b8 18       		.byte	24
 4285 06b9 00       		.byte	0
 4286 06ba 00       		.byte	0
ARM GAS  C:\Users\Kayas\AppData\Local\Temp\ccpxl0Kp.s 			page 88


 4287 06bb 00       		.byte	0
 4288 06bc 00       		.byte	0
 4289 06bd 00       		.byte	0
 4290 06be 80       		.byte	-128
 4291 06bf 80       		.byte	-128
 4292 06c0 C0       		.byte	-64
 4293 06c1 40       		.byte	64
 4294 06c2 40       		.byte	64
 4295 06c3 20       		.byte	32
 4296 06c4 00       		.byte	0
 4297 06c5 01       		.byte	1
 4298 06c6 02       		.byte	2
 4299 06c7 02       		.byte	2
 4300 06c8 06       		.byte	6
 4301 06c9 04       		.byte	4
 4302 06ca 04       		.byte	4
 4303 06cb 08       		.byte	8
 4304 06cc 00       		.byte	0
 4305 06cd 40       		.byte	64
 4306 06ce 40       		.byte	64
 4307 06cf 40       		.byte	64
 4308 06d0 40       		.byte	64
 4309 06d1 40       		.byte	64
 4310 06d2 40       		.byte	64
 4311 06d3 40       		.byte	64
 4312 06d4 00       		.byte	0
 4313 06d5 02       		.byte	2
 4314 06d6 02       		.byte	2
 4315 06d7 02       		.byte	2
 4316 06d8 02       		.byte	2
 4317 06d9 02       		.byte	2
 4318 06da 02       		.byte	2
 4319 06db 02       		.byte	2
 4320 06dc 00       		.byte	0
 4321 06dd 20       		.byte	32
 4322 06de 40       		.byte	64
 4323 06df 40       		.byte	64
 4324 06e0 C0       		.byte	-64
 4325 06e1 80       		.byte	-128
 4326 06e2 80       		.byte	-128
 4327 06e3 00       		.byte	0
 4328 06e4 00       		.byte	0
 4329 06e5 08       		.byte	8
 4330 06e6 04       		.byte	4
 4331 06e7 04       		.byte	4
 4332 06e8 06       		.byte	6
 4333 06e9 02       		.byte	2
 4334 06ea 02       		.byte	2
 4335 06eb 01       		.byte	1
 4336 06ec 00       		.byte	0
 4337 06ed 10       		.byte	16
 4338 06ee 08       		.byte	8
 4339 06ef 88       		.byte	-120
 4340 06f0 C8       		.byte	-56
 4341 06f1 70       		.byte	112
 4342 06f2 00       		.byte	0
 4343 06f3 00       		.byte	0
ARM GAS  C:\Users\Kayas\AppData\Local\Temp\ccpxl0Kp.s 			page 89


 4344 06f4 00       		.byte	0
 4345 06f5 00       		.byte	0
 4346 06f6 00       		.byte	0
 4347 06f7 1B       		.byte	27
 4348 06f8 00       		.byte	0
 4349 06f9 00       		.byte	0
 4350 06fa 00       		.byte	0
 4351 06fb 00       		.byte	0
 4352 06fc 00       		.byte	0
 4353 06fd C0       		.byte	-64
 4354 06fe 30       		.byte	48
 4355 06ff 18       		.byte	24
 4356 0700 88       		.byte	-120
 4357 0701 48       		.byte	72
 4358 0702 58       		.byte	88
 4359 0703 F0       		.byte	-16
 4360 0704 00       		.byte	0
 4361 0705 0F       		.byte	15
 4362 0706 30       		.byte	48
 4363 0707 20       		.byte	32
 4364 0708 47       		.byte	71
 4365 0709 48       		.byte	72
 4366 070a 48       		.byte	72
 4367 070b 0F       		.byte	15
 4368 070c 00       		.byte	0
 4369 070d 00       		.byte	0
 4370 070e C0       		.byte	-64
 4371 070f 30       		.byte	48
 4372 0710 08       		.byte	8
 4373 0711 30       		.byte	48
 4374 0712 C0       		.byte	-64
 4375 0713 00       		.byte	0
 4376 0714 00       		.byte	0
 4377 0715 18       		.byte	24
 4378 0716 07       		.byte	7
 4379 0717 02       		.byte	2
 4380 0718 02       		.byte	2
 4381 0719 02       		.byte	2
 4382 071a 07       		.byte	7
 4383 071b 18       		.byte	24
 4384 071c 00       		.byte	0
 4385 071d F8       		.byte	-8
 4386 071e 88       		.byte	-120
 4387 071f 88       		.byte	-120
 4388 0720 88       		.byte	-120
 4389 0721 88       		.byte	-120
 4390 0722 88       		.byte	-120
 4391 0723 70       		.byte	112
 4392 0724 00       		.byte	0
 4393 0725 1F       		.byte	31
 4394 0726 10       		.byte	16
 4395 0727 10       		.byte	16
 4396 0728 10       		.byte	16
 4397 0729 10       		.byte	16
 4398 072a 19       		.byte	25
 4399 072b 0F       		.byte	15
 4400 072c 00       		.byte	0
ARM GAS  C:\Users\Kayas\AppData\Local\Temp\ccpxl0Kp.s 			page 90


 4401 072d E0       		.byte	-32
 4402 072e 10       		.byte	16
 4403 072f 08       		.byte	8
 4404 0730 08       		.byte	8
 4405 0731 08       		.byte	8
 4406 0732 08       		.byte	8
 4407 0733 10       		.byte	16
 4408 0734 00       		.byte	0
 4409 0735 07       		.byte	7
 4410 0736 08       		.byte	8
 4411 0737 10       		.byte	16
 4412 0738 10       		.byte	16
 4413 0739 10       		.byte	16
 4414 073a 10       		.byte	16
 4415 073b 08       		.byte	8
 4416 073c 00       		.byte	0
 4417 073d F8       		.byte	-8
 4418 073e 08       		.byte	8
 4419 073f 08       		.byte	8
 4420 0740 08       		.byte	8
 4421 0741 08       		.byte	8
 4422 0742 10       		.byte	16
 4423 0743 E0       		.byte	-32
 4424 0744 00       		.byte	0
 4425 0745 1F       		.byte	31
 4426 0746 10       		.byte	16
 4427 0747 10       		.byte	16
 4428 0748 10       		.byte	16
 4429 0749 10       		.byte	16
 4430 074a 08       		.byte	8
 4431 074b 07       		.byte	7
 4432 074c 00       		.byte	0
 4433 074d F8       		.byte	-8
 4434 074e 88       		.byte	-120
 4435 074f 88       		.byte	-120
 4436 0750 88       		.byte	-120
 4437 0751 88       		.byte	-120
 4438 0752 88       		.byte	-120
 4439 0753 88       		.byte	-120
 4440 0754 00       		.byte	0
 4441 0755 1F       		.byte	31
 4442 0756 10       		.byte	16
 4443 0757 10       		.byte	16
 4444 0758 10       		.byte	16
 4445 0759 10       		.byte	16
 4446 075a 10       		.byte	16
 4447 075b 10       		.byte	16
 4448 075c 00       		.byte	0
 4449 075d F8       		.byte	-8
 4450 075e 88       		.byte	-120
 4451 075f 88       		.byte	-120
 4452 0760 88       		.byte	-120
 4453 0761 88       		.byte	-120
 4454 0762 88       		.byte	-120
 4455 0763 88       		.byte	-120
 4456 0764 00       		.byte	0
 4457 0765 1F       		.byte	31
ARM GAS  C:\Users\Kayas\AppData\Local\Temp\ccpxl0Kp.s 			page 91


 4458 0766 00       		.byte	0
 4459 0767 00       		.byte	0
 4460 0768 00       		.byte	0
 4461 0769 00       		.byte	0
 4462 076a 00       		.byte	0
 4463 076b 00       		.byte	0
 4464 076c 00       		.byte	0
 4465 076d E0       		.byte	-32
 4466 076e 10       		.byte	16
 4467 076f 08       		.byte	8
 4468 0770 08       		.byte	8
 4469 0771 08       		.byte	8
 4470 0772 08       		.byte	8
 4471 0773 10       		.byte	16
 4472 0774 00       		.byte	0
 4473 0775 07       		.byte	7
 4474 0776 08       		.byte	8
 4475 0777 10       		.byte	16
 4476 0778 10       		.byte	16
 4477 0779 10       		.byte	16
 4478 077a 11       		.byte	17
 4479 077b 0F       		.byte	15
 4480 077c 00       		.byte	0
 4481 077d F8       		.byte	-8
 4482 077e 80       		.byte	-128
 4483 077f 80       		.byte	-128
 4484 0780 80       		.byte	-128
 4485 0781 80       		.byte	-128
 4486 0782 80       		.byte	-128
 4487 0783 F8       		.byte	-8
 4488 0784 00       		.byte	0
 4489 0785 1F       		.byte	31
 4490 0786 00       		.byte	0
 4491 0787 00       		.byte	0
 4492 0788 00       		.byte	0
 4493 0789 00       		.byte	0
 4494 078a 00       		.byte	0
 4495 078b 1F       		.byte	31
 4496 078c 00       		.byte	0
 4497 078d 00       		.byte	0
 4498 078e 08       		.byte	8
 4499 078f 08       		.byte	8
 4500 0790 F8       		.byte	-8
 4501 0791 08       		.byte	8
 4502 0792 08       		.byte	8
 4503 0793 00       		.byte	0
 4504 0794 00       		.byte	0
 4505 0795 00       		.byte	0
 4506 0796 10       		.byte	16
 4507 0797 10       		.byte	16
 4508 0798 1F       		.byte	31
 4509 0799 10       		.byte	16
 4510 079a 10       		.byte	16
 4511 079b 00       		.byte	0
 4512 079c 00       		.byte	0
 4513 079d 00       		.byte	0
 4514 079e 00       		.byte	0
ARM GAS  C:\Users\Kayas\AppData\Local\Temp\ccpxl0Kp.s 			page 92


 4515 079f 08       		.byte	8
 4516 07a0 08       		.byte	8
 4517 07a1 08       		.byte	8
 4518 07a2 F8       		.byte	-8
 4519 07a3 00       		.byte	0
 4520 07a4 00       		.byte	0
 4521 07a5 08       		.byte	8
 4522 07a6 10       		.byte	16
 4523 07a7 10       		.byte	16
 4524 07a8 10       		.byte	16
 4525 07a9 18       		.byte	24
 4526 07aa 0F       		.byte	15
 4527 07ab 00       		.byte	0
 4528 07ac 00       		.byte	0
 4529 07ad F8       		.byte	-8
 4530 07ae 80       		.byte	-128
 4531 07af C0       		.byte	-64
 4532 07b0 20       		.byte	32
 4533 07b1 10       		.byte	16
 4534 07b2 08       		.byte	8
 4535 07b3 00       		.byte	0
 4536 07b4 00       		.byte	0
 4537 07b5 1F       		.byte	31
 4538 07b6 00       		.byte	0
 4539 07b7 00       		.byte	0
 4540 07b8 03       		.byte	3
 4541 07b9 06       		.byte	6
 4542 07ba 08       		.byte	8
 4543 07bb 10       		.byte	16
 4544 07bc 00       		.byte	0
 4545 07bd F8       		.byte	-8
 4546 07be 00       		.byte	0
 4547 07bf 00       		.byte	0
 4548 07c0 00       		.byte	0
 4549 07c1 00       		.byte	0
 4550 07c2 00       		.byte	0
 4551 07c3 00       		.byte	0
 4552 07c4 00       		.byte	0
 4553 07c5 1F       		.byte	31
 4554 07c6 10       		.byte	16
 4555 07c7 10       		.byte	16
 4556 07c8 10       		.byte	16
 4557 07c9 10       		.byte	16
 4558 07ca 10       		.byte	16
 4559 07cb 10       		.byte	16
 4560 07cc 00       		.byte	0
 4561 07cd F8       		.byte	-8
 4562 07ce 18       		.byte	24
 4563 07cf E0       		.byte	-32
 4564 07d0 00       		.byte	0
 4565 07d1 E0       		.byte	-32
 4566 07d2 18       		.byte	24
 4567 07d3 F8       		.byte	-8
 4568 07d4 00       		.byte	0
 4569 07d5 1F       		.byte	31
 4570 07d6 00       		.byte	0
 4571 07d7 00       		.byte	0
ARM GAS  C:\Users\Kayas\AppData\Local\Temp\ccpxl0Kp.s 			page 93


 4572 07d8 01       		.byte	1
 4573 07d9 00       		.byte	0
 4574 07da 00       		.byte	0
 4575 07db 1F       		.byte	31
 4576 07dc 00       		.byte	0
 4577 07dd F8       		.byte	-8
 4578 07de 18       		.byte	24
 4579 07df 60       		.byte	96
 4580 07e0 80       		.byte	-128
 4581 07e1 00       		.byte	0
 4582 07e2 00       		.byte	0
 4583 07e3 F8       		.byte	-8
 4584 07e4 00       		.byte	0
 4585 07e5 1F       		.byte	31
 4586 07e6 00       		.byte	0
 4587 07e7 00       		.byte	0
 4588 07e8 01       		.byte	1
 4589 07e9 06       		.byte	6
 4590 07ea 18       		.byte	24
 4591 07eb 1F       		.byte	31
 4592 07ec 00       		.byte	0
 4593 07ed E0       		.byte	-32
 4594 07ee 10       		.byte	16
 4595 07ef 08       		.byte	8
 4596 07f0 08       		.byte	8
 4597 07f1 08       		.byte	8
 4598 07f2 10       		.byte	16
 4599 07f3 E0       		.byte	-32
 4600 07f4 00       		.byte	0
 4601 07f5 07       		.byte	7
 4602 07f6 08       		.byte	8
 4603 07f7 10       		.byte	16
 4604 07f8 10       		.byte	16
 4605 07f9 10       		.byte	16
 4606 07fa 08       		.byte	8
 4607 07fb 07       		.byte	7
 4608 07fc 00       		.byte	0
 4609 07fd F8       		.byte	-8
 4610 07fe 08       		.byte	8
 4611 07ff 08       		.byte	8
 4612 0800 08       		.byte	8
 4613 0801 08       		.byte	8
 4614 0802 98       		.byte	-104
 4615 0803 F0       		.byte	-16
 4616 0804 00       		.byte	0
 4617 0805 1F       		.byte	31
 4618 0806 01       		.byte	1
 4619 0807 01       		.byte	1
 4620 0808 01       		.byte	1
 4621 0809 01       		.byte	1
 4622 080a 01       		.byte	1
 4623 080b 00       		.byte	0
 4624 080c 00       		.byte	0
 4625 080d E0       		.byte	-32
 4626 080e 10       		.byte	16
 4627 080f 08       		.byte	8
 4628 0810 08       		.byte	8
ARM GAS  C:\Users\Kayas\AppData\Local\Temp\ccpxl0Kp.s 			page 94


 4629 0811 08       		.byte	8
 4630 0812 10       		.byte	16
 4631 0813 E0       		.byte	-32
 4632 0814 00       		.byte	0
 4633 0815 07       		.byte	7
 4634 0816 08       		.byte	8
 4635 0817 10       		.byte	16
 4636 0818 10       		.byte	16
 4637 0819 30       		.byte	48
 4638 081a 78       		.byte	120
 4639 081b 07       		.byte	7
 4640 081c 00       		.byte	0
 4641 081d F8       		.byte	-8
 4642 081e 08       		.byte	8
 4643 081f 08       		.byte	8
 4644 0820 08       		.byte	8
 4645 0821 08       		.byte	8
 4646 0822 98       		.byte	-104
 4647 0823 F0       		.byte	-16
 4648 0824 00       		.byte	0
 4649 0825 1F       		.byte	31
 4650 0826 01       		.byte	1
 4651 0827 01       		.byte	1
 4652 0828 01       		.byte	1
 4653 0829 01       		.byte	1
 4654 082a 02       		.byte	2
 4655 082b 0C       		.byte	12
 4656 082c 00       		.byte	0
 4657 082d 70       		.byte	112
 4658 082e 90       		.byte	-112
 4659 082f 88       		.byte	-120
 4660 0830 08       		.byte	8
 4661 0831 08       		.byte	8
 4662 0832 08       		.byte	8
 4663 0833 10       		.byte	16
 4664 0834 00       		.byte	0
 4665 0835 08       		.byte	8
 4666 0836 10       		.byte	16
 4667 0837 10       		.byte	16
 4668 0838 11       		.byte	17
 4669 0839 11       		.byte	17
 4670 083a 19       		.byte	25
 4671 083b 0E       		.byte	14
 4672 083c 00       		.byte	0
 4673 083d 08       		.byte	8
 4674 083e 08       		.byte	8
 4675 083f 08       		.byte	8
 4676 0840 F8       		.byte	-8
 4677 0841 08       		.byte	8
 4678 0842 08       		.byte	8
 4679 0843 08       		.byte	8
 4680 0844 00       		.byte	0
 4681 0845 00       		.byte	0
 4682 0846 00       		.byte	0
 4683 0847 00       		.byte	0
 4684 0848 1F       		.byte	31
 4685 0849 00       		.byte	0
ARM GAS  C:\Users\Kayas\AppData\Local\Temp\ccpxl0Kp.s 			page 95


 4686 084a 00       		.byte	0
 4687 084b 00       		.byte	0
 4688 084c 00       		.byte	0
 4689 084d F8       		.byte	-8
 4690 084e 00       		.byte	0
 4691 084f 00       		.byte	0
 4692 0850 00       		.byte	0
 4693 0851 00       		.byte	0
 4694 0852 00       		.byte	0
 4695 0853 F8       		.byte	-8
 4696 0854 00       		.byte	0
 4697 0855 0F       		.byte	15
 4698 0856 18       		.byte	24
 4699 0857 10       		.byte	16
 4700 0858 10       		.byte	16
 4701 0859 10       		.byte	16
 4702 085a 18       		.byte	24
 4703 085b 0F       		.byte	15
 4704 085c 00       		.byte	0
 4705 085d 18       		.byte	24
 4706 085e E0       		.byte	-32
 4707 085f 00       		.byte	0
 4708 0860 00       		.byte	0
 4709 0861 00       		.byte	0
 4710 0862 E0       		.byte	-32
 4711 0863 18       		.byte	24
 4712 0864 00       		.byte	0
 4713 0865 00       		.byte	0
 4714 0866 01       		.byte	1
 4715 0867 0E       		.byte	14
 4716 0868 10       		.byte	16
 4717 0869 0E       		.byte	14
 4718 086a 01       		.byte	1
 4719 086b 00       		.byte	0
 4720 086c 78       		.byte	120
 4721 086d 80       		.byte	-128
 4722 086e 00       		.byte	0
 4723 086f C0       		.byte	-64
 4724 0870 C0       		.byte	-64
 4725 0871 00       		.byte	0
 4726 0872 80       		.byte	-128
 4727 0873 78       		.byte	120
 4728 0874 00       		.byte	0
 4729 0875 03       		.byte	3
 4730 0876 1C       		.byte	28
 4731 0877 03       		.byte	3
 4732 0878 03       		.byte	3
 4733 0879 1C       		.byte	28
 4734 087a 03       		.byte	3
 4735 087b 00       		.byte	0
 4736 087c 00       		.byte	0
 4737 087d 08       		.byte	8
 4738 087e 10       		.byte	16
 4739 087f 60       		.byte	96
 4740 0880 80       		.byte	-128
 4741 0881 60       		.byte	96
 4742 0882 10       		.byte	16
ARM GAS  C:\Users\Kayas\AppData\Local\Temp\ccpxl0Kp.s 			page 96


 4743 0883 08       		.byte	8
 4744 0884 00       		.byte	0
 4745 0885 10       		.byte	16
 4746 0886 0C       		.byte	12
 4747 0887 03       		.byte	3
 4748 0888 00       		.byte	0
 4749 0889 03       		.byte	3
 4750 088a 0C       		.byte	12
 4751 088b 10       		.byte	16
 4752 088c 00       		.byte	0
 4753 088d 08       		.byte	8
 4754 088e 30       		.byte	48
 4755 088f C0       		.byte	-64
 4756 0890 80       		.byte	-128
 4757 0891 C0       		.byte	-64
 4758 0892 30       		.byte	48
 4759 0893 08       		.byte	8
 4760 0894 00       		.byte	0
 4761 0895 00       		.byte	0
 4762 0896 00       		.byte	0
 4763 0897 00       		.byte	0
 4764 0898 1F       		.byte	31
 4765 0899 00       		.byte	0
 4766 089a 00       		.byte	0
 4767 089b 00       		.byte	0
 4768 089c 00       		.byte	0
 4769 089d 08       		.byte	8
 4770 089e 08       		.byte	8
 4771 089f 08       		.byte	8
 4772 08a0 88       		.byte	-120
 4773 08a1 48       		.byte	72
 4774 08a2 38       		.byte	56
 4775 08a3 18       		.byte	24
 4776 08a4 00       		.byte	0
 4777 08a5 18       		.byte	24
 4778 08a6 1C       		.byte	28
 4779 08a7 12       		.byte	18
 4780 08a8 11       		.byte	17
 4781 08a9 10       		.byte	16
 4782 08aa 10       		.byte	16
 4783 08ab 10       		.byte	16
 4784 08ac 00       		.byte	0
 4785 08ad 00       		.byte	0
 4786 08ae 00       		.byte	0
 4787 08af FC       		.byte	-4
 4788 08b0 04       		.byte	4
 4789 08b1 04       		.byte	4
 4790 08b2 00       		.byte	0
 4791 08b3 00       		.byte	0
 4792 08b4 00       		.byte	0
 4793 08b5 00       		.byte	0
 4794 08b6 00       		.byte	0
 4795 08b7 3F       		.byte	63
 4796 08b8 20       		.byte	32
 4797 08b9 20       		.byte	32
 4798 08ba 00       		.byte	0
 4799 08bb 00       		.byte	0
ARM GAS  C:\Users\Kayas\AppData\Local\Temp\ccpxl0Kp.s 			page 97


 4800 08bc 00       		.byte	0
 4801 08bd 08       		.byte	8
 4802 08be 70       		.byte	112
 4803 08bf 80       		.byte	-128
 4804 08c0 00       		.byte	0
 4805 08c1 00       		.byte	0
 4806 08c2 00       		.byte	0
 4807 08c3 00       		.byte	0
 4808 08c4 00       		.byte	0
 4809 08c5 00       		.byte	0
 4810 08c6 00       		.byte	0
 4811 08c7 01       		.byte	1
 4812 08c8 06       		.byte	6
 4813 08c9 38       		.byte	56
 4814 08ca 40       		.byte	64
 4815 08cb 00       		.byte	0
 4816 08cc 00       		.byte	0
 4817 08cd 00       		.byte	0
 4818 08ce 04       		.byte	4
 4819 08cf 04       		.byte	4
 4820 08d0 FC       		.byte	-4
 4821 08d1 00       		.byte	0
 4822 08d2 00       		.byte	0
 4823 08d3 00       		.byte	0
 4824 08d4 00       		.byte	0
 4825 08d5 00       		.byte	0
 4826 08d6 20       		.byte	32
 4827 08d7 20       		.byte	32
 4828 08d8 3F       		.byte	63
 4829 08d9 00       		.byte	0
 4830 08da 00       		.byte	0
 4831 08db 00       		.byte	0
 4832 08dc 00       		.byte	0
 4833 08dd 40       		.byte	64
 4834 08de 60       		.byte	96
 4835 08df 10       		.byte	16
 4836 08e0 08       		.byte	8
 4837 08e1 10       		.byte	16
 4838 08e2 60       		.byte	96
 4839 08e3 40       		.byte	64
 4840 08e4 00       		.byte	0
 4841 08e5 00       		.byte	0
 4842 08e6 00       		.byte	0
 4843 08e7 00       		.byte	0
 4844 08e8 00       		.byte	0
 4845 08e9 00       		.byte	0
 4846 08ea 00       		.byte	0
 4847 08eb 00       		.byte	0
 4848 08ec 00       		.byte	0
 4849 08ed 00       		.byte	0
 4850 08ee 00       		.byte	0
 4851 08ef 00       		.byte	0
 4852 08f0 00       		.byte	0
 4853 08f1 00       		.byte	0
 4854 08f2 00       		.byte	0
 4855 08f3 00       		.byte	0
 4856 08f4 80       		.byte	-128
ARM GAS  C:\Users\Kayas\AppData\Local\Temp\ccpxl0Kp.s 			page 98


 4857 08f5 80       		.byte	-128
 4858 08f6 80       		.byte	-128
 4859 08f7 80       		.byte	-128
 4860 08f8 80       		.byte	-128
 4861 08f9 80       		.byte	-128
 4862 08fa 80       		.byte	-128
 4863 08fb 80       		.byte	-128
 4864 08fc 00       		.byte	0
 4865 08fd 00       		.byte	0
 4866 08fe 02       		.byte	2
 4867 08ff 06       		.byte	6
 4868 0900 08       		.byte	8
 4869 0901 00       		.byte	0
 4870 0902 00       		.byte	0
 4871 0903 00       		.byte	0
 4872 0904 00       		.byte	0
 4873 0905 00       		.byte	0
 4874 0906 00       		.byte	0
 4875 0907 00       		.byte	0
 4876 0908 00       		.byte	0
 4877 0909 00       		.byte	0
 4878 090a 00       		.byte	0
 4879 090b 00       		.byte	0
 4880 090c 00       		.byte	0
 4881 090d 00       		.byte	0
 4882 090e 40       		.byte	64
 4883 090f 20       		.byte	32
 4884 0910 20       		.byte	32
 4885 0911 20       		.byte	32
 4886 0912 C0       		.byte	-64
 4887 0913 00       		.byte	0
 4888 0914 00       		.byte	0
 4889 0915 0E       		.byte	14
 4890 0916 11       		.byte	17
 4891 0917 11       		.byte	17
 4892 0918 11       		.byte	17
 4893 0919 09       		.byte	9
 4894 091a 1F       		.byte	31
 4895 091b 00       		.byte	0
 4896 091c 00       		.byte	0
 4897 091d FC       		.byte	-4
 4898 091e 60       		.byte	96
 4899 091f 20       		.byte	32
 4900 0920 20       		.byte	32
 4901 0921 60       		.byte	96
 4902 0922 80       		.byte	-128
 4903 0923 00       		.byte	0
 4904 0924 00       		.byte	0
 4905 0925 1F       		.byte	31
 4906 0926 08       		.byte	8
 4907 0927 10       		.byte	16
 4908 0928 10       		.byte	16
 4909 0929 18       		.byte	24
 4910 092a 07       		.byte	7
 4911 092b 00       		.byte	0
 4912 092c 00       		.byte	0
 4913 092d 80       		.byte	-128
ARM GAS  C:\Users\Kayas\AppData\Local\Temp\ccpxl0Kp.s 			page 99


 4914 092e 40       		.byte	64
 4915 092f 20       		.byte	32
 4916 0930 20       		.byte	32
 4917 0931 20       		.byte	32
 4918 0932 40       		.byte	64
 4919 0933 00       		.byte	0
 4920 0934 00       		.byte	0
 4921 0935 07       		.byte	7
 4922 0936 08       		.byte	8
 4923 0937 10       		.byte	16
 4924 0938 10       		.byte	16
 4925 0939 10       		.byte	16
 4926 093a 08       		.byte	8
 4927 093b 00       		.byte	0
 4928 093c 00       		.byte	0
 4929 093d 80       		.byte	-128
 4930 093e 60       		.byte	96
 4931 093f 20       		.byte	32
 4932 0940 20       		.byte	32
 4933 0941 60       		.byte	96
 4934 0942 FC       		.byte	-4
 4935 0943 00       		.byte	0
 4936 0944 00       		.byte	0
 4937 0945 07       		.byte	7
 4938 0946 18       		.byte	24
 4939 0947 10       		.byte	16
 4940 0948 10       		.byte	16
 4941 0949 08       		.byte	8
 4942 094a 1F       		.byte	31
 4943 094b 00       		.byte	0
 4944 094c 00       		.byte	0
 4945 094d 80       		.byte	-128
 4946 094e 60       		.byte	96
 4947 094f 20       		.byte	32
 4948 0950 20       		.byte	32
 4949 0951 60       		.byte	96
 4950 0952 C0       		.byte	-64
 4951 0953 00       		.byte	0
 4952 0954 00       		.byte	0
 4953 0955 07       		.byte	7
 4954 0956 09       		.byte	9
 4955 0957 11       		.byte	17
 4956 0958 11       		.byte	17
 4957 0959 11       		.byte	17
 4958 095a 09       		.byte	9
 4959 095b 00       		.byte	0
 4960 095c 00       		.byte	0
 4961 095d 20       		.byte	32
 4962 095e 20       		.byte	32
 4963 095f F8       		.byte	-8
 4964 0960 24       		.byte	36
 4965 0961 24       		.byte	36
 4966 0962 24       		.byte	36
 4967 0963 00       		.byte	0
 4968 0964 00       		.byte	0
 4969 0965 00       		.byte	0
 4970 0966 00       		.byte	0
ARM GAS  C:\Users\Kayas\AppData\Local\Temp\ccpxl0Kp.s 			page 100


 4971 0967 1F       		.byte	31
 4972 0968 00       		.byte	0
 4973 0969 00       		.byte	0
 4974 096a 00       		.byte	0
 4975 096b 00       		.byte	0
 4976 096c 00       		.byte	0
 4977 096d 80       		.byte	-128
 4978 096e 60       		.byte	96
 4979 096f 20       		.byte	32
 4980 0970 20       		.byte	32
 4981 0971 40       		.byte	64
 4982 0972 E0       		.byte	-32
 4983 0973 00       		.byte	0
 4984 0974 00       		.byte	0
 4985 0975 07       		.byte	7
 4986 0976 58       		.byte	88
 4987 0977 90       		.byte	-112
 4988 0978 90       		.byte	-112
 4989 0979 88       		.byte	-120
 4990 097a 7F       		.byte	127
 4991 097b 00       		.byte	0
 4992 097c 00       		.byte	0
 4993 097d FC       		.byte	-4
 4994 097e 40       		.byte	64
 4995 097f 20       		.byte	32
 4996 0980 20       		.byte	32
 4997 0981 20       		.byte	32
 4998 0982 C0       		.byte	-64
 4999 0983 00       		.byte	0
 5000 0984 00       		.byte	0
 5001 0985 1F       		.byte	31
 5002 0986 00       		.byte	0
 5003 0987 00       		.byte	0
 5004 0988 00       		.byte	0
 5005 0989 00       		.byte	0
 5006 098a 1F       		.byte	31
 5007 098b 00       		.byte	0
 5008 098c 00       		.byte	0
 5009 098d 00       		.byte	0
 5010 098e 20       		.byte	32
 5011 098f 20       		.byte	32
 5012 0990 EC       		.byte	-20
 5013 0991 00       		.byte	0
 5014 0992 00       		.byte	0
 5015 0993 00       		.byte	0
 5016 0994 00       		.byte	0
 5017 0995 10       		.byte	16
 5018 0996 10       		.byte	16
 5019 0997 10       		.byte	16
 5020 0998 1F       		.byte	31
 5021 0999 10       		.byte	16
 5022 099a 10       		.byte	16
 5023 099b 10       		.byte	16
 5024 099c 00       		.byte	0
 5025 099d 00       		.byte	0
 5026 099e 20       		.byte	32
 5027 099f 20       		.byte	32
ARM GAS  C:\Users\Kayas\AppData\Local\Temp\ccpxl0Kp.s 			page 101


 5028 09a0 EC       		.byte	-20
 5029 09a1 00       		.byte	0
 5030 09a2 00       		.byte	0
 5031 09a3 00       		.byte	0
 5032 09a4 00       		.byte	0
 5033 09a5 80       		.byte	-128
 5034 09a6 80       		.byte	-128
 5035 09a7 80       		.byte	-128
 5036 09a8 7F       		.byte	127
 5037 09a9 00       		.byte	0
 5038 09aa 00       		.byte	0
 5039 09ab 00       		.byte	0
 5040 09ac 00       		.byte	0
 5041 09ad FC       		.byte	-4
 5042 09ae 00       		.byte	0
 5043 09af 80       		.byte	-128
 5044 09b0 40       		.byte	64
 5045 09b1 20       		.byte	32
 5046 09b2 00       		.byte	0
 5047 09b3 00       		.byte	0
 5048 09b4 00       		.byte	0
 5049 09b5 1F       		.byte	31
 5050 09b6 01       		.byte	1
 5051 09b7 01       		.byte	1
 5052 09b8 06       		.byte	6
 5053 09b9 08       		.byte	8
 5054 09ba 10       		.byte	16
 5055 09bb 00       		.byte	0
 5056 09bc 04       		.byte	4
 5057 09bd 04       		.byte	4
 5058 09be 04       		.byte	4
 5059 09bf FC       		.byte	-4
 5060 09c0 00       		.byte	0
 5061 09c1 00       		.byte	0
 5062 09c2 00       		.byte	0
 5063 09c3 00       		.byte	0
 5064 09c4 00       		.byte	0
 5065 09c5 00       		.byte	0
 5066 09c6 00       		.byte	0
 5067 09c7 0F       		.byte	15
 5068 09c8 10       		.byte	16
 5069 09c9 10       		.byte	16
 5070 09ca 10       		.byte	16
 5071 09cb 00       		.byte	0
 5072 09cc 00       		.byte	0
 5073 09cd E0       		.byte	-32
 5074 09ce 20       		.byte	32
 5075 09cf 20       		.byte	32
 5076 09d0 E0       		.byte	-32
 5077 09d1 20       		.byte	32
 5078 09d2 20       		.byte	32
 5079 09d3 C0       		.byte	-64
 5080 09d4 00       		.byte	0
 5081 09d5 1F       		.byte	31
 5082 09d6 00       		.byte	0
 5083 09d7 00       		.byte	0
 5084 09d8 1F       		.byte	31
ARM GAS  C:\Users\Kayas\AppData\Local\Temp\ccpxl0Kp.s 			page 102


 5085 09d9 00       		.byte	0
 5086 09da 00       		.byte	0
 5087 09db 1F       		.byte	31
 5088 09dc 00       		.byte	0
 5089 09dd E0       		.byte	-32
 5090 09de 40       		.byte	64
 5091 09df 20       		.byte	32
 5092 09e0 20       		.byte	32
 5093 09e1 20       		.byte	32
 5094 09e2 C0       		.byte	-64
 5095 09e3 00       		.byte	0
 5096 09e4 00       		.byte	0
 5097 09e5 1F       		.byte	31
 5098 09e6 00       		.byte	0
 5099 09e7 00       		.byte	0
 5100 09e8 00       		.byte	0
 5101 09e9 00       		.byte	0
 5102 09ea 1F       		.byte	31
 5103 09eb 00       		.byte	0
 5104 09ec 00       		.byte	0
 5105 09ed C0       		.byte	-64
 5106 09ee 60       		.byte	96
 5107 09ef 20       		.byte	32
 5108 09f0 20       		.byte	32
 5109 09f1 60       		.byte	96
 5110 09f2 C0       		.byte	-64
 5111 09f3 00       		.byte	0
 5112 09f4 00       		.byte	0
 5113 09f5 0F       		.byte	15
 5114 09f6 18       		.byte	24
 5115 09f7 10       		.byte	16
 5116 09f8 10       		.byte	16
 5117 09f9 18       		.byte	24
 5118 09fa 0F       		.byte	15
 5119 09fb 00       		.byte	0
 5120 09fc 00       		.byte	0
 5121 09fd E0       		.byte	-32
 5122 09fe 40       		.byte	64
 5123 09ff 20       		.byte	32
 5124 0a00 20       		.byte	32
 5125 0a01 60       		.byte	96
 5126 0a02 80       		.byte	-128
 5127 0a03 00       		.byte	0
 5128 0a04 00       		.byte	0
 5129 0a05 FF       		.byte	-1
 5130 0a06 18       		.byte	24
 5131 0a07 10       		.byte	16
 5132 0a08 10       		.byte	16
 5133 0a09 18       		.byte	24
 5134 0a0a 07       		.byte	7
 5135 0a0b 00       		.byte	0
 5136 0a0c 00       		.byte	0
 5137 0a0d 80       		.byte	-128
 5138 0a0e 60       		.byte	96
 5139 0a0f 20       		.byte	32
 5140 0a10 20       		.byte	32
 5141 0a11 40       		.byte	64
ARM GAS  C:\Users\Kayas\AppData\Local\Temp\ccpxl0Kp.s 			page 103


 5142 0a12 E0       		.byte	-32
 5143 0a13 00       		.byte	0
 5144 0a14 00       		.byte	0
 5145 0a15 07       		.byte	7
 5146 0a16 18       		.byte	24
 5147 0a17 10       		.byte	16
 5148 0a18 10       		.byte	16
 5149 0a19 08       		.byte	8
 5150 0a1a FF       		.byte	-1
 5151 0a1b 00       		.byte	0
 5152 0a1c 00       		.byte	0
 5153 0a1d 00       		.byte	0
 5154 0a1e E0       		.byte	-32
 5155 0a1f 60       		.byte	96
 5156 0a20 20       		.byte	32
 5157 0a21 20       		.byte	32
 5158 0a22 40       		.byte	64
 5159 0a23 00       		.byte	0
 5160 0a24 00       		.byte	0
 5161 0a25 00       		.byte	0
 5162 0a26 1F       		.byte	31
 5163 0a27 00       		.byte	0
 5164 0a28 00       		.byte	0
 5165 0a29 00       		.byte	0
 5166 0a2a 00       		.byte	0
 5167 0a2b 00       		.byte	0
 5168 0a2c 00       		.byte	0
 5169 0a2d C0       		.byte	-64
 5170 0a2e 20       		.byte	32
 5171 0a2f 20       		.byte	32
 5172 0a30 20       		.byte	32
 5173 0a31 20       		.byte	32
 5174 0a32 40       		.byte	64
 5175 0a33 00       		.byte	0
 5176 0a34 00       		.byte	0
 5177 0a35 09       		.byte	9
 5178 0a36 11       		.byte	17
 5179 0a37 11       		.byte	17
 5180 0a38 12       		.byte	18
 5181 0a39 12       		.byte	18
 5182 0a3a 0E       		.byte	14
 5183 0a3b 00       		.byte	0
 5184 0a3c 00       		.byte	0
 5185 0a3d 20       		.byte	32
 5186 0a3e 20       		.byte	32
 5187 0a3f F8       		.byte	-8
 5188 0a40 20       		.byte	32
 5189 0a41 20       		.byte	32
 5190 0a42 20       		.byte	32
 5191 0a43 00       		.byte	0
 5192 0a44 00       		.byte	0
 5193 0a45 00       		.byte	0
 5194 0a46 00       		.byte	0
 5195 0a47 0F       		.byte	15
 5196 0a48 10       		.byte	16
 5197 0a49 10       		.byte	16
 5198 0a4a 10       		.byte	16
ARM GAS  C:\Users\Kayas\AppData\Local\Temp\ccpxl0Kp.s 			page 104


 5199 0a4b 00       		.byte	0
 5200 0a4c 00       		.byte	0
 5201 0a4d E0       		.byte	-32
 5202 0a4e 00       		.byte	0
 5203 0a4f 00       		.byte	0
 5204 0a50 00       		.byte	0
 5205 0a51 00       		.byte	0
 5206 0a52 E0       		.byte	-32
 5207 0a53 00       		.byte	0
 5208 0a54 00       		.byte	0
 5209 0a55 0F       		.byte	15
 5210 0a56 10       		.byte	16
 5211 0a57 10       		.byte	16
 5212 0a58 10       		.byte	16
 5213 0a59 08       		.byte	8
 5214 0a5a 1F       		.byte	31
 5215 0a5b 00       		.byte	0
 5216 0a5c 00       		.byte	0
 5217 0a5d 60       		.byte	96
 5218 0a5e 80       		.byte	-128
 5219 0a5f 00       		.byte	0
 5220 0a60 00       		.byte	0
 5221 0a61 80       		.byte	-128
 5222 0a62 60       		.byte	96
 5223 0a63 00       		.byte	0
 5224 0a64 00       		.byte	0
 5225 0a65 00       		.byte	0
 5226 0a66 03       		.byte	3
 5227 0a67 1C       		.byte	28
 5228 0a68 1C       		.byte	28
 5229 0a69 03       		.byte	3
 5230 0a6a 00       		.byte	0
 5231 0a6b 00       		.byte	0
 5232 0a6c E0       		.byte	-32
 5233 0a6d 00       		.byte	0
 5234 0a6e 00       		.byte	0
 5235 0a6f 80       		.byte	-128
 5236 0a70 80       		.byte	-128
 5237 0a71 00       		.byte	0
 5238 0a72 00       		.byte	0
 5239 0a73 E0       		.byte	-32
 5240 0a74 00       		.byte	0
 5241 0a75 07       		.byte	7
 5242 0a76 18       		.byte	24
 5243 0a77 07       		.byte	7
 5244 0a78 07       		.byte	7
 5245 0a79 18       		.byte	24
 5246 0a7a 07       		.byte	7
 5247 0a7b 00       		.byte	0
 5248 0a7c 00       		.byte	0
 5249 0a7d 20       		.byte	32
 5250 0a7e 40       		.byte	64
 5251 0a7f 80       		.byte	-128
 5252 0a80 80       		.byte	-128
 5253 0a81 40       		.byte	64
 5254 0a82 20       		.byte	32
 5255 0a83 00       		.byte	0
ARM GAS  C:\Users\Kayas\AppData\Local\Temp\ccpxl0Kp.s 			page 105


 5256 0a84 00       		.byte	0
 5257 0a85 10       		.byte	16
 5258 0a86 0C       		.byte	12
 5259 0a87 03       		.byte	3
 5260 0a88 03       		.byte	3
 5261 0a89 0C       		.byte	12
 5262 0a8a 10       		.byte	16
 5263 0a8b 00       		.byte	0
 5264 0a8c 00       		.byte	0
 5265 0a8d 20       		.byte	32
 5266 0a8e C0       		.byte	-64
 5267 0a8f 00       		.byte	0
 5268 0a90 00       		.byte	0
 5269 0a91 80       		.byte	-128
 5270 0a92 60       		.byte	96
 5271 0a93 00       		.byte	0
 5272 0a94 00       		.byte	0
 5273 0a95 00       		.byte	0
 5274 0a96 81       		.byte	-127
 5275 0a97 C6       		.byte	-58
 5276 0a98 3C       		.byte	60
 5277 0a99 03       		.byte	3
 5278 0a9a 00       		.byte	0
 5279 0a9b 00       		.byte	0
 5280 0a9c 00       		.byte	0
 5281 0a9d 20       		.byte	32
 5282 0a9e 20       		.byte	32
 5283 0a9f 20       		.byte	32
 5284 0aa0 20       		.byte	32
 5285 0aa1 A0       		.byte	-96
 5286 0aa2 60       		.byte	96
 5287 0aa3 00       		.byte	0
 5288 0aa4 00       		.byte	0
 5289 0aa5 18       		.byte	24
 5290 0aa6 14       		.byte	20
 5291 0aa7 12       		.byte	18
 5292 0aa8 11       		.byte	17
 5293 0aa9 10       		.byte	16
 5294 0aaa 10       		.byte	16
 5295 0aab 00       		.byte	0
 5296 0aac 00       		.byte	0
 5297 0aad 00       		.byte	0
 5298 0aae C0       		.byte	-64
 5299 0aaf 30       		.byte	48
 5300 0ab0 08       		.byte	8
 5301 0ab1 30       		.byte	48
 5302 0ab2 C0       		.byte	-64
 5303 0ab3 00       		.byte	0
 5304 0ab4 00       		.byte	0
 5305 0ab5 18       		.byte	24
 5306 0ab6 07       		.byte	7
 5307 0ab7 02       		.byte	2
 5308 0ab8 02       		.byte	2
 5309 0ab9 02       		.byte	2
 5310 0aba 07       		.byte	7
 5311 0abb 18       		.byte	24
 5312 0abc 00       		.byte	0
ARM GAS  C:\Users\Kayas\AppData\Local\Temp\ccpxl0Kp.s 			page 106


 5313 0abd F8       		.byte	-8
 5314 0abe 88       		.byte	-120
 5315 0abf 88       		.byte	-120
 5316 0ac0 88       		.byte	-120
 5317 0ac1 88       		.byte	-120
 5318 0ac2 88       		.byte	-120
 5319 0ac3 08       		.byte	8
 5320 0ac4 00       		.byte	0
 5321 0ac5 1F       		.byte	31
 5322 0ac6 10       		.byte	16
 5323 0ac7 10       		.byte	16
 5324 0ac8 10       		.byte	16
 5325 0ac9 10       		.byte	16
 5326 0aca 19       		.byte	25
 5327 0acb 0F       		.byte	15
 5328 0acc 00       		.byte	0
 5329 0acd F8       		.byte	-8
 5330 0ace 88       		.byte	-120
 5331 0acf 88       		.byte	-120
 5332 0ad0 88       		.byte	-120
 5333 0ad1 88       		.byte	-120
 5334 0ad2 88       		.byte	-120
 5335 0ad3 70       		.byte	112
 5336 0ad4 00       		.byte	0
 5337 0ad5 1F       		.byte	31
 5338 0ad6 10       		.byte	16
 5339 0ad7 10       		.byte	16
 5340 0ad8 10       		.byte	16
 5341 0ad9 10       		.byte	16
 5342 0ada 19       		.byte	25
 5343 0adb 0F       		.byte	15
 5344 0adc 00       		.byte	0
 5345 0add F8       		.byte	-8
 5346 0ade 08       		.byte	8
 5347 0adf 08       		.byte	8
 5348 0ae0 08       		.byte	8
 5349 0ae1 08       		.byte	8
 5350 0ae2 08       		.byte	8
 5351 0ae3 08       		.byte	8
 5352 0ae4 00       		.byte	0
 5353 0ae5 1F       		.byte	31
 5354 0ae6 00       		.byte	0
 5355 0ae7 00       		.byte	0
 5356 0ae8 00       		.byte	0
 5357 0ae9 00       		.byte	0
 5358 0aea 00       		.byte	0
 5359 0aeb 00       		.byte	0
 5360 0aec 00       		.byte	0
 5361 0aed E0       		.byte	-32
 5362 0aee 10       		.byte	16
 5363 0aef 08       		.byte	8
 5364 0af0 08       		.byte	8
 5365 0af1 08       		.byte	8
 5366 0af2 F8       		.byte	-8
 5367 0af3 00       		.byte	0
 5368 0af4 70       		.byte	112
 5369 0af5 1F       		.byte	31
ARM GAS  C:\Users\Kayas\AppData\Local\Temp\ccpxl0Kp.s 			page 107


 5370 0af6 10       		.byte	16
 5371 0af7 10       		.byte	16
 5372 0af8 10       		.byte	16
 5373 0af9 10       		.byte	16
 5374 0afa 1F       		.byte	31
 5375 0afb 70       		.byte	112
 5376 0afc 00       		.byte	0
 5377 0afd F8       		.byte	-8
 5378 0afe 88       		.byte	-120
 5379 0aff 88       		.byte	-120
 5380 0b00 88       		.byte	-120
 5381 0b01 88       		.byte	-120
 5382 0b02 88       		.byte	-120
 5383 0b03 88       		.byte	-120
 5384 0b04 00       		.byte	0
 5385 0b05 1F       		.byte	31
 5386 0b06 10       		.byte	16
 5387 0b07 10       		.byte	16
 5388 0b08 10       		.byte	16
 5389 0b09 10       		.byte	16
 5390 0b0a 10       		.byte	16
 5391 0b0b 10       		.byte	16
 5392 0b0c 00       		.byte	0
 5393 0b0d 18       		.byte	24
 5394 0b0e 70       		.byte	112
 5395 0b0f C0       		.byte	-64
 5396 0b10 F8       		.byte	-8
 5397 0b11 C0       		.byte	-64
 5398 0b12 70       		.byte	112
 5399 0b13 18       		.byte	24
 5400 0b14 00       		.byte	0
 5401 0b15 1C       		.byte	28
 5402 0b16 03       		.byte	3
 5403 0b17 00       		.byte	0
 5404 0b18 1F       		.byte	31
 5405 0b19 00       		.byte	0
 5406 0b1a 03       		.byte	3
 5407 0b1b 1C       		.byte	28
 5408 0b1c 00       		.byte	0
 5409 0b1d 10       		.byte	16
 5410 0b1e 08       		.byte	8
 5411 0b1f 88       		.byte	-120
 5412 0b20 88       		.byte	-120
 5413 0b21 88       		.byte	-120
 5414 0b22 48       		.byte	72
 5415 0b23 30       		.byte	48
 5416 0b24 00       		.byte	0
 5417 0b25 08       		.byte	8
 5418 0b26 10       		.byte	16
 5419 0b27 10       		.byte	16
 5420 0b28 10       		.byte	16
 5421 0b29 10       		.byte	16
 5422 0b2a 19       		.byte	25
 5423 0b2b 0E       		.byte	14
 5424 0b2c 00       		.byte	0
 5425 0b2d F8       		.byte	-8
 5426 0b2e 00       		.byte	0
ARM GAS  C:\Users\Kayas\AppData\Local\Temp\ccpxl0Kp.s 			page 108


 5427 0b2f 00       		.byte	0
 5428 0b30 80       		.byte	-128
 5429 0b31 60       		.byte	96
 5430 0b32 18       		.byte	24
 5431 0b33 F8       		.byte	-8
 5432 0b34 00       		.byte	0
 5433 0b35 1F       		.byte	31
 5434 0b36 1C       		.byte	28
 5435 0b37 06       		.byte	6
 5436 0b38 01       		.byte	1
 5437 0b39 00       		.byte	0
 5438 0b3a 00       		.byte	0
 5439 0b3b 1F       		.byte	31
 5440 0b3c 00       		.byte	0
 5441 0b3d F8       		.byte	-8
 5442 0b3e 01       		.byte	1
 5443 0b3f 02       		.byte	2
 5444 0b40 82       		.byte	-126
 5445 0b41 61       		.byte	97
 5446 0b42 18       		.byte	24
 5447 0b43 F8       		.byte	-8
 5448 0b44 00       		.byte	0
 5449 0b45 1F       		.byte	31
 5450 0b46 1C       		.byte	28
 5451 0b47 06       		.byte	6
 5452 0b48 01       		.byte	1
 5453 0b49 00       		.byte	0
 5454 0b4a 00       		.byte	0
 5455 0b4b 1F       		.byte	31
 5456 0b4c 00       		.byte	0
 5457 0b4d F8       		.byte	-8
 5458 0b4e 80       		.byte	-128
 5459 0b4f C0       		.byte	-64
 5460 0b50 20       		.byte	32
 5461 0b51 10       		.byte	16
 5462 0b52 08       		.byte	8
 5463 0b53 00       		.byte	0
 5464 0b54 00       		.byte	0
 5465 0b55 1F       		.byte	31
 5466 0b56 00       		.byte	0
 5467 0b57 00       		.byte	0
 5468 0b58 03       		.byte	3
 5469 0b59 06       		.byte	6
 5470 0b5a 08       		.byte	8
 5471 0b5b 10       		.byte	16
 5472 0b5c 00       		.byte	0
 5473 0b5d 00       		.byte	0
 5474 0b5e F8       		.byte	-8
 5475 0b5f 08       		.byte	8
 5476 0b60 08       		.byte	8
 5477 0b61 08       		.byte	8
 5478 0b62 08       		.byte	8
 5479 0b63 F8       		.byte	-8
 5480 0b64 10       		.byte	16
 5481 0b65 18       		.byte	24
 5482 0b66 0F       		.byte	15
 5483 0b67 00       		.byte	0
ARM GAS  C:\Users\Kayas\AppData\Local\Temp\ccpxl0Kp.s 			page 109


 5484 0b68 00       		.byte	0
 5485 0b69 00       		.byte	0
 5486 0b6a 00       		.byte	0
 5487 0b6b 1F       		.byte	31
 5488 0b6c 00       		.byte	0
 5489 0b6d F8       		.byte	-8
 5490 0b6e 18       		.byte	24
 5491 0b6f E0       		.byte	-32
 5492 0b70 00       		.byte	0
 5493 0b71 E0       		.byte	-32
 5494 0b72 18       		.byte	24
 5495 0b73 F8       		.byte	-8
 5496 0b74 00       		.byte	0
 5497 0b75 1F       		.byte	31
 5498 0b76 00       		.byte	0
 5499 0b77 00       		.byte	0
 5500 0b78 01       		.byte	1
 5501 0b79 00       		.byte	0
 5502 0b7a 00       		.byte	0
 5503 0b7b 1F       		.byte	31
 5504 0b7c 00       		.byte	0
 5505 0b7d F8       		.byte	-8
 5506 0b7e 80       		.byte	-128
 5507 0b7f 80       		.byte	-128
 5508 0b80 80       		.byte	-128
 5509 0b81 80       		.byte	-128
 5510 0b82 80       		.byte	-128
 5511 0b83 F8       		.byte	-8
 5512 0b84 00       		.byte	0
 5513 0b85 1F       		.byte	31
 5514 0b86 00       		.byte	0
 5515 0b87 00       		.byte	0
 5516 0b88 00       		.byte	0
 5517 0b89 00       		.byte	0
 5518 0b8a 00       		.byte	0
 5519 0b8b 1F       		.byte	31
 5520 0b8c 00       		.byte	0
 5521 0b8d E0       		.byte	-32
 5522 0b8e 10       		.byte	16
 5523 0b8f 08       		.byte	8
 5524 0b90 08       		.byte	8
 5525 0b91 08       		.byte	8
 5526 0b92 10       		.byte	16
 5527 0b93 E0       		.byte	-32
 5528 0b94 00       		.byte	0
 5529 0b95 07       		.byte	7
 5530 0b96 08       		.byte	8
 5531 0b97 10       		.byte	16
 5532 0b98 10       		.byte	16
 5533 0b99 10       		.byte	16
 5534 0b9a 08       		.byte	8
 5535 0b9b 07       		.byte	7
 5536 0b9c 00       		.byte	0
 5537 0b9d F8       		.byte	-8
 5538 0b9e 08       		.byte	8
 5539 0b9f 08       		.byte	8
 5540 0ba0 08       		.byte	8
ARM GAS  C:\Users\Kayas\AppData\Local\Temp\ccpxl0Kp.s 			page 110


 5541 0ba1 08       		.byte	8
 5542 0ba2 08       		.byte	8
 5543 0ba3 F8       		.byte	-8
 5544 0ba4 00       		.byte	0
 5545 0ba5 1F       		.byte	31
 5546 0ba6 00       		.byte	0
 5547 0ba7 00       		.byte	0
 5548 0ba8 00       		.byte	0
 5549 0ba9 00       		.byte	0
 5550 0baa 00       		.byte	0
 5551 0bab 1F       		.byte	31
 5552 0bac 00       		.byte	0
 5553 0bad F8       		.byte	-8
 5554 0bae 08       		.byte	8
 5555 0baf 08       		.byte	8
 5556 0bb0 08       		.byte	8
 5557 0bb1 08       		.byte	8
 5558 0bb2 98       		.byte	-104
 5559 0bb3 F0       		.byte	-16
 5560 0bb4 00       		.byte	0
 5561 0bb5 1F       		.byte	31
 5562 0bb6 01       		.byte	1
 5563 0bb7 01       		.byte	1
 5564 0bb8 01       		.byte	1
 5565 0bb9 01       		.byte	1
 5566 0bba 01       		.byte	1
 5567 0bbb 00       		.byte	0
 5568 0bbc 00       		.byte	0
 5569 0bbd E0       		.byte	-32
 5570 0bbe 10       		.byte	16
 5571 0bbf 08       		.byte	8
 5572 0bc0 08       		.byte	8
 5573 0bc1 08       		.byte	8
 5574 0bc2 08       		.byte	8
 5575 0bc3 10       		.byte	16
 5576 0bc4 00       		.byte	0
 5577 0bc5 07       		.byte	7
 5578 0bc6 08       		.byte	8
 5579 0bc7 10       		.byte	16
 5580 0bc8 10       		.byte	16
 5581 0bc9 10       		.byte	16
 5582 0bca 10       		.byte	16
 5583 0bcb 08       		.byte	8
 5584 0bcc 00       		.byte	0
 5585 0bcd 08       		.byte	8
 5586 0bce 08       		.byte	8
 5587 0bcf 08       		.byte	8
 5588 0bd0 F8       		.byte	-8
 5589 0bd1 08       		.byte	8
 5590 0bd2 08       		.byte	8
 5591 0bd3 08       		.byte	8
 5592 0bd4 00       		.byte	0
 5593 0bd5 00       		.byte	0
 5594 0bd6 00       		.byte	0
 5595 0bd7 00       		.byte	0
 5596 0bd8 1F       		.byte	31
 5597 0bd9 00       		.byte	0
ARM GAS  C:\Users\Kayas\AppData\Local\Temp\ccpxl0Kp.s 			page 111


 5598 0bda 00       		.byte	0
 5599 0bdb 00       		.byte	0
 5600 0bdc 00       		.byte	0
 5601 0bdd 08       		.byte	8
 5602 0bde 30       		.byte	48
 5603 0bdf C0       		.byte	-64
 5604 0be0 00       		.byte	0
 5605 0be1 80       		.byte	-128
 5606 0be2 70       		.byte	112
 5607 0be3 08       		.byte	8
 5608 0be4 00       		.byte	0
 5609 0be5 00       		.byte	0
 5610 0be6 10       		.byte	16
 5611 0be7 10       		.byte	16
 5612 0be8 0F       		.byte	15
 5613 0be9 03       		.byte	3
 5614 0bea 00       		.byte	0
 5615 0beb 00       		.byte	0
 5616 0bec 00       		.byte	0
 5617 0bed E0       		.byte	-32
 5618 0bee 30       		.byte	48
 5619 0bef 10       		.byte	16
 5620 0bf0 F8       		.byte	-8
 5621 0bf1 10       		.byte	16
 5622 0bf2 30       		.byte	48
 5623 0bf3 E0       		.byte	-32
 5624 0bf4 00       		.byte	0
 5625 0bf5 03       		.byte	3
 5626 0bf6 0C       		.byte	12
 5627 0bf7 08       		.byte	8
 5628 0bf8 1F       		.byte	31
 5629 0bf9 08       		.byte	8
 5630 0bfa 0C       		.byte	12
 5631 0bfb 07       		.byte	7
 5632 0bfc 00       		.byte	0
 5633 0bfd 08       		.byte	8
 5634 0bfe 10       		.byte	16
 5635 0bff 60       		.byte	96
 5636 0c00 80       		.byte	-128
 5637 0c01 60       		.byte	96
 5638 0c02 10       		.byte	16
 5639 0c03 08       		.byte	8
 5640 0c04 00       		.byte	0
 5641 0c05 10       		.byte	16
 5642 0c06 0C       		.byte	12
 5643 0c07 03       		.byte	3
 5644 0c08 00       		.byte	0
 5645 0c09 03       		.byte	3
 5646 0c0a 0C       		.byte	12
 5647 0c0b 10       		.byte	16
 5648 0c0c 00       		.byte	0
 5649 0c0d F8       		.byte	-8
 5650 0c0e 00       		.byte	0
 5651 0c0f 00       		.byte	0
 5652 0c10 00       		.byte	0
 5653 0c11 00       		.byte	0
 5654 0c12 F8       		.byte	-8
ARM GAS  C:\Users\Kayas\AppData\Local\Temp\ccpxl0Kp.s 			page 112


 5655 0c13 00       		.byte	0
 5656 0c14 00       		.byte	0
 5657 0c15 1F       		.byte	31
 5658 0c16 10       		.byte	16
 5659 0c17 10       		.byte	16
 5660 0c18 10       		.byte	16
 5661 0c19 10       		.byte	16
 5662 0c1a 1F       		.byte	31
 5663 0c1b 70       		.byte	112
 5664 0c1c 00       		.byte	0
 5665 0c1d F8       		.byte	-8
 5666 0c1e 00       		.byte	0
 5667 0c1f 00       		.byte	0
 5668 0c20 00       		.byte	0
 5669 0c21 00       		.byte	0
 5670 0c22 00       		.byte	0
 5671 0c23 F8       		.byte	-8
 5672 0c24 00       		.byte	0
 5673 0c25 00       		.byte	0
 5674 0c26 01       		.byte	1
 5675 0c27 01       		.byte	1
 5676 0c28 01       		.byte	1
 5677 0c29 01       		.byte	1
 5678 0c2a 01       		.byte	1
 5679 0c2b 1F       		.byte	31
 5680 0c2c 00       		.byte	0
 5681 0c2d F8       		.byte	-8
 5682 0c2e 00       		.byte	0
 5683 0c2f 00       		.byte	0
 5684 0c30 F8       		.byte	-8
 5685 0c31 00       		.byte	0
 5686 0c32 00       		.byte	0
 5687 0c33 F8       		.byte	-8
 5688 0c34 00       		.byte	0
 5689 0c35 1F       		.byte	31
 5690 0c36 10       		.byte	16
 5691 0c37 10       		.byte	16
 5692 0c38 1F       		.byte	31
 5693 0c39 10       		.byte	16
 5694 0c3a 10       		.byte	16
 5695 0c3b 1F       		.byte	31
 5696 0c3c F8       		.byte	-8
 5697 0c3d 00       		.byte	0
 5698 0c3e 00       		.byte	0
 5699 0c3f F8       		.byte	-8
 5700 0c40 00       		.byte	0
 5701 0c41 00       		.byte	0
 5702 0c42 F8       		.byte	-8
 5703 0c43 00       		.byte	0
 5704 0c44 1F       		.byte	31
 5705 0c45 10       		.byte	16
 5706 0c46 10       		.byte	16
 5707 0c47 1F       		.byte	31
 5708 0c48 10       		.byte	16
 5709 0c49 10       		.byte	16
 5710 0c4a 1F       		.byte	31
 5711 0c4b 70       		.byte	112
ARM GAS  C:\Users\Kayas\AppData\Local\Temp\ccpxl0Kp.s 			page 113


 5712 0c4c 08       		.byte	8
 5713 0c4d 08       		.byte	8
 5714 0c4e F8       		.byte	-8
 5715 0c4f 40       		.byte	64
 5716 0c50 40       		.byte	64
 5717 0c51 40       		.byte	64
 5718 0c52 80       		.byte	-128
 5719 0c53 80       		.byte	-128
 5720 0c54 00       		.byte	0
 5721 0c55 00       		.byte	0
 5722 0c56 1F       		.byte	31
 5723 0c57 10       		.byte	16
 5724 0c58 10       		.byte	16
 5725 0c59 10       		.byte	16
 5726 0c5a 18       		.byte	24
 5727 0c5b 0F       		.byte	15
 5728 0c5c F8       		.byte	-8
 5729 0c5d 40       		.byte	64
 5730 0c5e 40       		.byte	64
 5731 0c5f 40       		.byte	64
 5732 0c60 80       		.byte	-128
 5733 0c61 00       		.byte	0
 5734 0c62 00       		.byte	0
 5735 0c63 F8       		.byte	-8
 5736 0c64 1F       		.byte	31
 5737 0c65 10       		.byte	16
 5738 0c66 10       		.byte	16
 5739 0c67 10       		.byte	16
 5740 0c68 08       		.byte	8
 5741 0c69 07       		.byte	7
 5742 0c6a 00       		.byte	0
 5743 0c6b 1F       		.byte	31
 5744 0c6c 00       		.byte	0
 5745 0c6d F8       		.byte	-8
 5746 0c6e 80       		.byte	-128
 5747 0c6f 80       		.byte	-128
 5748 0c70 80       		.byte	-128
 5749 0c71 80       		.byte	-128
 5750 0c72 80       		.byte	-128
 5751 0c73 00       		.byte	0
 5752 0c74 00       		.byte	0
 5753 0c75 1F       		.byte	31
 5754 0c76 10       		.byte	16
 5755 0c77 10       		.byte	16
 5756 0c78 10       		.byte	16
 5757 0c79 10       		.byte	16
 5758 0c7a 19       		.byte	25
 5759 0c7b 0F       		.byte	15
 5760 0c7c 00       		.byte	0
 5761 0c7d 10       		.byte	16
 5762 0c7e 88       		.byte	-120
 5763 0c7f 88       		.byte	-120
 5764 0c80 88       		.byte	-120
 5765 0c81 88       		.byte	-120
 5766 0c82 90       		.byte	-112
 5767 0c83 E0       		.byte	-32
 5768 0c84 00       		.byte	0
ARM GAS  C:\Users\Kayas\AppData\Local\Temp\ccpxl0Kp.s 			page 114


 5769 0c85 08       		.byte	8
 5770 0c86 10       		.byte	16
 5771 0c87 10       		.byte	16
 5772 0c88 10       		.byte	16
 5773 0c89 10       		.byte	16
 5774 0c8a 0C       		.byte	12
 5775 0c8b 07       		.byte	7
 5776 0c8c 00       		.byte	0
 5777 0c8d F8       		.byte	-8
 5778 0c8e 80       		.byte	-128
 5779 0c8f F0       		.byte	-16
 5780 0c90 18       		.byte	24
 5781 0c91 08       		.byte	8
 5782 0c92 18       		.byte	24
 5783 0c93 F0       		.byte	-16
 5784 0c94 00       		.byte	0
 5785 0c95 1F       		.byte	31
 5786 0c96 00       		.byte	0
 5787 0c97 0F       		.byte	15
 5788 0c98 18       		.byte	24
 5789 0c99 10       		.byte	16
 5790 0c9a 18       		.byte	24
 5791 0c9b 0F       		.byte	15
 5792 0c9c 00       		.byte	0
 5793 0c9d 00       		.byte	0
 5794 0c9e F0       		.byte	-16
 5795 0c9f 98       		.byte	-104
 5796 0ca0 08       		.byte	8
 5797 0ca1 08       		.byte	8
 5798 0ca2 08       		.byte	8
 5799 0ca3 F8       		.byte	-8
 5800 0ca4 00       		.byte	0
 5801 0ca5 10       		.byte	16
 5802 0ca6 08       		.byte	8
 5803 0ca7 07       		.byte	7
 5804 0ca8 01       		.byte	1
 5805 0ca9 01       		.byte	1
 5806 0caa 01       		.byte	1
 5807 0cab 1F       		.byte	31
 5808 0cac 00       		.byte	0
 5809 0cad 00       		.byte	0
 5810 0cae 40       		.byte	64
 5811 0caf 20       		.byte	32
 5812 0cb0 20       		.byte	32
 5813 0cb1 20       		.byte	32
 5814 0cb2 C0       		.byte	-64
 5815 0cb3 00       		.byte	0
 5816 0cb4 00       		.byte	0
 5817 0cb5 0E       		.byte	14
 5818 0cb6 11       		.byte	17
 5819 0cb7 11       		.byte	17
 5820 0cb8 11       		.byte	17
 5821 0cb9 09       		.byte	9
 5822 0cba 1F       		.byte	31
 5823 0cbb 00       		.byte	0
 5824 0cbc 00       		.byte	0
 5825 0cbd F0       		.byte	-16
ARM GAS  C:\Users\Kayas\AppData\Local\Temp\ccpxl0Kp.s 			page 115


 5826 0cbe 78       		.byte	120
 5827 0cbf 28       		.byte	40
 5828 0cc0 24       		.byte	36
 5829 0cc1 64       		.byte	100
 5830 0cc2 C0       		.byte	-64
 5831 0cc3 00       		.byte	0
 5832 0cc4 00       		.byte	0
 5833 0cc5 0F       		.byte	15
 5834 0cc6 18       		.byte	24
 5835 0cc7 10       		.byte	16
 5836 0cc8 10       		.byte	16
 5837 0cc9 18       		.byte	24
 5838 0cca 0F       		.byte	15
 5839 0ccb 00       		.byte	0
 5840 0ccc 00       		.byte	0
 5841 0ccd E0       		.byte	-32
 5842 0cce 20       		.byte	32
 5843 0ccf 20       		.byte	32
 5844 0cd0 20       		.byte	32
 5845 0cd1 20       		.byte	32
 5846 0cd2 C0       		.byte	-64
 5847 0cd3 00       		.byte	0
 5848 0cd4 00       		.byte	0
 5849 0cd5 1F       		.byte	31
 5850 0cd6 11       		.byte	17
 5851 0cd7 11       		.byte	17
 5852 0cd8 11       		.byte	17
 5853 0cd9 11       		.byte	17
 5854 0cda 0E       		.byte	14
 5855 0cdb 00       		.byte	0
 5856 0cdc 00       		.byte	0
 5857 0cdd 00       		.byte	0
 5858 0cde E0       		.byte	-32
 5859 0cdf 20       		.byte	32
 5860 0ce0 20       		.byte	32
 5861 0ce1 20       		.byte	32
 5862 0ce2 20       		.byte	32
 5863 0ce3 00       		.byte	0
 5864 0ce4 00       		.byte	0
 5865 0ce5 00       		.byte	0
 5866 0ce6 1F       		.byte	31
 5867 0ce7 00       		.byte	0
 5868 0ce8 00       		.byte	0
 5869 0ce9 00       		.byte	0
 5870 0cea 00       		.byte	0
 5871 0ceb 00       		.byte	0
 5872 0cec 00       		.byte	0
 5873 0ced 00       		.byte	0
 5874 0cee E0       		.byte	-32
 5875 0cef 20       		.byte	32
 5876 0cf0 20       		.byte	32
 5877 0cf1 20       		.byte	32
 5878 0cf2 E0       		.byte	-32
 5879 0cf3 00       		.byte	0
 5880 0cf4 00       		.byte	0
 5881 0cf5 70       		.byte	112
 5882 0cf6 1F       		.byte	31
ARM GAS  C:\Users\Kayas\AppData\Local\Temp\ccpxl0Kp.s 			page 116


 5883 0cf7 10       		.byte	16
 5884 0cf8 10       		.byte	16
 5885 0cf9 10       		.byte	16
 5886 0cfa 1F       		.byte	31
 5887 0cfb 70       		.byte	112
 5888 0cfc 00       		.byte	0
 5889 0cfd C0       		.byte	-64
 5890 0cfe 20       		.byte	32
 5891 0cff 20       		.byte	32
 5892 0d00 20       		.byte	32
 5893 0d01 20       		.byte	32
 5894 0d02 C0       		.byte	-64
 5895 0d03 00       		.byte	0
 5896 0d04 00       		.byte	0
 5897 0d05 07       		.byte	7
 5898 0d06 09       		.byte	9
 5899 0d07 11       		.byte	17
 5900 0d08 11       		.byte	17
 5901 0d09 11       		.byte	17
 5902 0d0a 09       		.byte	9
 5903 0d0b 00       		.byte	0
 5904 0d0c 00       		.byte	0
 5905 0d0d 20       		.byte	32
 5906 0d0e E0       		.byte	-32
 5907 0d0f 80       		.byte	-128
 5908 0d10 E0       		.byte	-32
 5909 0d11 80       		.byte	-128
 5910 0d12 E0       		.byte	-32
 5911 0d13 20       		.byte	32
 5912 0d14 00       		.byte	0
 5913 0d15 18       		.byte	24
 5914 0d16 06       		.byte	6
 5915 0d17 03       		.byte	3
 5916 0d18 1F       		.byte	31
 5917 0d19 03       		.byte	3
 5918 0d1a 06       		.byte	6
 5919 0d1b 18       		.byte	24
 5920 0d1c 00       		.byte	0
 5921 0d1d 40       		.byte	64
 5922 0d1e 20       		.byte	32
 5923 0d1f 20       		.byte	32
 5924 0d20 20       		.byte	32
 5925 0d21 20       		.byte	32
 5926 0d22 C0       		.byte	-64
 5927 0d23 00       		.byte	0
 5928 0d24 00       		.byte	0
 5929 0d25 08       		.byte	8
 5930 0d26 10       		.byte	16
 5931 0d27 11       		.byte	17
 5932 0d28 11       		.byte	17
 5933 0d29 11       		.byte	17
 5934 0d2a 0E       		.byte	14
 5935 0d2b 00       		.byte	0
 5936 0d2c 00       		.byte	0
 5937 0d2d E0       		.byte	-32
 5938 0d2e 00       		.byte	0
 5939 0d2f 00       		.byte	0
ARM GAS  C:\Users\Kayas\AppData\Local\Temp\ccpxl0Kp.s 			page 117


 5940 0d30 00       		.byte	0
 5941 0d31 C0       		.byte	-64
 5942 0d32 E0       		.byte	-32
 5943 0d33 00       		.byte	0
 5944 0d34 00       		.byte	0
 5945 0d35 1F       		.byte	31
 5946 0d36 08       		.byte	8
 5947 0d37 06       		.byte	6
 5948 0d38 01       		.byte	1
 5949 0d39 00       		.byte	0
 5950 0d3a 1F       		.byte	31
 5951 0d3b 00       		.byte	0
 5952 0d3c 00       		.byte	0
 5953 0d3d E0       		.byte	-32
 5954 0d3e 00       		.byte	0
 5955 0d3f 00       		.byte	0
 5956 0d40 00       		.byte	0
 5957 0d41 C0       		.byte	-64
 5958 0d42 E0       		.byte	-32
 5959 0d43 00       		.byte	0
 5960 0d44 00       		.byte	0
 5961 0d45 1F       		.byte	31
 5962 0d46 08       		.byte	8
 5963 0d47 06       		.byte	6
 5964 0d48 01       		.byte	1
 5965 0d49 00       		.byte	0
 5966 0d4a 1F       		.byte	31
 5967 0d4b 00       		.byte	0
 5968 0d4c 00       		.byte	0
 5969 0d4d E0       		.byte	-32
 5970 0d4e 00       		.byte	0
 5971 0d4f 80       		.byte	-128
 5972 0d50 40       		.byte	64
 5973 0d51 20       		.byte	32
 5974 0d52 00       		.byte	0
 5975 0d53 00       		.byte	0
 5976 0d54 00       		.byte	0
 5977 0d55 1F       		.byte	31
 5978 0d56 01       		.byte	1
 5979 0d57 01       		.byte	1
 5980 0d58 06       		.byte	6
 5981 0d59 08       		.byte	8
 5982 0d5a 10       		.byte	16
 5983 0d5b 00       		.byte	0
 5984 0d5c 00       		.byte	0
 5985 0d5d 00       		.byte	0
 5986 0d5e E0       		.byte	-32
 5987 0d5f 20       		.byte	32
 5988 0d60 20       		.byte	32
 5989 0d61 20       		.byte	32
 5990 0d62 E0       		.byte	-32
 5991 0d63 00       		.byte	0
 5992 0d64 10       		.byte	16
 5993 0d65 10       		.byte	16
 5994 0d66 0F       		.byte	15
 5995 0d67 00       		.byte	0
 5996 0d68 00       		.byte	0
ARM GAS  C:\Users\Kayas\AppData\Local\Temp\ccpxl0Kp.s 			page 118


 5997 0d69 00       		.byte	0
 5998 0d6a 1F       		.byte	31
 5999 0d6b 00       		.byte	0
 6000 0d6c 00       		.byte	0
 6001 0d6d E0       		.byte	-32
 6002 0d6e C0       		.byte	-64
 6003 0d6f 00       		.byte	0
 6004 0d70 00       		.byte	0
 6005 0d71 00       		.byte	0
 6006 0d72 C0       		.byte	-64
 6007 0d73 E0       		.byte	-32
 6008 0d74 00       		.byte	0
 6009 0d75 1F       		.byte	31
 6010 0d76 00       		.byte	0
 6011 0d77 03       		.byte	3
 6012 0d78 04       		.byte	4
 6013 0d79 03       		.byte	3
 6014 0d7a 00       		.byte	0
 6015 0d7b 1F       		.byte	31
 6016 0d7c 00       		.byte	0
 6017 0d7d E0       		.byte	-32
 6018 0d7e 00       		.byte	0
 6019 0d7f 00       		.byte	0
 6020 0d80 00       		.byte	0
 6021 0d81 00       		.byte	0
 6022 0d82 E0       		.byte	-32
 6023 0d83 00       		.byte	0
 6024 0d84 00       		.byte	0
 6025 0d85 1F       		.byte	31
 6026 0d86 01       		.byte	1
 6027 0d87 01       		.byte	1
 6028 0d88 01       		.byte	1
 6029 0d89 01       		.byte	1
 6030 0d8a 1F       		.byte	31
 6031 0d8b 00       		.byte	0
 6032 0d8c 00       		.byte	0
 6033 0d8d C0       		.byte	-64
 6034 0d8e 60       		.byte	96
 6035 0d8f 20       		.byte	32
 6036 0d90 20       		.byte	32
 6037 0d91 60       		.byte	96
 6038 0d92 C0       		.byte	-64
 6039 0d93 00       		.byte	0
 6040 0d94 00       		.byte	0
 6041 0d95 0F       		.byte	15
 6042 0d96 18       		.byte	24
 6043 0d97 10       		.byte	16
 6044 0d98 10       		.byte	16
 6045 0d99 18       		.byte	24
 6046 0d9a 0F       		.byte	15
 6047 0d9b 00       		.byte	0
 6048 0d9c 00       		.byte	0
 6049 0d9d E0       		.byte	-32
 6050 0d9e 20       		.byte	32
 6051 0d9f 20       		.byte	32
 6052 0da0 20       		.byte	32
 6053 0da1 20       		.byte	32
ARM GAS  C:\Users\Kayas\AppData\Local\Temp\ccpxl0Kp.s 			page 119


 6054 0da2 E0       		.byte	-32
 6055 0da3 00       		.byte	0
 6056 0da4 00       		.byte	0
 6057 0da5 1F       		.byte	31
 6058 0da6 00       		.byte	0
 6059 0da7 00       		.byte	0
 6060 0da8 00       		.byte	0
 6061 0da9 00       		.byte	0
 6062 0daa 1F       		.byte	31
 6063 0dab 00       		.byte	0
 6064 0dac 00       		.byte	0
 6065 0dad E0       		.byte	-32
 6066 0dae 40       		.byte	64
 6067 0daf 20       		.byte	32
 6068 0db0 20       		.byte	32
 6069 0db1 60       		.byte	96
 6070 0db2 80       		.byte	-128
 6071 0db3 00       		.byte	0
 6072 0db4 00       		.byte	0
 6073 0db5 FF       		.byte	-1
 6074 0db6 18       		.byte	24
 6075 0db7 10       		.byte	16
 6076 0db8 10       		.byte	16
 6077 0db9 18       		.byte	24
 6078 0dba 07       		.byte	7
 6079 0dbb 00       		.byte	0
 6080 0dbc 00       		.byte	0
 6081 0dbd 80       		.byte	-128
 6082 0dbe 40       		.byte	64
 6083 0dbf 20       		.byte	32
 6084 0dc0 20       		.byte	32
 6085 0dc1 20       		.byte	32
 6086 0dc2 40       		.byte	64
 6087 0dc3 00       		.byte	0
 6088 0dc4 00       		.byte	0
 6089 0dc5 07       		.byte	7
 6090 0dc6 08       		.byte	8
 6091 0dc7 10       		.byte	16
 6092 0dc8 10       		.byte	16
 6093 0dc9 10       		.byte	16
 6094 0dca 08       		.byte	8
 6095 0dcb 00       		.byte	0
 6096 0dcc 00       		.byte	0
 6097 0dcd 00       		.byte	0
 6098 0dce 20       		.byte	32
 6099 0dcf 20       		.byte	32
 6100 0dd0 E0       		.byte	-32
 6101 0dd1 20       		.byte	32
 6102 0dd2 20       		.byte	32
 6103 0dd3 00       		.byte	0
 6104 0dd4 00       		.byte	0
 6105 0dd5 00       		.byte	0
 6106 0dd6 00       		.byte	0
 6107 0dd7 00       		.byte	0
 6108 0dd8 1F       		.byte	31
 6109 0dd9 00       		.byte	0
 6110 0dda 00       		.byte	0
ARM GAS  C:\Users\Kayas\AppData\Local\Temp\ccpxl0Kp.s 			page 120


 6111 0ddb 00       		.byte	0
 6112 0ddc 00       		.byte	0
 6113 0ddd 20       		.byte	32
 6114 0dde C0       		.byte	-64
 6115 0ddf 00       		.byte	0
 6116 0de0 00       		.byte	0
 6117 0de1 80       		.byte	-128
 6118 0de2 60       		.byte	96
 6119 0de3 00       		.byte	0
 6120 0de4 00       		.byte	0
 6121 0de5 00       		.byte	0
 6122 0de6 81       		.byte	-127
 6123 0de7 C6       		.byte	-58
 6124 0de8 3C       		.byte	60
 6125 0de9 03       		.byte	3
 6126 0dea 00       		.byte	0
 6127 0deb 00       		.byte	0
 6128 0dec 00       		.byte	0
 6129 0ded C0       		.byte	-64
 6130 0dee 60       		.byte	96
 6131 0def 20       		.byte	32
 6132 0df0 FC       		.byte	-4
 6133 0df1 20       		.byte	32
 6134 0df2 60       		.byte	96
 6135 0df3 C0       		.byte	-64
 6136 0df4 00       		.byte	0
 6137 0df5 0F       		.byte	15
 6138 0df6 18       		.byte	24
 6139 0df7 10       		.byte	16
 6140 0df8 FF       		.byte	-1
 6141 0df9 10       		.byte	16
 6142 0dfa 18       		.byte	24
 6143 0dfb 0F       		.byte	15
 6144 0dfc 00       		.byte	0
 6145 0dfd 20       		.byte	32
 6146 0dfe 40       		.byte	64
 6147 0dff 80       		.byte	-128
 6148 0e00 80       		.byte	-128
 6149 0e01 40       		.byte	64
 6150 0e02 20       		.byte	32
 6151 0e03 00       		.byte	0
 6152 0e04 00       		.byte	0
 6153 0e05 10       		.byte	16
 6154 0e06 0C       		.byte	12
 6155 0e07 03       		.byte	3
 6156 0e08 03       		.byte	3
 6157 0e09 0C       		.byte	12
 6158 0e0a 10       		.byte	16
 6159 0e0b 00       		.byte	0
 6160 0e0c 00       		.byte	0
 6161 0e0d E0       		.byte	-32
 6162 0e0e 00       		.byte	0
 6163 0e0f 00       		.byte	0
 6164 0e10 00       		.byte	0
 6165 0e11 00       		.byte	0
 6166 0e12 E0       		.byte	-32
 6167 0e13 00       		.byte	0
ARM GAS  C:\Users\Kayas\AppData\Local\Temp\ccpxl0Kp.s 			page 121


 6168 0e14 00       		.byte	0
 6169 0e15 1F       		.byte	31
 6170 0e16 10       		.byte	16
 6171 0e17 10       		.byte	16
 6172 0e18 10       		.byte	16
 6173 0e19 10       		.byte	16
 6174 0e1a 1F       		.byte	31
 6175 0e1b 70       		.byte	112
 6176 0e1c 00       		.byte	0
 6177 0e1d E0       		.byte	-32
 6178 0e1e 00       		.byte	0
 6179 0e1f 00       		.byte	0
 6180 0e20 00       		.byte	0
 6181 0e21 00       		.byte	0
 6182 0e22 E0       		.byte	-32
 6183 0e23 00       		.byte	0
 6184 0e24 00       		.byte	0
 6185 0e25 01       		.byte	1
 6186 0e26 02       		.byte	2
 6187 0e27 02       		.byte	2
 6188 0e28 02       		.byte	2
 6189 0e29 02       		.byte	2
 6190 0e2a 1F       		.byte	31
 6191 0e2b 00       		.byte	0
 6192 0e2c 00       		.byte	0
 6193 0e2d E0       		.byte	-32
 6194 0e2e 00       		.byte	0
 6195 0e2f 00       		.byte	0
 6196 0e30 E0       		.byte	-32
 6197 0e31 00       		.byte	0
 6198 0e32 00       		.byte	0
 6199 0e33 E0       		.byte	-32
 6200 0e34 00       		.byte	0
 6201 0e35 1F       		.byte	31
 6202 0e36 10       		.byte	16
 6203 0e37 10       		.byte	16
 6204 0e38 1F       		.byte	31
 6205 0e39 10       		.byte	16
 6206 0e3a 10       		.byte	16
 6207 0e3b 1F       		.byte	31
 6208 0e3c 00       		.byte	0
 6209 0e3d E0       		.byte	-32
 6210 0e3e 00       		.byte	0
 6211 0e3f 00       		.byte	0
 6212 0e40 E0       		.byte	-32
 6213 0e41 00       		.byte	0
 6214 0e42 00       		.byte	0
 6215 0e43 E0       		.byte	-32
 6216 0e44 00       		.byte	0
 6217 0e45 1F       		.byte	31
 6218 0e46 10       		.byte	16
 6219 0e47 10       		.byte	16
 6220 0e48 1F       		.byte	31
 6221 0e49 10       		.byte	16
 6222 0e4a 10       		.byte	16
 6223 0e4b 7F       		.byte	127
 6224 0e4c 20       		.byte	32
ARM GAS  C:\Users\Kayas\AppData\Local\Temp\ccpxl0Kp.s 			page 122


 6225 0e4d 20       		.byte	32
 6226 0e4e E0       		.byte	-32
 6227 0e4f 00       		.byte	0
 6228 0e50 00       		.byte	0
 6229 0e51 00       		.byte	0
 6230 0e52 00       		.byte	0
 6231 0e53 00       		.byte	0
 6232 0e54 00       		.byte	0
 6233 0e55 00       		.byte	0
 6234 0e56 1F       		.byte	31
 6235 0e57 11       		.byte	17
 6236 0e58 11       		.byte	17
 6237 0e59 11       		.byte	17
 6238 0e5a 11       		.byte	17
 6239 0e5b 0E       		.byte	14
 6240 0e5c 00       		.byte	0
 6241 0e5d E0       		.byte	-32
 6242 0e5e 00       		.byte	0
 6243 0e5f 00       		.byte	0
 6244 0e60 00       		.byte	0
 6245 0e61 00       		.byte	0
 6246 0e62 00       		.byte	0
 6247 0e63 E0       		.byte	-32
 6248 0e64 00       		.byte	0
 6249 0e65 1F       		.byte	31
 6250 0e66 11       		.byte	17
 6251 0e67 11       		.byte	17
 6252 0e68 11       		.byte	17
 6253 0e69 0E       		.byte	14
 6254 0e6a 00       		.byte	0
 6255 0e6b 1F       		.byte	31
 6256 0e6c 00       		.byte	0
 6257 0e6d E0       		.byte	-32
 6258 0e6e 00       		.byte	0
 6259 0e6f 00       		.byte	0
 6260 0e70 00       		.byte	0
 6261 0e71 00       		.byte	0
 6262 0e72 00       		.byte	0
 6263 0e73 00       		.byte	0
 6264 0e74 00       		.byte	0
 6265 0e75 1F       		.byte	31
 6266 0e76 11       		.byte	17
 6267 0e77 11       		.byte	17
 6268 0e78 11       		.byte	17
 6269 0e79 11       		.byte	17
 6270 0e7a 0E       		.byte	14
 6271 0e7b 00       		.byte	0
 6272 0e7c 00       		.byte	0
 6273 0e7d 40       		.byte	64
 6274 0e7e 20       		.byte	32
 6275 0e7f 20       		.byte	32
 6276 0e80 20       		.byte	32
 6277 0e81 40       		.byte	64
 6278 0e82 80       		.byte	-128
 6279 0e83 00       		.byte	0
 6280 0e84 00       		.byte	0
 6281 0e85 08       		.byte	8
ARM GAS  C:\Users\Kayas\AppData\Local\Temp\ccpxl0Kp.s 			page 123


 6282 0e86 11       		.byte	17
 6283 0e87 11       		.byte	17
 6284 0e88 11       		.byte	17
 6285 0e89 09       		.byte	9
 6286 0e8a 07       		.byte	7
 6287 0e8b 00       		.byte	0
 6288 0e8c 00       		.byte	0
 6289 0e8d E0       		.byte	-32
 6290 0e8e 00       		.byte	0
 6291 0e8f C0       		.byte	-64
 6292 0e90 60       		.byte	96
 6293 0e91 20       		.byte	32
 6294 0e92 60       		.byte	96
 6295 0e93 C0       		.byte	-64
 6296 0e94 00       		.byte	0
 6297 0e95 1F       		.byte	31
 6298 0e96 02       		.byte	2
 6299 0e97 0F       		.byte	15
 6300 0e98 18       		.byte	24
 6301 0e99 10       		.byte	16
 6302 0e9a 18       		.byte	24
 6303 0e9b 0F       		.byte	15
 6304 0e9c 00       		.byte	0
 6305 0e9d C0       		.byte	-64
 6306 0e9e 20       		.byte	32
 6307 0e9f 20       		.byte	32
 6308 0ea0 20       		.byte	32
 6309 0ea1 E0       		.byte	-32
 6310 0ea2 00       		.byte	0
 6311 0ea3 00       		.byte	0
 6312 0ea4 00       		.byte	0
 6313 0ea5 11       		.byte	17
 6314 0ea6 0E       		.byte	14
 6315 0ea7 02       		.byte	2
 6316 0ea8 02       		.byte	2
 6317 0ea9 1F       		.byte	31
 6318 0eaa 00       		.byte	0
 6319 0eab 00       		.byte	0
 6320              		.data
 6321              		.align	1
 6322              		.set	.LANCHOR0,. + 0
 6323              		.type	MAX_X, %object
 6324              		.size	MAX_X, 2
 6325              	MAX_X:
 6326 0000 0A00     		.short	10
 6327              		.type	MAX_Y, %object
 6328              		.size	MAX_Y, 2
 6329              	MAX_Y:
 6330 0002 0A00     		.short	10
 6331              		.text
 6332              	.Letext0:
 6333              		.file 2 "c:\\program files (x86)\\cypress\\psoc creator\\4.2\\psoc creator\\import\\gnu\\arm\\5.4.
 6334              		.file 3 "c:\\program files (x86)\\cypress\\psoc creator\\4.2\\psoc creator\\import\\gnu\\arm\\5.4.
 6335              		.file 4 "Generated_Source\\PSoC4/cytypes.h"
 6336              		.file 5 "D:\\Psoc\\TFT240_320_4200\\TFT240x320.cydsn\\fonts.h"
 6337              		.file 6 "Generated_Source\\PSoC4/RTC.h"
 6338              		.file 7 "Generated_Source\\PSoC4/D_C.h"
ARM GAS  C:\Users\Kayas\AppData\Local\Temp\ccpxl0Kp.s 			page 124


 6339              		.file 8 "Generated_Source\\PSoC4/SPIM.h"
 6340              		.file 9 "Generated_Source\\PSoC4/CyLib.h"
 6341              		.file 10 "Generated_Source\\PSoC4/rst.h"
 6342              		.section	.debug_info,"",%progbits
 6343              	.Ldebug_info0:
 6344 0000 0D1A0000 		.4byte	0x1a0d
 6345 0004 0400     		.2byte	0x4
 6346 0006 00000000 		.4byte	.Ldebug_abbrev0
 6347 000a 04       		.byte	0x4
 6348 000b 01       		.uleb128 0x1
 6349 000c 11010000 		.4byte	.LASF80
 6350 0010 0C       		.byte	0xc
 6351 0011 90000000 		.4byte	.LASF81
 6352 0015 57000000 		.4byte	.LASF82
 6353 0019 00000000 		.4byte	.Ldebug_ranges0+0
 6354 001d 00000000 		.4byte	0
 6355 0021 00000000 		.4byte	.Ldebug_line0
 6356 0025 02       		.uleb128 0x2
 6357 0026 04       		.byte	0x4
 6358 0027 07       		.byte	0x7
 6359 0028 E1020000 		.4byte	.LASF0
 6360 002c 03       		.uleb128 0x3
 6361 002d 04       		.byte	0x4
 6362 002e 05       		.byte	0x5
 6363 002f 696E7400 		.ascii	"int\000"
 6364 0033 02       		.uleb128 0x2
 6365 0034 08       		.byte	0x8
 6366 0035 05       		.byte	0x5
 6367 0036 17020000 		.4byte	.LASF1
 6368 003a 02       		.uleb128 0x2
 6369 003b 08       		.byte	0x8
 6370 003c 04       		.byte	0x4
 6371 003d D6000000 		.4byte	.LASF2
 6372 0041 04       		.uleb128 0x4
 6373 0042 13030000 		.4byte	.LASF4
 6374 0046 02       		.byte	0x2
 6375 0047 1B       		.byte	0x1b
 6376 0048 4C000000 		.4byte	0x4c
 6377 004c 02       		.uleb128 0x2
 6378 004d 01       		.byte	0x1
 6379 004e 06       		.byte	0x6
 6380 004f B6020000 		.4byte	.LASF3
 6381 0053 04       		.uleb128 0x4
 6382 0054 6B020000 		.4byte	.LASF5
 6383 0058 02       		.byte	0x2
 6384 0059 1D       		.byte	0x1d
 6385 005a 5E000000 		.4byte	0x5e
 6386 005e 02       		.uleb128 0x2
 6387 005f 01       		.byte	0x1
 6388 0060 08       		.byte	0x8
 6389 0061 99020000 		.4byte	.LASF6
 6390 0065 04       		.uleb128 0x4
 6391 0066 EB030000 		.4byte	.LASF7
 6392 006a 02       		.byte	0x2
 6393 006b 29       		.byte	0x29
 6394 006c 70000000 		.4byte	0x70
 6395 0070 02       		.uleb128 0x2
ARM GAS  C:\Users\Kayas\AppData\Local\Temp\ccpxl0Kp.s 			page 125


 6396 0071 02       		.byte	0x2
 6397 0072 05       		.byte	0x5
 6398 0073 FB000000 		.4byte	.LASF8
 6399 0077 04       		.uleb128 0x4
 6400 0078 F0000000 		.4byte	.LASF9
 6401 007c 02       		.byte	0x2
 6402 007d 2B       		.byte	0x2b
 6403 007e 82000000 		.4byte	0x82
 6404 0082 02       		.uleb128 0x2
 6405 0083 02       		.byte	0x2
 6406 0084 07       		.byte	0x7
 6407 0085 5E030000 		.4byte	.LASF10
 6408 0089 02       		.uleb128 0x2
 6409 008a 04       		.byte	0x4
 6410 008b 05       		.byte	0x5
 6411 008c 44020000 		.4byte	.LASF11
 6412 0090 02       		.uleb128 0x2
 6413 0091 04       		.byte	0x4
 6414 0092 07       		.byte	0x7
 6415 0093 7D030000 		.4byte	.LASF12
 6416 0097 02       		.uleb128 0x2
 6417 0098 08       		.byte	0x8
 6418 0099 07       		.byte	0x7
 6419 009a CA020000 		.4byte	.LASF13
 6420 009e 02       		.uleb128 0x2
 6421 009f 04       		.byte	0x4
 6422 00a0 07       		.byte	0x7
 6423 00a1 5B020000 		.4byte	.LASF14
 6424 00a5 05       		.uleb128 0x5
 6425 00a6 04       		.byte	0x4
 6426 00a7 AB000000 		.4byte	0xab
 6427 00ab 02       		.uleb128 0x2
 6428 00ac 01       		.byte	0x1
 6429 00ad 08       		.byte	0x8
 6430 00ae 1C030000 		.4byte	.LASF15
 6431 00b2 06       		.uleb128 0x6
 6432 00b3 AB000000 		.4byte	0xab
 6433 00b7 04       		.uleb128 0x4
 6434 00b8 14000000 		.4byte	.LASF16
 6435 00bc 03       		.byte	0x3
 6436 00bd 14       		.byte	0x14
 6437 00be 41000000 		.4byte	0x41
 6438 00c2 04       		.uleb128 0x4
 6439 00c3 AE010000 		.4byte	.LASF17
 6440 00c7 03       		.byte	0x3
 6441 00c8 18       		.byte	0x18
 6442 00c9 53000000 		.4byte	0x53
 6443 00cd 04       		.uleb128 0x4
 6444 00ce 06040000 		.4byte	.LASF18
 6445 00d2 03       		.byte	0x3
 6446 00d3 20       		.byte	0x20
 6447 00d4 65000000 		.4byte	0x65
 6448 00d8 04       		.uleb128 0x4
 6449 00d9 EE020000 		.4byte	.LASF19
 6450 00dd 03       		.byte	0x3
 6451 00de 24       		.byte	0x24
 6452 00df 77000000 		.4byte	0x77
ARM GAS  C:\Users\Kayas\AppData\Local\Temp\ccpxl0Kp.s 			page 126


 6453 00e3 07       		.uleb128 0x7
 6454 00e4 57030000 		.4byte	.LASF20
 6455 00e8 04       		.byte	0x4
 6456 00e9 E501     		.2byte	0x1e5
 6457 00eb 82000000 		.4byte	0x82
 6458 00ef 02       		.uleb128 0x2
 6459 00f0 04       		.byte	0x4
 6460 00f1 04       		.byte	0x4
 6461 00f2 F8010000 		.4byte	.LASF21
 6462 00f6 02       		.uleb128 0x2
 6463 00f7 08       		.byte	0x8
 6464 00f8 04       		.byte	0x4
 6465 00f9 8F030000 		.4byte	.LASF22
 6466 00fd 08       		.uleb128 0x8
 6467 00fe D5030000 		.4byte	.LASF83
 6468 0102 01       		.byte	0x1
 6469 0103 0F       		.byte	0xf
 6470 0104 D8000000 		.4byte	0xd8
 6471 0108 00000000 		.4byte	.LFB59
 6472 010c 10000000 		.4byte	.LFE59-.LFB59
 6473 0110 01       		.uleb128 0x1
 6474 0111 9C       		.byte	0x9c
 6475 0112 3A010000 		.4byte	0x13a
 6476 0116 09       		.uleb128 0x9
 6477 0117 6100     		.ascii	"a\000"
 6478 0119 01       		.byte	0x1
 6479 011a 0F       		.byte	0xf
 6480 011b D8000000 		.4byte	0xd8
 6481 011f 00000000 		.4byte	.LLST0
 6482 0123 0A       		.uleb128 0xa
 6483 0124 6200     		.ascii	"b\000"
 6484 0126 01       		.byte	0x1
 6485 0127 0F       		.byte	0xf
 6486 0128 D8000000 		.4byte	0xd8
 6487 012c 01       		.uleb128 0x1
 6488 012d 51       		.byte	0x51
 6489 012e 0A       		.uleb128 0xa
 6490 012f 6300     		.ascii	"c\000"
 6491 0131 01       		.byte	0x1
 6492 0132 0F       		.byte	0xf
 6493 0133 D8000000 		.4byte	0xd8
 6494 0137 01       		.uleb128 0x1
 6495 0138 52       		.byte	0x52
 6496 0139 00       		.byte	0
 6497 013a 0B       		.uleb128 0xb
 6498 013b 05010000 		.4byte	.LASF23
 6499 013f 01       		.byte	0x1
 6500 0140 16       		.byte	0x16
 6501 0141 00000000 		.4byte	.LFB60
 6502 0145 18000000 		.4byte	.LFE60-.LFB60
 6503 0149 01       		.uleb128 0x1
 6504 014a 9C       		.byte	0x9c
 6505 014b 95010000 		.4byte	0x195
 6506 014f 09       		.uleb128 0x9
 6507 0150 636D6400 		.ascii	"cmd\000"
 6508 0154 01       		.byte	0x1
 6509 0155 16       		.byte	0x16
ARM GAS  C:\Users\Kayas\AppData\Local\Temp\ccpxl0Kp.s 			page 127


 6510 0156 C2000000 		.4byte	0xc2
 6511 015a 3A000000 		.4byte	.LLST1
 6512 015e 0C       		.uleb128 0xc
 6513 015f 0A000000 		.4byte	.LVL6
 6514 0163 D9190000 		.4byte	0x19d9
 6515 0167 71010000 		.4byte	0x171
 6516 016b 0D       		.uleb128 0xd
 6517 016c 01       		.uleb128 0x1
 6518 016d 50       		.byte	0x50
 6519 016e 01       		.uleb128 0x1
 6520 016f 30       		.byte	0x30
 6521 0170 00       		.byte	0
 6522 0171 0C       		.uleb128 0xc
 6523 0172 10000000 		.4byte	.LVL7
 6524 0176 E4190000 		.4byte	0x19e4
 6525 017a 85010000 		.4byte	0x185
 6526 017e 0D       		.uleb128 0xd
 6527 017f 01       		.uleb128 0x1
 6528 0180 50       		.byte	0x50
 6529 0181 02       		.uleb128 0x2
 6530 0182 74       		.byte	0x74
 6531 0183 00       		.sleb128 0
 6532 0184 00       		.byte	0
 6533 0185 0E       		.uleb128 0xe
 6534 0186 16000000 		.4byte	.LVL8
 6535 018a EF190000 		.4byte	0x19ef
 6536 018e 0D       		.uleb128 0xd
 6537 018f 01       		.uleb128 0x1
 6538 0190 50       		.byte	0x50
 6539 0191 01       		.uleb128 0x1
 6540 0192 31       		.byte	0x31
 6541 0193 00       		.byte	0
 6542 0194 00       		.byte	0
 6543 0195 0B       		.uleb128 0xb
 6544 0196 E2000000 		.4byte	.LASF24
 6545 019a 01       		.byte	0x1
 6546 019b 19       		.byte	0x19
 6547 019c 00000000 		.4byte	.LFB61
 6548 01a0 18000000 		.4byte	.LFE61-.LFB61
 6549 01a4 01       		.uleb128 0x1
 6550 01a5 9C       		.byte	0x9c
 6551 01a6 F0010000 		.4byte	0x1f0
 6552 01aa 0F       		.uleb128 0xf
 6553 01ab 0E030000 		.4byte	.LASF25
 6554 01af 01       		.byte	0x1
 6555 01b0 19       		.byte	0x19
 6556 01b1 C2000000 		.4byte	0xc2
 6557 01b5 5B000000 		.4byte	.LLST2
 6558 01b9 0C       		.uleb128 0xc
 6559 01ba 0A000000 		.4byte	.LVL11
 6560 01be D9190000 		.4byte	0x19d9
 6561 01c2 CC010000 		.4byte	0x1cc
 6562 01c6 0D       		.uleb128 0xd
 6563 01c7 01       		.uleb128 0x1
 6564 01c8 50       		.byte	0x50
 6565 01c9 01       		.uleb128 0x1
 6566 01ca 31       		.byte	0x31
ARM GAS  C:\Users\Kayas\AppData\Local\Temp\ccpxl0Kp.s 			page 128


 6567 01cb 00       		.byte	0
 6568 01cc 0C       		.uleb128 0xc
 6569 01cd 10000000 		.4byte	.LVL12
 6570 01d1 E4190000 		.4byte	0x19e4
 6571 01d5 E0010000 		.4byte	0x1e0
 6572 01d9 0D       		.uleb128 0xd
 6573 01da 01       		.uleb128 0x1
 6574 01db 50       		.byte	0x50
 6575 01dc 02       		.uleb128 0x2
 6576 01dd 74       		.byte	0x74
 6577 01de 00       		.sleb128 0
 6578 01df 00       		.byte	0
 6579 01e0 0E       		.uleb128 0xe
 6580 01e1 16000000 		.4byte	.LVL13
 6581 01e5 EF190000 		.4byte	0x19ef
 6582 01e9 0D       		.uleb128 0xd
 6583 01ea 01       		.uleb128 0x1
 6584 01eb 50       		.byte	0x50
 6585 01ec 01       		.uleb128 0x1
 6586 01ed 31       		.byte	0x31
 6587 01ee 00       		.byte	0
 6588 01ef 00       		.byte	0
 6589 01f0 0B       		.uleb128 0xb
 6590 01f1 7B020000 		.4byte	.LASF26
 6591 01f5 01       		.byte	0x1
 6592 01f6 1C       		.byte	0x1c
 6593 01f7 00000000 		.4byte	.LFB62
 6594 01fb 14000000 		.4byte	.LFE62-.LFB62
 6595 01ff 01       		.uleb128 0x1
 6596 0200 9C       		.byte	0x9c
 6597 0201 4C020000 		.4byte	0x24c
 6598 0205 0F       		.uleb128 0xf
 6599 0206 0E030000 		.4byte	.LASF25
 6600 020a 01       		.byte	0x1
 6601 020b 1C       		.byte	0x1c
 6602 020c D8000000 		.4byte	0xd8
 6603 0210 7C000000 		.4byte	.LLST3
 6604 0214 10       		.uleb128 0x10
 6605 0215 21040000 		.4byte	.LASF27
 6606 0219 01       		.byte	0x1
 6607 021a 1E       		.byte	0x1e
 6608 021b C2000000 		.4byte	0xc2
 6609 021f 9D000000 		.4byte	.LLST4
 6610 0223 10       		.uleb128 0x10
 6611 0224 27040000 		.4byte	.LASF28
 6612 0228 01       		.byte	0x1
 6613 0229 1F       		.byte	0x1f
 6614 022a C2000000 		.4byte	0xc2
 6615 022e B0000000 		.4byte	.LLST5
 6616 0232 11       		.uleb128 0x11
 6617 0233 0C000000 		.4byte	.LVL17
 6618 0237 95010000 		.4byte	0x195
 6619 023b 0E       		.uleb128 0xe
 6620 023c 12000000 		.4byte	.LVL18
 6621 0240 95010000 		.4byte	0x195
 6622 0244 0D       		.uleb128 0xd
 6623 0245 01       		.uleb128 0x1
ARM GAS  C:\Users\Kayas\AppData\Local\Temp\ccpxl0Kp.s 			page 129


 6624 0246 50       		.byte	0x50
 6625 0247 02       		.uleb128 0x2
 6626 0248 74       		.byte	0x74
 6627 0249 00       		.sleb128 0
 6628 024a 00       		.byte	0
 6629 024b 00       		.byte	0
 6630 024c 0B       		.uleb128 0xb
 6631 024d 47030000 		.4byte	.LASF29
 6632 0251 01       		.byte	0x1
 6633 0252 A1       		.byte	0xa1
 6634 0253 00000000 		.4byte	.LFB64
 6635 0257 1A000000 		.4byte	.LFE64-.LFB64
 6636 025b 01       		.uleb128 0x1
 6637 025c 9C       		.byte	0x9c
 6638 025d B8020000 		.4byte	0x2b8
 6639 0261 0F       		.uleb128 0xf
 6640 0262 CC030000 		.4byte	.LASF30
 6641 0266 01       		.byte	0x1
 6642 0267 A1       		.byte	0xa1
 6643 0268 D8000000 		.4byte	0xd8
 6644 026c C3000000 		.4byte	.LLST6
 6645 0270 0F       		.uleb128 0xf
 6646 0271 21030000 		.4byte	.LASF31
 6647 0275 01       		.byte	0x1
 6648 0276 A1       		.byte	0xa1
 6649 0277 D8000000 		.4byte	0xd8
 6650 027b E4000000 		.4byte	.LLST7
 6651 027f 0C       		.uleb128 0xc
 6652 0280 0C000000 		.4byte	.LVL22
 6653 0284 3A010000 		.4byte	0x13a
 6654 0288 93020000 		.4byte	0x293
 6655 028c 0D       		.uleb128 0xd
 6656 028d 01       		.uleb128 0x1
 6657 028e 50       		.byte	0x50
 6658 028f 02       		.uleb128 0x2
 6659 0290 08       		.byte	0x8
 6660 0291 2A       		.byte	0x2a
 6661 0292 00       		.byte	0
 6662 0293 0C       		.uleb128 0xc
 6663 0294 12000000 		.4byte	.LVL23
 6664 0298 F0010000 		.4byte	0x1f0
 6665 029c A7020000 		.4byte	0x2a7
 6666 02a0 0D       		.uleb128 0xd
 6667 02a1 01       		.uleb128 0x1
 6668 02a2 50       		.byte	0x50
 6669 02a3 02       		.uleb128 0x2
 6670 02a4 75       		.byte	0x75
 6671 02a5 00       		.sleb128 0
 6672 02a6 00       		.byte	0
 6673 02a7 0E       		.uleb128 0xe
 6674 02a8 18000000 		.4byte	.LVL24
 6675 02ac F0010000 		.4byte	0x1f0
 6676 02b0 0D       		.uleb128 0xd
 6677 02b1 01       		.uleb128 0x1
 6678 02b2 50       		.byte	0x50
 6679 02b3 02       		.uleb128 0x2
 6680 02b4 74       		.byte	0x74
ARM GAS  C:\Users\Kayas\AppData\Local\Temp\ccpxl0Kp.s 			page 130


 6681 02b5 00       		.sleb128 0
 6682 02b6 00       		.byte	0
 6683 02b7 00       		.byte	0
 6684 02b8 0B       		.uleb128 0xb
 6685 02b9 71030000 		.4byte	.LASF32
 6686 02bd 01       		.byte	0x1
 6687 02be A8       		.byte	0xa8
 6688 02bf 00000000 		.4byte	.LFB65
 6689 02c3 1A000000 		.4byte	.LFE65-.LFB65
 6690 02c7 01       		.uleb128 0x1
 6691 02c8 9C       		.byte	0x9c
 6692 02c9 24030000 		.4byte	0x324
 6693 02cd 0F       		.uleb128 0xf
 6694 02ce 0E040000 		.4byte	.LASF33
 6695 02d2 01       		.byte	0x1
 6696 02d3 A8       		.byte	0xa8
 6697 02d4 D8000000 		.4byte	0xd8
 6698 02d8 05010000 		.4byte	.LLST8
 6699 02dc 0F       		.uleb128 0xf
 6700 02dd 35030000 		.4byte	.LASF34
 6701 02e1 01       		.byte	0x1
 6702 02e2 A8       		.byte	0xa8
 6703 02e3 D8000000 		.4byte	0xd8
 6704 02e7 26010000 		.4byte	.LLST9
 6705 02eb 0C       		.uleb128 0xc
 6706 02ec 0C000000 		.4byte	.LVL27
 6707 02f0 3A010000 		.4byte	0x13a
 6708 02f4 FF020000 		.4byte	0x2ff
 6709 02f8 0D       		.uleb128 0xd
 6710 02f9 01       		.uleb128 0x1
 6711 02fa 50       		.byte	0x50
 6712 02fb 02       		.uleb128 0x2
 6713 02fc 08       		.byte	0x8
 6714 02fd 2B       		.byte	0x2b
 6715 02fe 00       		.byte	0
 6716 02ff 0C       		.uleb128 0xc
 6717 0300 12000000 		.4byte	.LVL28
 6718 0304 F0010000 		.4byte	0x1f0
 6719 0308 13030000 		.4byte	0x313
 6720 030c 0D       		.uleb128 0xd
 6721 030d 01       		.uleb128 0x1
 6722 030e 50       		.byte	0x50
 6723 030f 02       		.uleb128 0x2
 6724 0310 75       		.byte	0x75
 6725 0311 00       		.sleb128 0
 6726 0312 00       		.byte	0
 6727 0313 0E       		.uleb128 0xe
 6728 0314 18000000 		.4byte	.LVL29
 6729 0318 F0010000 		.4byte	0x1f0
 6730 031c 0D       		.uleb128 0xd
 6731 031d 01       		.uleb128 0x1
 6732 031e 50       		.byte	0x50
 6733 031f 02       		.uleb128 0x2
 6734 0320 74       		.byte	0x74
 6735 0321 00       		.sleb128 0
 6736 0322 00       		.byte	0
 6737 0323 00       		.byte	0
ARM GAS  C:\Users\Kayas\AppData\Local\Temp\ccpxl0Kp.s 			page 131


 6738 0324 0B       		.uleb128 0xb
 6739 0325 A9030000 		.4byte	.LASF35
 6740 0329 01       		.byte	0x1
 6741 032a AF       		.byte	0xaf
 6742 032b 00000000 		.4byte	.LFB66
 6743 032f 4C000000 		.4byte	.LFE66-.LFB66
 6744 0333 01       		.uleb128 0x1
 6745 0334 9C       		.byte	0x9c
 6746 0335 CD030000 		.4byte	0x3cd
 6747 0339 12       		.uleb128 0x12
 6748 033a 6900     		.ascii	"i\000"
 6749 033c 01       		.byte	0x1
 6750 033d B1       		.byte	0xb1
 6751 033e D8000000 		.4byte	0xd8
 6752 0342 47010000 		.4byte	.LLST10
 6753 0346 0C       		.uleb128 0xc
 6754 0347 0C000000 		.4byte	.LVL31
 6755 034b 4C020000 		.4byte	0x24c
 6756 034f 59030000 		.4byte	0x359
 6757 0353 0D       		.uleb128 0xd
 6758 0354 01       		.uleb128 0x1
 6759 0355 50       		.byte	0x50
 6760 0356 01       		.uleb128 0x1
 6761 0357 30       		.byte	0x30
 6762 0358 00       		.byte	0
 6763 0359 0C       		.uleb128 0xc
 6764 035a 14000000 		.4byte	.LVL32
 6765 035e B8020000 		.4byte	0x2b8
 6766 0362 6C030000 		.4byte	0x36c
 6767 0366 0D       		.uleb128 0xd
 6768 0367 01       		.uleb128 0x1
 6769 0368 50       		.byte	0x50
 6770 0369 01       		.uleb128 0x1
 6771 036a 30       		.byte	0x30
 6772 036b 00       		.byte	0
 6773 036c 0C       		.uleb128 0xc
 6774 036d 1A000000 		.4byte	.LVL33
 6775 0371 3A010000 		.4byte	0x13a
 6776 0375 80030000 		.4byte	0x380
 6777 0379 0D       		.uleb128 0xd
 6778 037a 01       		.uleb128 0x1
 6779 037b 50       		.byte	0x50
 6780 037c 02       		.uleb128 0x2
 6781 037d 08       		.byte	0x8
 6782 037e 2C       		.byte	0x2c
 6783 037f 00       		.byte	0
 6784 0380 0C       		.uleb128 0xc
 6785 0381 24000000 		.4byte	.LVL35
 6786 0385 95010000 		.4byte	0x195
 6787 0389 94030000 		.4byte	0x394
 6788 038d 0D       		.uleb128 0xd
 6789 038e 01       		.uleb128 0x1
 6790 038f 50       		.byte	0x50
 6791 0390 02       		.uleb128 0x2
 6792 0391 09       		.byte	0x9
 6793 0392 FF       		.byte	0xff
 6794 0393 00       		.byte	0
ARM GAS  C:\Users\Kayas\AppData\Local\Temp\ccpxl0Kp.s 			page 132


 6795 0394 0C       		.uleb128 0xc
 6796 0395 2A000000 		.4byte	.LVL36
 6797 0399 95010000 		.4byte	0x195
 6798 039d A8030000 		.4byte	0x3a8
 6799 03a1 0D       		.uleb128 0xd
 6800 03a2 01       		.uleb128 0x1
 6801 03a3 50       		.byte	0x50
 6802 03a4 02       		.uleb128 0x2
 6803 03a5 09       		.byte	0x9
 6804 03a6 FF       		.byte	0xff
 6805 03a7 00       		.byte	0
 6806 03a8 0C       		.uleb128 0xc
 6807 03a9 30000000 		.4byte	.LVL37
 6808 03ad 95010000 		.4byte	0x195
 6809 03b1 BC030000 		.4byte	0x3bc
 6810 03b5 0D       		.uleb128 0xd
 6811 03b6 01       		.uleb128 0x1
 6812 03b7 50       		.byte	0x50
 6813 03b8 02       		.uleb128 0x2
 6814 03b9 09       		.byte	0x9
 6815 03ba FF       		.byte	0xff
 6816 03bb 00       		.byte	0
 6817 03bc 0E       		.uleb128 0xe
 6818 03bd 36000000 		.4byte	.LVL38
 6819 03c1 95010000 		.4byte	0x195
 6820 03c5 0D       		.uleb128 0xd
 6821 03c6 01       		.uleb128 0x1
 6822 03c7 50       		.byte	0x50
 6823 03c8 02       		.uleb128 0x2
 6824 03c9 09       		.byte	0x9
 6825 03ca FF       		.byte	0xff
 6826 03cb 00       		.byte	0
 6827 03cc 00       		.byte	0
 6828 03cd 0B       		.uleb128 0xb
 6829 03ce C7010000 		.4byte	.LASF36
 6830 03d2 01       		.byte	0x1
 6831 03d3 C1       		.byte	0xc1
 6832 03d4 00000000 		.4byte	.LFB67
 6833 03d8 B4000000 		.4byte	.LFE67-.LFB67
 6834 03dc 01       		.uleb128 0x1
 6835 03dd 9C       		.byte	0x9c
 6836 03de 45050000 		.4byte	0x545
 6837 03e2 09       		.uleb128 0x9
 6838 03e3 584C00   		.ascii	"XL\000"
 6839 03e6 01       		.byte	0x1
 6840 03e7 C1       		.byte	0xc1
 6841 03e8 D8000000 		.4byte	0xd8
 6842 03ec 71010000 		.4byte	.LLST11
 6843 03f0 09       		.uleb128 0x9
 6844 03f1 585200   		.ascii	"XR\000"
 6845 03f4 01       		.byte	0x1
 6846 03f5 C1       		.byte	0xc1
 6847 03f6 D8000000 		.4byte	0xd8
 6848 03fa 9B010000 		.4byte	.LLST12
 6849 03fe 09       		.uleb128 0x9
 6850 03ff 595500   		.ascii	"YU\000"
 6851 0402 01       		.byte	0x1
ARM GAS  C:\Users\Kayas\AppData\Local\Temp\ccpxl0Kp.s 			page 133


 6852 0403 C1       		.byte	0xc1
 6853 0404 D8000000 		.4byte	0xd8
 6854 0408 B9010000 		.4byte	.LLST13
 6855 040c 09       		.uleb128 0x9
 6856 040d 594400   		.ascii	"YD\000"
 6857 0410 01       		.byte	0x1
 6858 0411 C1       		.byte	0xc1
 6859 0412 D8000000 		.4byte	0xd8
 6860 0416 E2010000 		.4byte	.LLST14
 6861 041a 0F       		.uleb128 0xf
 6862 041b 3C000000 		.4byte	.LASF37
 6863 041f 01       		.byte	0x1
 6864 0420 C1       		.byte	0xc1
 6865 0421 D8000000 		.4byte	0xd8
 6866 0425 19020000 		.4byte	.LLST15
 6867 0429 12       		.uleb128 0x12
 6868 042a 585900   		.ascii	"XY\000"
 6869 042d 01       		.byte	0x1
 6870 042e C3       		.byte	0xc3
 6871 042f 90000000 		.4byte	0x90
 6872 0433 64020000 		.4byte	.LLST16
 6873 0437 12       		.uleb128 0x12
 6874 0438 6900     		.ascii	"i\000"
 6875 043a 01       		.byte	0x1
 6876 043b C4       		.byte	0xc4
 6877 043c 90000000 		.4byte	0x90
 6878 0440 99020000 		.4byte	.LLST17
 6879 0444 10       		.uleb128 0x10
 6880 0445 0D000000 		.4byte	.LASF38
 6881 0449 01       		.byte	0x1
 6882 044a DF       		.byte	0xdf
 6883 044b C2000000 		.4byte	0xc2
 6884 044f B8020000 		.4byte	.LLST18
 6885 0453 10       		.uleb128 0x10
 6886 0454 4D020000 		.4byte	.LASF39
 6887 0458 01       		.byte	0x1
 6888 0459 E0       		.byte	0xe0
 6889 045a C2000000 		.4byte	0xc2
 6890 045e F4020000 		.4byte	.LLST19
 6891 0462 0C       		.uleb128 0xc
 6892 0463 3C000000 		.4byte	.LVL54
 6893 0467 FD000000 		.4byte	0xfd
 6894 046b 7D040000 		.4byte	0x47d
 6895 046f 0D       		.uleb128 0xd
 6896 0470 01       		.uleb128 0x1
 6897 0471 51       		.byte	0x51
 6898 0472 01       		.uleb128 0x1
 6899 0473 30       		.byte	0x30
 6900 0474 0D       		.uleb128 0xd
 6901 0475 01       		.uleb128 0x1
 6902 0476 52       		.byte	0x52
 6903 0477 04       		.uleb128 0x4
 6904 0478 7D       		.byte	0x7d
 6905 0479 00       		.sleb128 0
 6906 047a 94       		.byte	0x94
 6907 047b 02       		.byte	0x2
 6908 047c 00       		.byte	0
ARM GAS  C:\Users\Kayas\AppData\Local\Temp\ccpxl0Kp.s 			page 134


 6909 047d 0C       		.uleb128 0xc
 6910 047e 48000000 		.4byte	.LVL56
 6911 0482 FD000000 		.4byte	0xfd
 6912 0486 9E040000 		.4byte	0x49e
 6913 048a 0D       		.uleb128 0xd
 6914 048b 01       		.uleb128 0x1
 6915 048c 50       		.byte	0x50
 6916 048d 02       		.uleb128 0x2
 6917 048e 77       		.byte	0x77
 6918 048f 00       		.sleb128 0
 6919 0490 0D       		.uleb128 0xd
 6920 0491 01       		.uleb128 0x1
 6921 0492 51       		.byte	0x51
 6922 0493 01       		.uleb128 0x1
 6923 0494 30       		.byte	0x30
 6924 0495 0D       		.uleb128 0xd
 6925 0496 01       		.uleb128 0x1
 6926 0497 52       		.byte	0x52
 6927 0498 04       		.uleb128 0x4
 6928 0499 7D       		.byte	0x7d
 6929 049a 00       		.sleb128 0
 6930 049b 94       		.byte	0x94
 6931 049c 02       		.byte	0x2
 6932 049d 00       		.byte	0
 6933 049e 0C       		.uleb128 0xc
 6934 049f 56000000 		.4byte	.LVL58
 6935 04a3 FD000000 		.4byte	0xfd
 6936 04a7 BD040000 		.4byte	0x4bd
 6937 04ab 0D       		.uleb128 0xd
 6938 04ac 01       		.uleb128 0x1
 6939 04ad 50       		.byte	0x50
 6940 04ae 02       		.uleb128 0x2
 6941 04af 74       		.byte	0x74
 6942 04b0 00       		.sleb128 0
 6943 04b1 0D       		.uleb128 0xd
 6944 04b2 01       		.uleb128 0x1
 6945 04b3 51       		.byte	0x51
 6946 04b4 01       		.uleb128 0x1
 6947 04b5 30       		.byte	0x30
 6948 04b6 0D       		.uleb128 0xd
 6949 04b7 01       		.uleb128 0x1
 6950 04b8 52       		.byte	0x52
 6951 04b9 02       		.uleb128 0x2
 6952 04ba 75       		.byte	0x75
 6953 04bb 00       		.sleb128 0
 6954 04bc 00       		.byte	0
 6955 04bd 0C       		.uleb128 0xc
 6956 04be 62000000 		.4byte	.LVL60
 6957 04c2 FD000000 		.4byte	0xfd
 6958 04c6 DC040000 		.4byte	0x4dc
 6959 04ca 0D       		.uleb128 0xd
 6960 04cb 01       		.uleb128 0x1
 6961 04cc 50       		.byte	0x50
 6962 04cd 02       		.uleb128 0x2
 6963 04ce 76       		.byte	0x76
 6964 04cf 00       		.sleb128 0
 6965 04d0 0D       		.uleb128 0xd
ARM GAS  C:\Users\Kayas\AppData\Local\Temp\ccpxl0Kp.s 			page 135


 6966 04d1 01       		.uleb128 0x1
 6967 04d2 51       		.byte	0x51
 6968 04d3 01       		.uleb128 0x1
 6969 04d4 30       		.byte	0x30
 6970 04d5 0D       		.uleb128 0xd
 6971 04d6 01       		.uleb128 0x1
 6972 04d7 52       		.byte	0x52
 6973 04d8 02       		.uleb128 0x2
 6974 04d9 75       		.byte	0x75
 6975 04da 00       		.sleb128 0
 6976 04db 00       		.byte	0
 6977 04dc 0C       		.uleb128 0xc
 6978 04dd 78000000 		.4byte	.LVL64
 6979 04e1 4C020000 		.4byte	0x24c
 6980 04e5 F2040000 		.4byte	0x4f2
 6981 04e9 0D       		.uleb128 0xd
 6982 04ea 01       		.uleb128 0x1
 6983 04eb 50       		.byte	0x50
 6984 04ec 04       		.uleb128 0x4
 6985 04ed 91       		.byte	0x91
 6986 04ee 64       		.sleb128 -28
 6987 04ef 94       		.byte	0x94
 6988 04f0 02       		.byte	0x2
 6989 04f1 00       		.byte	0
 6990 04f2 0C       		.uleb128 0xc
 6991 04f3 80000000 		.4byte	.LVL65
 6992 04f7 B8020000 		.4byte	0x2b8
 6993 04fb 0C050000 		.4byte	0x50c
 6994 04ff 0D       		.uleb128 0xd
 6995 0500 01       		.uleb128 0x1
 6996 0501 50       		.byte	0x50
 6997 0502 02       		.uleb128 0x2
 6998 0503 74       		.byte	0x74
 6999 0504 00       		.sleb128 0
 7000 0505 0D       		.uleb128 0xd
 7001 0506 01       		.uleb128 0x1
 7002 0507 51       		.byte	0x51
 7003 0508 02       		.uleb128 0x2
 7004 0509 75       		.byte	0x75
 7005 050a 00       		.sleb128 0
 7006 050b 00       		.byte	0
 7007 050c 0C       		.uleb128 0xc
 7008 050d 86000000 		.4byte	.LVL66
 7009 0511 3A010000 		.4byte	0x13a
 7010 0515 20050000 		.4byte	0x520
 7011 0519 0D       		.uleb128 0xd
 7012 051a 01       		.uleb128 0x1
 7013 051b 50       		.byte	0x50
 7014 051c 02       		.uleb128 0x2
 7015 051d 08       		.byte	0x8
 7016 051e 2C       		.byte	0x2c
 7017 051f 00       		.byte	0
 7018 0520 0C       		.uleb128 0xc
 7019 0521 9C000000 		.4byte	.LVL71
 7020 0525 95010000 		.4byte	0x195
 7021 0529 34050000 		.4byte	0x534
 7022 052d 0D       		.uleb128 0xd
ARM GAS  C:\Users\Kayas\AppData\Local\Temp\ccpxl0Kp.s 			page 136


 7023 052e 01       		.uleb128 0x1
 7024 052f 50       		.byte	0x50
 7025 0530 02       		.uleb128 0x2
 7026 0531 76       		.byte	0x76
 7027 0532 00       		.sleb128 0
 7028 0533 00       		.byte	0
 7029 0534 0E       		.uleb128 0xe
 7030 0535 A2000000 		.4byte	.LVL72
 7031 0539 95010000 		.4byte	0x195
 7032 053d 0D       		.uleb128 0xd
 7033 053e 01       		.uleb128 0x1
 7034 053f 50       		.byte	0x50
 7035 0540 02       		.uleb128 0x2
 7036 0541 75       		.byte	0x75
 7037 0542 00       		.sleb128 0
 7038 0543 00       		.byte	0
 7039 0544 00       		.byte	0
 7040 0545 0B       		.uleb128 0xb
 7041 0546 DF030000 		.4byte	.LASF40
 7042 054a 01       		.byte	0x1
 7043 054b EB       		.byte	0xeb
 7044 054c 00000000 		.4byte	.LFB68
 7045 0550 32000000 		.4byte	.LFE68-.LFB68
 7046 0554 01       		.uleb128 0x1
 7047 0555 9C       		.byte	0x9c
 7048 0556 FC050000 		.4byte	0x5fc
 7049 055a 09       		.uleb128 0x9
 7050 055b 706F5800 		.ascii	"poX\000"
 7051 055f 01       		.byte	0x1
 7052 0560 EB       		.byte	0xeb
 7053 0561 D8000000 		.4byte	0xd8
 7054 0565 1E030000 		.4byte	.LLST20
 7055 0569 09       		.uleb128 0x9
 7056 056a 706F5900 		.ascii	"poY\000"
 7057 056e 01       		.byte	0x1
 7058 056f EB       		.byte	0xeb
 7059 0570 D8000000 		.4byte	0xd8
 7060 0574 3F030000 		.4byte	.LLST21
 7061 0578 11       		.uleb128 0x11
 7062 0579 0A000000 		.4byte	.LVL81
 7063 057d 4C020000 		.4byte	0x24c
 7064 0581 0C       		.uleb128 0xc
 7065 0582 12000000 		.4byte	.LVL82
 7066 0586 B8020000 		.4byte	0x2b8
 7067 058a 9B050000 		.4byte	0x59b
 7068 058e 0D       		.uleb128 0xd
 7069 058f 01       		.uleb128 0x1
 7070 0590 50       		.byte	0x50
 7071 0591 02       		.uleb128 0x2
 7072 0592 74       		.byte	0x74
 7073 0593 00       		.sleb128 0
 7074 0594 0D       		.uleb128 0xd
 7075 0595 01       		.uleb128 0x1
 7076 0596 51       		.byte	0x51
 7077 0597 02       		.uleb128 0x2
 7078 0598 74       		.byte	0x74
 7079 0599 00       		.sleb128 0
ARM GAS  C:\Users\Kayas\AppData\Local\Temp\ccpxl0Kp.s 			page 137


 7080 059a 00       		.byte	0
 7081 059b 0C       		.uleb128 0xc
 7082 059c 18000000 		.4byte	.LVL83
 7083 05a0 3A010000 		.4byte	0x13a
 7084 05a4 AF050000 		.4byte	0x5af
 7085 05a8 0D       		.uleb128 0xd
 7086 05a9 01       		.uleb128 0x1
 7087 05aa 50       		.byte	0x50
 7088 05ab 02       		.uleb128 0x2
 7089 05ac 08       		.byte	0x8
 7090 05ad 2C       		.byte	0x2c
 7091 05ae 00       		.byte	0
 7092 05af 0C       		.uleb128 0xc
 7093 05b0 1E000000 		.4byte	.LVL84
 7094 05b4 95010000 		.4byte	0x195
 7095 05b8 C3050000 		.4byte	0x5c3
 7096 05bc 0D       		.uleb128 0xd
 7097 05bd 01       		.uleb128 0x1
 7098 05be 50       		.byte	0x50
 7099 05bf 02       		.uleb128 0x2
 7100 05c0 09       		.byte	0x9
 7101 05c1 FF       		.byte	0xff
 7102 05c2 00       		.byte	0
 7103 05c3 0C       		.uleb128 0xc
 7104 05c4 24000000 		.4byte	.LVL85
 7105 05c8 95010000 		.4byte	0x195
 7106 05cc D7050000 		.4byte	0x5d7
 7107 05d0 0D       		.uleb128 0xd
 7108 05d1 01       		.uleb128 0x1
 7109 05d2 50       		.byte	0x50
 7110 05d3 02       		.uleb128 0x2
 7111 05d4 09       		.byte	0x9
 7112 05d5 FF       		.byte	0xff
 7113 05d6 00       		.byte	0
 7114 05d7 0C       		.uleb128 0xc
 7115 05d8 2A000000 		.4byte	.LVL86
 7116 05dc 95010000 		.4byte	0x195
 7117 05e0 EB050000 		.4byte	0x5eb
 7118 05e4 0D       		.uleb128 0xd
 7119 05e5 01       		.uleb128 0x1
 7120 05e6 50       		.byte	0x50
 7121 05e7 02       		.uleb128 0x2
 7122 05e8 09       		.byte	0x9
 7123 05e9 FF       		.byte	0xff
 7124 05ea 00       		.byte	0
 7125 05eb 0E       		.uleb128 0xe
 7126 05ec 30000000 		.4byte	.LVL87
 7127 05f0 95010000 		.4byte	0x195
 7128 05f4 0D       		.uleb128 0xd
 7129 05f5 01       		.uleb128 0x1
 7130 05f6 50       		.byte	0x50
 7131 05f7 02       		.uleb128 0x2
 7132 05f8 09       		.byte	0x9
 7133 05f9 FF       		.byte	0xff
 7134 05fa 00       		.byte	0
 7135 05fb 00       		.byte	0
 7136 05fc 0B       		.uleb128 0xb
ARM GAS  C:\Users\Kayas\AppData\Local\Temp\ccpxl0Kp.s 			page 138


 7137 05fd FE010000 		.4byte	.LASF41
 7138 0601 01       		.byte	0x1
 7139 0602 F6       		.byte	0xf6
 7140 0603 00000000 		.4byte	.LFB69
 7141 0607 1A000000 		.4byte	.LFE69-.LFB69
 7142 060b 01       		.uleb128 0x1
 7143 060c 9C       		.byte	0x9c
 7144 060d 63060000 		.4byte	0x663
 7145 0611 09       		.uleb128 0x9
 7146 0612 706F5800 		.ascii	"poX\000"
 7147 0616 01       		.byte	0x1
 7148 0617 F6       		.byte	0xf6
 7149 0618 D8000000 		.4byte	0xd8
 7150 061c 60030000 		.4byte	.LLST22
 7151 0620 09       		.uleb128 0x9
 7152 0621 706F5900 		.ascii	"poY\000"
 7153 0625 01       		.byte	0x1
 7154 0626 F6       		.byte	0xf6
 7155 0627 D8000000 		.4byte	0xd8
 7156 062b 81030000 		.4byte	.LLST23
 7157 062f 11       		.uleb128 0x11
 7158 0630 0A000000 		.4byte	.LVL90
 7159 0634 4C020000 		.4byte	0x24c
 7160 0638 0C       		.uleb128 0xc
 7161 0639 12000000 		.4byte	.LVL91
 7162 063d B8020000 		.4byte	0x2b8
 7163 0641 52060000 		.4byte	0x652
 7164 0645 0D       		.uleb128 0xd
 7165 0646 01       		.uleb128 0x1
 7166 0647 50       		.byte	0x50
 7167 0648 02       		.uleb128 0x2
 7168 0649 74       		.byte	0x74
 7169 064a 00       		.sleb128 0
 7170 064b 0D       		.uleb128 0xd
 7171 064c 01       		.uleb128 0x1
 7172 064d 51       		.byte	0x51
 7173 064e 02       		.uleb128 0x2
 7174 064f 74       		.byte	0x74
 7175 0650 00       		.sleb128 0
 7176 0651 00       		.byte	0
 7177 0652 0E       		.uleb128 0xe
 7178 0653 18000000 		.4byte	.LVL92
 7179 0657 3A010000 		.4byte	0x13a
 7180 065b 0D       		.uleb128 0xd
 7181 065c 01       		.uleb128 0x1
 7182 065d 50       		.byte	0x50
 7183 065e 02       		.uleb128 0x2
 7184 065f 08       		.byte	0x8
 7185 0660 2C       		.byte	0x2c
 7186 0661 00       		.byte	0
 7187 0662 00       		.byte	0
 7188 0663 0B       		.uleb128 0xb
 7189 0664 37020000 		.4byte	.LASF42
 7190 0668 01       		.byte	0x1
 7191 0669 FE       		.byte	0xfe
 7192 066a 00000000 		.4byte	.LFB70
 7193 066e 12000000 		.4byte	.LFE70-.LFB70
ARM GAS  C:\Users\Kayas\AppData\Local\Temp\ccpxl0Kp.s 			page 139


 7194 0672 01       		.uleb128 0x1
 7195 0673 9C       		.byte	0x9c
 7196 0674 C0060000 		.4byte	0x6c0
 7197 0678 09       		.uleb128 0x9
 7198 0679 706F5800 		.ascii	"poX\000"
 7199 067d 01       		.byte	0x1
 7200 067e FE       		.byte	0xfe
 7201 067f D8000000 		.4byte	0xd8
 7202 0683 A2030000 		.4byte	.LLST24
 7203 0687 09       		.uleb128 0x9
 7204 0688 706F5900 		.ascii	"poY\000"
 7205 068c 01       		.byte	0x1
 7206 068d FE       		.byte	0xfe
 7207 068e D8000000 		.4byte	0xd8
 7208 0692 C3030000 		.4byte	.LLST25
 7209 0696 0F       		.uleb128 0xf
 7210 0697 3C000000 		.4byte	.LASF37
 7211 069b 01       		.byte	0x1
 7212 069c FE       		.byte	0xfe
 7213 069d D8000000 		.4byte	0xd8
 7214 06a1 E4030000 		.4byte	.LLST26
 7215 06a5 11       		.uleb128 0x11
 7216 06a6 08000000 		.4byte	.LVL94
 7217 06aa FC050000 		.4byte	0x5fc
 7218 06ae 0E       		.uleb128 0xe
 7219 06af 10000000 		.4byte	.LVL95
 7220 06b3 F0010000 		.4byte	0x1f0
 7221 06b7 0D       		.uleb128 0xd
 7222 06b8 01       		.uleb128 0x1
 7223 06b9 50       		.byte	0x50
 7224 06ba 03       		.uleb128 0x3
 7225 06bb 74       		.byte	0x74
 7226 06bc 00       		.sleb128 0
 7227 06bd 20       		.byte	0x20
 7228 06be 00       		.byte	0
 7229 06bf 00       		.byte	0
 7230 06c0 13       		.uleb128 0x13
 7231 06c1 25020000 		.4byte	.LASF43
 7232 06c5 01       		.byte	0x1
 7233 06c6 0501     		.2byte	0x105
 7234 06c8 00000000 		.4byte	.LFB71
 7235 06cc 1E000000 		.4byte	.LFE71-.LFB71
 7236 06d0 01       		.uleb128 0x1
 7237 06d1 9C       		.byte	0x9c
 7238 06d2 3E070000 		.4byte	0x73e
 7239 06d6 14       		.uleb128 0x14
 7240 06d7 706F5800 		.ascii	"poX\000"
 7241 06db 01       		.byte	0x1
 7242 06dc 0501     		.2byte	0x105
 7243 06de D8000000 		.4byte	0xd8
 7244 06e2 05040000 		.4byte	.LLST27
 7245 06e6 14       		.uleb128 0x14
 7246 06e7 706F5900 		.ascii	"poY\000"
 7247 06eb 01       		.byte	0x1
 7248 06ec 0501     		.2byte	0x105
 7249 06ee D8000000 		.4byte	0xd8
 7250 06f2 26040000 		.4byte	.LLST28
ARM GAS  C:\Users\Kayas\AppData\Local\Temp\ccpxl0Kp.s 			page 140


 7251 06f6 15       		.uleb128 0x15
 7252 06f7 F1010000 		.4byte	.LASF44
 7253 06fb 01       		.byte	0x1
 7254 06fc 0501     		.2byte	0x105
 7255 06fe D8000000 		.4byte	0xd8
 7256 0702 47040000 		.4byte	.LLST29
 7257 0706 15       		.uleb128 0x15
 7258 0707 EB010000 		.4byte	.LASF45
 7259 070b 01       		.byte	0x1
 7260 070c 0501     		.2byte	0x105
 7261 070e D8000000 		.4byte	0xd8
 7262 0712 68040000 		.4byte	.LLST30
 7263 0716 15       		.uleb128 0x15
 7264 0717 3C000000 		.4byte	.LASF37
 7265 071b 01       		.byte	0x1
 7266 071c 0501     		.2byte	0x105
 7267 071e D8000000 		.4byte	0xd8
 7268 0722 89040000 		.4byte	.LLST31
 7269 0726 0E       		.uleb128 0xe
 7270 0727 1A000000 		.4byte	.LVL101
 7271 072b CD030000 		.4byte	0x3cd
 7272 072f 0D       		.uleb128 0xd
 7273 0730 01       		.uleb128 0x1
 7274 0731 52       		.byte	0x52
 7275 0732 02       		.uleb128 0x2
 7276 0733 74       		.byte	0x74
 7277 0734 00       		.sleb128 0
 7278 0735 0D       		.uleb128 0xd
 7279 0736 02       		.uleb128 0x2
 7280 0737 7D       		.byte	0x7d
 7281 0738 00       		.sleb128 0
 7282 0739 02       		.uleb128 0x2
 7283 073a 75       		.byte	0x75
 7284 073b 00       		.sleb128 0
 7285 073c 00       		.byte	0
 7286 073d 00       		.byte	0
 7287 073e 13       		.uleb128 0x13
 7288 073f 25000000 		.4byte	.LASF46
 7289 0743 01       		.byte	0x1
 7290 0744 0A01     		.2byte	0x10a
 7291 0746 00000000 		.4byte	.LFB72
 7292 074a 32000000 		.4byte	.LFE72-.LFB72
 7293 074e 01       		.uleb128 0x1
 7294 074f 9C       		.byte	0x9c
 7295 0750 EB070000 		.4byte	0x7eb
 7296 0754 14       		.uleb128 0x14
 7297 0755 706F5800 		.ascii	"poX\000"
 7298 0759 01       		.byte	0x1
 7299 075a 0A01     		.2byte	0x10a
 7300 075c D8000000 		.4byte	0xd8
 7301 0760 B5040000 		.4byte	.LLST32
 7302 0764 14       		.uleb128 0x14
 7303 0765 706F5900 		.ascii	"poY\000"
 7304 0769 01       		.byte	0x1
 7305 076a 0A01     		.2byte	0x10a
 7306 076c D8000000 		.4byte	0xd8
 7307 0770 D6040000 		.4byte	.LLST33
ARM GAS  C:\Users\Kayas\AppData\Local\Temp\ccpxl0Kp.s 			page 141


 7308 0774 15       		.uleb128 0x15
 7309 0775 F1010000 		.4byte	.LASF44
 7310 0779 01       		.byte	0x1
 7311 077a 0A01     		.2byte	0x10a
 7312 077c D8000000 		.4byte	0xd8
 7313 0780 F7040000 		.4byte	.LLST34
 7314 0784 15       		.uleb128 0x15
 7315 0785 3C000000 		.4byte	.LASF37
 7316 0789 01       		.byte	0x1
 7317 078a 0A01     		.2byte	0x10a
 7318 078c D8000000 		.4byte	0xd8
 7319 0790 18050000 		.4byte	.LLST35
 7320 0794 16       		.uleb128 0x16
 7321 0795 6900     		.ascii	"i\000"
 7322 0797 01       		.byte	0x1
 7323 0798 0C01     		.2byte	0x10c
 7324 079a 2C000000 		.4byte	0x2c
 7325 079e 39050000 		.4byte	.LLST36
 7326 07a2 11       		.uleb128 0x11
 7327 07a3 10000000 		.4byte	.LVL105
 7328 07a7 4C020000 		.4byte	0x24c
 7329 07ab 0C       		.uleb128 0xc
 7330 07ac 18000000 		.4byte	.LVL106
 7331 07b0 B8020000 		.4byte	0x2b8
 7332 07b4 C5070000 		.4byte	0x7c5
 7333 07b8 0D       		.uleb128 0xd
 7334 07b9 01       		.uleb128 0x1
 7335 07ba 50       		.byte	0x50
 7336 07bb 02       		.uleb128 0x2
 7337 07bc 74       		.byte	0x74
 7338 07bd 00       		.sleb128 0
 7339 07be 0D       		.uleb128 0xd
 7340 07bf 01       		.uleb128 0x1
 7341 07c0 51       		.byte	0x51
 7342 07c1 02       		.uleb128 0x2
 7343 07c2 74       		.byte	0x74
 7344 07c3 00       		.sleb128 0
 7345 07c4 00       		.byte	0
 7346 07c5 0C       		.uleb128 0xc
 7347 07c6 1E000000 		.4byte	.LVL107
 7348 07ca 3A010000 		.4byte	0x13a
 7349 07ce D9070000 		.4byte	0x7d9
 7350 07d2 0D       		.uleb128 0xd
 7351 07d3 01       		.uleb128 0x1
 7352 07d4 50       		.byte	0x50
 7353 07d5 02       		.uleb128 0x2
 7354 07d6 08       		.byte	0x8
 7355 07d7 2C       		.byte	0x2c
 7356 07d8 00       		.byte	0
 7357 07d9 0E       		.uleb128 0xe
 7358 07da 2A000000 		.4byte	.LVL109
 7359 07de F0010000 		.4byte	0x1f0
 7360 07e2 0D       		.uleb128 0xd
 7361 07e3 01       		.uleb128 0x1
 7362 07e4 50       		.byte	0x50
 7363 07e5 03       		.uleb128 0x3
 7364 07e6 76       		.byte	0x76
ARM GAS  C:\Users\Kayas\AppData\Local\Temp\ccpxl0Kp.s 			page 142


 7365 07e7 00       		.sleb128 0
 7366 07e8 20       		.byte	0x20
 7367 07e9 00       		.byte	0
 7368 07ea 00       		.byte	0
 7369 07eb 13       		.uleb128 0x13
 7370 07ec 28030000 		.4byte	.LASF47
 7371 07f0 01       		.byte	0x1
 7372 07f1 1401     		.2byte	0x114
 7373 07f3 00000000 		.4byte	.LFB73
 7374 07f7 A4000000 		.4byte	.LFE73-.LFB73
 7375 07fb 01       		.uleb128 0x1
 7376 07fc 9C       		.byte	0x9c
 7377 07fd E0080000 		.4byte	0x8e0
 7378 0801 14       		.uleb128 0x14
 7379 0802 783000   		.ascii	"x0\000"
 7380 0805 01       		.byte	0x1
 7381 0806 1401     		.2byte	0x114
 7382 0808 D8000000 		.4byte	0xd8
 7383 080c 58050000 		.4byte	.LLST37
 7384 0810 14       		.uleb128 0x14
 7385 0811 793000   		.ascii	"y0\000"
 7386 0814 01       		.byte	0x1
 7387 0815 1401     		.2byte	0x114
 7388 0817 D8000000 		.4byte	0xd8
 7389 081b 81050000 		.4byte	.LLST38
 7390 081f 14       		.uleb128 0x14
 7391 0820 783100   		.ascii	"x1\000"
 7392 0823 01       		.byte	0x1
 7393 0824 1401     		.2byte	0x114
 7394 0826 D8000000 		.4byte	0xd8
 7395 082a B8050000 		.4byte	.LLST39
 7396 082e 14       		.uleb128 0x14
 7397 082f 793100   		.ascii	"y1\000"
 7398 0832 01       		.byte	0x1
 7399 0833 1401     		.2byte	0x114
 7400 0835 D8000000 		.4byte	0xd8
 7401 0839 D9050000 		.4byte	.LLST40
 7402 083d 15       		.uleb128 0x15
 7403 083e 3C000000 		.4byte	.LASF37
 7404 0842 01       		.byte	0x1
 7405 0843 1401     		.2byte	0x114
 7406 0845 D8000000 		.4byte	0xd8
 7407 0849 FA050000 		.4byte	.LLST41
 7408 084d 16       		.uleb128 0x16
 7409 084e 7800     		.ascii	"x\000"
 7410 0850 01       		.byte	0x1
 7411 0851 1601     		.2byte	0x116
 7412 0853 2C000000 		.4byte	0x2c
 7413 0857 26060000 		.4byte	.LLST42
 7414 085b 16       		.uleb128 0x16
 7415 085c 7900     		.ascii	"y\000"
 7416 085e 01       		.byte	0x1
 7417 085f 1701     		.2byte	0x117
 7418 0861 2C000000 		.4byte	0x2c
 7419 0865 49060000 		.4byte	.LLST43
 7420 0869 16       		.uleb128 0x16
 7421 086a 647800   		.ascii	"dx\000"
ARM GAS  C:\Users\Kayas\AppData\Local\Temp\ccpxl0Kp.s 			page 143


 7422 086d 01       		.byte	0x1
 7423 086e 1801     		.2byte	0x118
 7424 0870 2C000000 		.4byte	0x2c
 7425 0874 6C060000 		.4byte	.LLST44
 7426 0878 17       		.uleb128 0x17
 7427 0879 737800   		.ascii	"sx\000"
 7428 087c 01       		.byte	0x1
 7429 087d 1801     		.2byte	0x118
 7430 087f 2C000000 		.4byte	0x2c
 7431 0883 02       		.uleb128 0x2
 7432 0884 91       		.byte	0x91
 7433 0885 50       		.sleb128 -48
 7434 0886 16       		.uleb128 0x16
 7435 0887 647900   		.ascii	"dy\000"
 7436 088a 01       		.byte	0x1
 7437 088b 1901     		.2byte	0x119
 7438 088d 2C000000 		.4byte	0x2c
 7439 0891 7F060000 		.4byte	.LLST45
 7440 0895 17       		.uleb128 0x17
 7441 0896 737900   		.ascii	"sy\000"
 7442 0899 01       		.byte	0x1
 7443 089a 1901     		.2byte	0x119
 7444 089c 2C000000 		.4byte	0x2c
 7445 08a0 02       		.uleb128 0x2
 7446 08a1 91       		.byte	0x91
 7447 08a2 54       		.sleb128 -44
 7448 08a3 16       		.uleb128 0x16
 7449 08a4 65727200 		.ascii	"err\000"
 7450 08a8 01       		.byte	0x1
 7451 08a9 1A01     		.2byte	0x11a
 7452 08ab 2C000000 		.4byte	0x2c
 7453 08af AB060000 		.4byte	.LLST46
 7454 08b3 16       		.uleb128 0x16
 7455 08b4 653200   		.ascii	"e2\000"
 7456 08b7 01       		.byte	0x1
 7457 08b8 1A01     		.2byte	0x11a
 7458 08ba 2C000000 		.4byte	0x2c
 7459 08be BE060000 		.4byte	.LLST47
 7460 08c2 0E       		.uleb128 0xe
 7461 08c3 6A000000 		.4byte	.LVL126
 7462 08c7 63060000 		.4byte	0x663
 7463 08cb 0D       		.uleb128 0xd
 7464 08cc 01       		.uleb128 0x1
 7465 08cd 50       		.byte	0x50
 7466 08ce 02       		.uleb128 0x2
 7467 08cf 74       		.byte	0x74
 7468 08d0 00       		.sleb128 0
 7469 08d1 0D       		.uleb128 0xd
 7470 08d2 01       		.uleb128 0x1
 7471 08d3 51       		.byte	0x51
 7472 08d4 02       		.uleb128 0x2
 7473 08d5 75       		.byte	0x75
 7474 08d6 00       		.sleb128 0
 7475 08d7 0D       		.uleb128 0xd
 7476 08d8 01       		.uleb128 0x1
 7477 08d9 52       		.byte	0x52
 7478 08da 03       		.uleb128 0x3
ARM GAS  C:\Users\Kayas\AppData\Local\Temp\ccpxl0Kp.s 			page 144


 7479 08db 79       		.byte	0x79
 7480 08dc 00       		.sleb128 0
 7481 08dd 20       		.byte	0x20
 7482 08de 00       		.byte	0
 7483 08df 00       		.byte	0
 7484 08e0 13       		.uleb128 0x13
 7485 08e1 42000000 		.4byte	.LASF48
 7486 08e5 01       		.byte	0x1
 7487 08e6 2901     		.2byte	0x129
 7488 08e8 00000000 		.4byte	.LFB74
 7489 08ec 32000000 		.4byte	.LFE74-.LFB74
 7490 08f0 01       		.uleb128 0x1
 7491 08f1 9C       		.byte	0x9c
 7492 08f2 90090000 		.4byte	0x990
 7493 08f6 14       		.uleb128 0x14
 7494 08f7 706F5800 		.ascii	"poX\000"
 7495 08fb 01       		.byte	0x1
 7496 08fc 2901     		.2byte	0x129
 7497 08fe D8000000 		.4byte	0xd8
 7498 0902 D1060000 		.4byte	.LLST48
 7499 0906 14       		.uleb128 0x14
 7500 0907 706F5900 		.ascii	"poY\000"
 7501 090b 01       		.byte	0x1
 7502 090c 2901     		.2byte	0x129
 7503 090e D8000000 		.4byte	0xd8
 7504 0912 F2060000 		.4byte	.LLST49
 7505 0916 15       		.uleb128 0x15
 7506 0917 F1010000 		.4byte	.LASF44
 7507 091b 01       		.byte	0x1
 7508 091c 2901     		.2byte	0x129
 7509 091e D8000000 		.4byte	0xd8
 7510 0922 13070000 		.4byte	.LLST50
 7511 0926 15       		.uleb128 0x15
 7512 0927 3C000000 		.4byte	.LASF37
 7513 092b 01       		.byte	0x1
 7514 092c 2901     		.2byte	0x129
 7515 092e D8000000 		.4byte	0xd8
 7516 0932 34070000 		.4byte	.LLST51
 7517 0936 16       		.uleb128 0x16
 7518 0937 6900     		.ascii	"i\000"
 7519 0939 01       		.byte	0x1
 7520 093a 2B01     		.2byte	0x12b
 7521 093c 2C000000 		.4byte	0x2c
 7522 0940 55070000 		.4byte	.LLST52
 7523 0944 11       		.uleb128 0x11
 7524 0945 0E000000 		.4byte	.LVL144
 7525 0949 4C020000 		.4byte	0x24c
 7526 094d 0C       		.uleb128 0xc
 7527 094e 18000000 		.4byte	.LVL145
 7528 0952 B8020000 		.4byte	0x2b8
 7529 0956 6A090000 		.4byte	0x96a
 7530 095a 0D       		.uleb128 0xd
 7531 095b 01       		.uleb128 0x1
 7532 095c 50       		.byte	0x50
 7533 095d 02       		.uleb128 0x2
 7534 095e 74       		.byte	0x74
 7535 095f 00       		.sleb128 0
ARM GAS  C:\Users\Kayas\AppData\Local\Temp\ccpxl0Kp.s 			page 145


 7536 0960 0D       		.uleb128 0xd
 7537 0961 01       		.uleb128 0x1
 7538 0962 51       		.byte	0x51
 7539 0963 05       		.uleb128 0x5
 7540 0964 74       		.byte	0x74
 7541 0965 00       		.sleb128 0
 7542 0966 75       		.byte	0x75
 7543 0967 00       		.sleb128 0
 7544 0968 22       		.byte	0x22
 7545 0969 00       		.byte	0
 7546 096a 0C       		.uleb128 0xc
 7547 096b 1E000000 		.4byte	.LVL146
 7548 096f 3A010000 		.4byte	0x13a
 7549 0973 7E090000 		.4byte	0x97e
 7550 0977 0D       		.uleb128 0xd
 7551 0978 01       		.uleb128 0x1
 7552 0979 50       		.byte	0x50
 7553 097a 02       		.uleb128 0x2
 7554 097b 08       		.byte	0x8
 7555 097c 2C       		.byte	0x2c
 7556 097d 00       		.byte	0
 7557 097e 0E       		.uleb128 0xe
 7558 097f 2A000000 		.4byte	.LVL148
 7559 0983 F0010000 		.4byte	0x1f0
 7560 0987 0D       		.uleb128 0xd
 7561 0988 01       		.uleb128 0x1
 7562 0989 50       		.byte	0x50
 7563 098a 03       		.uleb128 0x3
 7564 098b 76       		.byte	0x76
 7565 098c 00       		.sleb128 0
 7566 098d 20       		.byte	0x20
 7567 098e 00       		.byte	0
 7568 098f 00       		.byte	0
 7569 0990 13       		.uleb128 0x13
 7570 0991 FC020000 		.4byte	.LASF49
 7571 0995 01       		.byte	0x1
 7572 0996 3301     		.2byte	0x133
 7573 0998 00000000 		.4byte	.LFB75
 7574 099c 44000000 		.4byte	.LFE75-.LFB75
 7575 09a0 01       		.uleb128 0x1
 7576 09a1 9C       		.byte	0x9c
 7577 09a2 930A0000 		.4byte	0xa93
 7578 09a6 14       		.uleb128 0x14
 7579 09a7 706F5800 		.ascii	"poX\000"
 7580 09ab 01       		.byte	0x1
 7581 09ac 3301     		.2byte	0x133
 7582 09ae D8000000 		.4byte	0xd8
 7583 09b2 74070000 		.4byte	.LLST53
 7584 09b6 14       		.uleb128 0x14
 7585 09b7 706F5900 		.ascii	"poY\000"
 7586 09bb 01       		.byte	0x1
 7587 09bc 3301     		.2byte	0x133
 7588 09be D8000000 		.4byte	0xd8
 7589 09c2 95070000 		.4byte	.LLST54
 7590 09c6 15       		.uleb128 0x15
 7591 09c7 F1010000 		.4byte	.LASF44
 7592 09cb 01       		.byte	0x1
ARM GAS  C:\Users\Kayas\AppData\Local\Temp\ccpxl0Kp.s 			page 146


 7593 09cc 3301     		.2byte	0x133
 7594 09ce D8000000 		.4byte	0xd8
 7595 09d2 B6070000 		.4byte	.LLST55
 7596 09d6 15       		.uleb128 0x15
 7597 09d7 EB010000 		.4byte	.LASF45
 7598 09db 01       		.byte	0x1
 7599 09dc 3301     		.2byte	0x133
 7600 09de D8000000 		.4byte	0xd8
 7601 09e2 D7070000 		.4byte	.LLST56
 7602 09e6 15       		.uleb128 0x15
 7603 09e7 3C000000 		.4byte	.LASF37
 7604 09eb 01       		.byte	0x1
 7605 09ec 3301     		.2byte	0x133
 7606 09ee D8000000 		.4byte	0xd8
 7607 09f2 F8070000 		.4byte	.LLST57
 7608 09f6 0C       		.uleb128 0xc
 7609 09f7 16000000 		.4byte	.LVL154
 7610 09fb 3E070000 		.4byte	0x73e
 7611 09ff 1C0A0000 		.4byte	0xa1c
 7612 0a03 0D       		.uleb128 0xd
 7613 0a04 01       		.uleb128 0x1
 7614 0a05 50       		.byte	0x50
 7615 0a06 02       		.uleb128 0x2
 7616 0a07 77       		.byte	0x77
 7617 0a08 00       		.sleb128 0
 7618 0a09 0D       		.uleb128 0xd
 7619 0a0a 01       		.uleb128 0x1
 7620 0a0b 51       		.byte	0x51
 7621 0a0c 02       		.uleb128 0x2
 7622 0a0d 75       		.byte	0x75
 7623 0a0e 00       		.sleb128 0
 7624 0a0f 0D       		.uleb128 0xd
 7625 0a10 01       		.uleb128 0x1
 7626 0a11 52       		.byte	0x52
 7627 0a12 02       		.uleb128 0x2
 7628 0a13 74       		.byte	0x74
 7629 0a14 00       		.sleb128 0
 7630 0a15 0D       		.uleb128 0xd
 7631 0a16 01       		.uleb128 0x1
 7632 0a17 53       		.byte	0x53
 7633 0a18 02       		.uleb128 0x2
 7634 0a19 76       		.byte	0x76
 7635 0a1a 00       		.sleb128 0
 7636 0a1b 00       		.byte	0
 7637 0a1c 0C       		.uleb128 0xc
 7638 0a1d 26000000 		.4byte	.LVL155
 7639 0a21 3E070000 		.4byte	0x73e
 7640 0a25 460A0000 		.4byte	0xa46
 7641 0a29 0D       		.uleb128 0xd
 7642 0a2a 01       		.uleb128 0x1
 7643 0a2b 50       		.byte	0x50
 7644 0a2c 02       		.uleb128 0x2
 7645 0a2d 77       		.byte	0x77
 7646 0a2e 00       		.sleb128 0
 7647 0a2f 0D       		.uleb128 0xd
 7648 0a30 01       		.uleb128 0x1
 7649 0a31 51       		.byte	0x51
ARM GAS  C:\Users\Kayas\AppData\Local\Temp\ccpxl0Kp.s 			page 147


 7650 0a32 06       		.uleb128 0x6
 7651 0a33 75       		.byte	0x75
 7652 0a34 00       		.sleb128 0
 7653 0a35 91       		.byte	0x91
 7654 0a36 64       		.sleb128 -28
 7655 0a37 06       		.byte	0x6
 7656 0a38 22       		.byte	0x22
 7657 0a39 0D       		.uleb128 0xd
 7658 0a3a 01       		.uleb128 0x1
 7659 0a3b 52       		.byte	0x52
 7660 0a3c 02       		.uleb128 0x2
 7661 0a3d 74       		.byte	0x74
 7662 0a3e 00       		.sleb128 0
 7663 0a3f 0D       		.uleb128 0xd
 7664 0a40 01       		.uleb128 0x1
 7665 0a41 53       		.byte	0x53
 7666 0a42 02       		.uleb128 0x2
 7667 0a43 76       		.byte	0x76
 7668 0a44 00       		.sleb128 0
 7669 0a45 00       		.byte	0
 7670 0a46 0C       		.uleb128 0xc
 7671 0a47 32000000 		.4byte	.LVL156
 7672 0a4b E0080000 		.4byte	0x8e0
 7673 0a4f 6E0A0000 		.4byte	0xa6e
 7674 0a53 0D       		.uleb128 0xd
 7675 0a54 01       		.uleb128 0x1
 7676 0a55 50       		.byte	0x50
 7677 0a56 02       		.uleb128 0x2
 7678 0a57 77       		.byte	0x77
 7679 0a58 00       		.sleb128 0
 7680 0a59 0D       		.uleb128 0xd
 7681 0a5a 01       		.uleb128 0x1
 7682 0a5b 51       		.byte	0x51
 7683 0a5c 02       		.uleb128 0x2
 7684 0a5d 75       		.byte	0x75
 7685 0a5e 00       		.sleb128 0
 7686 0a5f 0D       		.uleb128 0xd
 7687 0a60 01       		.uleb128 0x1
 7688 0a61 52       		.byte	0x52
 7689 0a62 04       		.uleb128 0x4
 7690 0a63 91       		.byte	0x91
 7691 0a64 64       		.sleb128 -28
 7692 0a65 94       		.byte	0x94
 7693 0a66 02       		.byte	0x2
 7694 0a67 0D       		.uleb128 0xd
 7695 0a68 01       		.uleb128 0x1
 7696 0a69 53       		.byte	0x53
 7697 0a6a 02       		.uleb128 0x2
 7698 0a6b 76       		.byte	0x76
 7699 0a6c 00       		.sleb128 0
 7700 0a6d 00       		.byte	0
 7701 0a6e 0E       		.uleb128 0xe
 7702 0a6f 40000000 		.4byte	.LVL157
 7703 0a73 E0080000 		.4byte	0x8e0
 7704 0a77 0D       		.uleb128 0xd
 7705 0a78 01       		.uleb128 0x1
 7706 0a79 50       		.byte	0x50
ARM GAS  C:\Users\Kayas\AppData\Local\Temp\ccpxl0Kp.s 			page 148


 7707 0a7a 02       		.uleb128 0x2
 7708 0a7b 74       		.byte	0x74
 7709 0a7c 00       		.sleb128 0
 7710 0a7d 0D       		.uleb128 0xd
 7711 0a7e 01       		.uleb128 0x1
 7712 0a7f 51       		.byte	0x51
 7713 0a80 02       		.uleb128 0x2
 7714 0a81 75       		.byte	0x75
 7715 0a82 00       		.sleb128 0
 7716 0a83 0D       		.uleb128 0xd
 7717 0a84 01       		.uleb128 0x1
 7718 0a85 52       		.byte	0x52
 7719 0a86 04       		.uleb128 0x4
 7720 0a87 91       		.byte	0x91
 7721 0a88 64       		.sleb128 -28
 7722 0a89 94       		.byte	0x94
 7723 0a8a 02       		.byte	0x2
 7724 0a8b 0D       		.uleb128 0xd
 7725 0a8c 01       		.uleb128 0x1
 7726 0a8d 53       		.byte	0x53
 7727 0a8e 02       		.uleb128 0x2
 7728 0a8f 76       		.byte	0x76
 7729 0a90 00       		.sleb128 0
 7730 0a91 00       		.byte	0
 7731 0a92 00       		.byte	0
 7732 0a93 13       		.uleb128 0x13
 7733 0a94 9F010000 		.4byte	.LASF50
 7734 0a98 01       		.byte	0x1
 7735 0a99 3B01     		.2byte	0x13b
 7736 0a9b 00000000 		.4byte	.LFB76
 7737 0a9f C0000000 		.4byte	.LFE76-.LFB76
 7738 0aa3 01       		.uleb128 0x1
 7739 0aa4 9C       		.byte	0x9c
 7740 0aa5 AF0B0000 		.4byte	0xbaf
 7741 0aa9 14       		.uleb128 0x14
 7742 0aaa 706F5800 		.ascii	"poX\000"
 7743 0aae 01       		.byte	0x1
 7744 0aaf 3B01     		.2byte	0x13b
 7745 0ab1 2C000000 		.4byte	0x2c
 7746 0ab5 24080000 		.4byte	.LLST58
 7747 0ab9 14       		.uleb128 0x14
 7748 0aba 706F5900 		.ascii	"poY\000"
 7749 0abe 01       		.byte	0x1
 7750 0abf 3B01     		.2byte	0x13b
 7751 0ac1 2C000000 		.4byte	0x2c
 7752 0ac5 43080000 		.4byte	.LLST59
 7753 0ac9 14       		.uleb128 0x14
 7754 0aca 7200     		.ascii	"r\000"
 7755 0acc 01       		.byte	0x1
 7756 0acd 3B01     		.2byte	0x13b
 7757 0acf 2C000000 		.4byte	0x2c
 7758 0ad3 62080000 		.4byte	.LLST60
 7759 0ad7 15       		.uleb128 0x15
 7760 0ad8 3C000000 		.4byte	.LASF37
 7761 0adc 01       		.byte	0x1
 7762 0add 3B01     		.2byte	0x13b
 7763 0adf D8000000 		.4byte	0xd8
ARM GAS  C:\Users\Kayas\AppData\Local\Temp\ccpxl0Kp.s 			page 149


 7764 0ae3 91080000 		.4byte	.LLST61
 7765 0ae7 16       		.uleb128 0x16
 7766 0ae8 7800     		.ascii	"x\000"
 7767 0aea 01       		.byte	0x1
 7768 0aeb 3D01     		.2byte	0x13d
 7769 0aed 2C000000 		.4byte	0x2c
 7770 0af1 B2080000 		.4byte	.LLST62
 7771 0af5 16       		.uleb128 0x16
 7772 0af6 7900     		.ascii	"y\000"
 7773 0af8 01       		.byte	0x1
 7774 0af9 3D01     		.2byte	0x13d
 7775 0afb 2C000000 		.4byte	0x2c
 7776 0aff DB080000 		.4byte	.LLST63
 7777 0b03 16       		.uleb128 0x16
 7778 0b04 65727200 		.ascii	"err\000"
 7779 0b08 01       		.byte	0x1
 7780 0b09 3D01     		.2byte	0x13d
 7781 0b0b 2C000000 		.4byte	0x2c
 7782 0b0f FA080000 		.4byte	.LLST64
 7783 0b13 16       		.uleb128 0x16
 7784 0b14 653200   		.ascii	"e2\000"
 7785 0b17 01       		.byte	0x1
 7786 0b18 3D01     		.2byte	0x13d
 7787 0b1a 2C000000 		.4byte	0x2c
 7788 0b1e 5A090000 		.4byte	.LLST65
 7789 0b22 0C       		.uleb128 0xc
 7790 0b23 52000000 		.4byte	.LVL165
 7791 0b27 63060000 		.4byte	0x663
 7792 0b2b 480B0000 		.4byte	0xb48
 7793 0b2f 0D       		.uleb128 0xd
 7794 0b30 01       		.uleb128 0x1
 7795 0b31 50       		.byte	0x50
 7796 0b32 04       		.uleb128 0x4
 7797 0b33 91       		.byte	0x91
 7798 0b34 48       		.sleb128 -56
 7799 0b35 94       		.byte	0x94
 7800 0b36 02       		.byte	0x2
 7801 0b37 0D       		.uleb128 0xd
 7802 0b38 01       		.uleb128 0x1
 7803 0b39 51       		.byte	0x51
 7804 0b3a 04       		.uleb128 0x4
 7805 0b3b 91       		.byte	0x91
 7806 0b3c 4C       		.sleb128 -52
 7807 0b3d 94       		.byte	0x94
 7808 0b3e 02       		.byte	0x2
 7809 0b3f 0D       		.uleb128 0xd
 7810 0b40 01       		.uleb128 0x1
 7811 0b41 52       		.byte	0x52
 7812 0b42 04       		.uleb128 0x4
 7813 0b43 91       		.byte	0x91
 7814 0b44 44       		.sleb128 -60
 7815 0b45 94       		.byte	0x94
 7816 0b46 02       		.byte	0x2
 7817 0b47 00       		.byte	0
 7818 0b48 0C       		.uleb128 0xc
 7819 0b49 60000000 		.4byte	.LVL166
 7820 0b4d 63060000 		.4byte	0x663
ARM GAS  C:\Users\Kayas\AppData\Local\Temp\ccpxl0Kp.s 			page 150


 7821 0b51 6C0B0000 		.4byte	0xb6c
 7822 0b55 0D       		.uleb128 0xd
 7823 0b56 01       		.uleb128 0x1
 7824 0b57 50       		.byte	0x50
 7825 0b58 02       		.uleb128 0x2
 7826 0b59 75       		.byte	0x75
 7827 0b5a 00       		.sleb128 0
 7828 0b5b 0D       		.uleb128 0xd
 7829 0b5c 01       		.uleb128 0x1
 7830 0b5d 51       		.byte	0x51
 7831 0b5e 04       		.uleb128 0x4
 7832 0b5f 91       		.byte	0x91
 7833 0b60 4C       		.sleb128 -52
 7834 0b61 94       		.byte	0x94
 7835 0b62 02       		.byte	0x2
 7836 0b63 0D       		.uleb128 0xd
 7837 0b64 01       		.uleb128 0x1
 7838 0b65 52       		.byte	0x52
 7839 0b66 04       		.uleb128 0x4
 7840 0b67 91       		.byte	0x91
 7841 0b68 44       		.sleb128 -60
 7842 0b69 94       		.byte	0x94
 7843 0b6a 02       		.byte	0x2
 7844 0b6b 00       		.byte	0
 7845 0b6c 0C       		.uleb128 0xc
 7846 0b6d 70000000 		.4byte	.LVL167
 7847 0b71 63060000 		.4byte	0x663
 7848 0b75 8E0B0000 		.4byte	0xb8e
 7849 0b79 0D       		.uleb128 0xd
 7850 0b7a 01       		.uleb128 0x1
 7851 0b7b 50       		.byte	0x50
 7852 0b7c 02       		.uleb128 0x2
 7853 0b7d 75       		.byte	0x75
 7854 0b7e 00       		.sleb128 0
 7855 0b7f 0D       		.uleb128 0xd
 7856 0b80 01       		.uleb128 0x1
 7857 0b81 51       		.byte	0x51
 7858 0b82 02       		.uleb128 0x2
 7859 0b83 74       		.byte	0x74
 7860 0b84 00       		.sleb128 0
 7861 0b85 0D       		.uleb128 0xd
 7862 0b86 01       		.uleb128 0x1
 7863 0b87 52       		.byte	0x52
 7864 0b88 04       		.uleb128 0x4
 7865 0b89 91       		.byte	0x91
 7866 0b8a 44       		.sleb128 -60
 7867 0b8b 94       		.byte	0x94
 7868 0b8c 02       		.byte	0x2
 7869 0b8d 00       		.byte	0
 7870 0b8e 0E       		.uleb128 0xe
 7871 0b8f 7A000000 		.4byte	.LVL168
 7872 0b93 63060000 		.4byte	0x663
 7873 0b97 0D       		.uleb128 0xd
 7874 0b98 01       		.uleb128 0x1
 7875 0b99 50       		.byte	0x50
 7876 0b9a 04       		.uleb128 0x4
 7877 0b9b 91       		.byte	0x91
ARM GAS  C:\Users\Kayas\AppData\Local\Temp\ccpxl0Kp.s 			page 151


 7878 0b9c 48       		.sleb128 -56
 7879 0b9d 94       		.byte	0x94
 7880 0b9e 02       		.byte	0x2
 7881 0b9f 0D       		.uleb128 0xd
 7882 0ba0 01       		.uleb128 0x1
 7883 0ba1 51       		.byte	0x51
 7884 0ba2 02       		.uleb128 0x2
 7885 0ba3 74       		.byte	0x74
 7886 0ba4 00       		.sleb128 0
 7887 0ba5 0D       		.uleb128 0xd
 7888 0ba6 01       		.uleb128 0x1
 7889 0ba7 52       		.byte	0x52
 7890 0ba8 04       		.uleb128 0x4
 7891 0ba9 91       		.byte	0x91
 7892 0baa 44       		.sleb128 -60
 7893 0bab 94       		.byte	0x94
 7894 0bac 02       		.byte	0x2
 7895 0bad 00       		.byte	0
 7896 0bae 00       		.byte	0
 7897 0baf 13       		.uleb128 0x13
 7898 0bb0 44040000 		.4byte	.LASF51
 7899 0bb4 01       		.byte	0x1
 7900 0bb5 4C01     		.2byte	0x14c
 7901 0bb7 00000000 		.4byte	.LFB77
 7902 0bbb A0000000 		.4byte	.LFE77-.LFB77
 7903 0bbf 01       		.uleb128 0x1
 7904 0bc0 9C       		.byte	0x9c
 7905 0bc1 960C0000 		.4byte	0xc96
 7906 0bc5 14       		.uleb128 0x14
 7907 0bc6 706F5800 		.ascii	"poX\000"
 7908 0bca 01       		.byte	0x1
 7909 0bcb 4C01     		.2byte	0x14c
 7910 0bcd 2C000000 		.4byte	0x2c
 7911 0bd1 78090000 		.4byte	.LLST66
 7912 0bd5 14       		.uleb128 0x14
 7913 0bd6 706F5900 		.ascii	"poY\000"
 7914 0bda 01       		.byte	0x1
 7915 0bdb 4C01     		.2byte	0x14c
 7916 0bdd 2C000000 		.4byte	0x2c
 7917 0be1 97090000 		.4byte	.LLST67
 7918 0be5 14       		.uleb128 0x14
 7919 0be6 7200     		.ascii	"r\000"
 7920 0be8 01       		.byte	0x1
 7921 0be9 4C01     		.2byte	0x14c
 7922 0beb 2C000000 		.4byte	0x2c
 7923 0bef C3090000 		.4byte	.LLST68
 7924 0bf3 15       		.uleb128 0x15
 7925 0bf4 3C000000 		.4byte	.LASF37
 7926 0bf8 01       		.byte	0x1
 7927 0bf9 4C01     		.2byte	0x14c
 7928 0bfb D8000000 		.4byte	0xd8
 7929 0bff F2090000 		.4byte	.LLST69
 7930 0c03 16       		.uleb128 0x16
 7931 0c04 7800     		.ascii	"x\000"
 7932 0c06 01       		.byte	0x1
 7933 0c07 4E01     		.2byte	0x14e
 7934 0c09 2C000000 		.4byte	0x2c
ARM GAS  C:\Users\Kayas\AppData\Local\Temp\ccpxl0Kp.s 			page 152


 7935 0c0d 130A0000 		.4byte	.LLST70
 7936 0c11 16       		.uleb128 0x16
 7937 0c12 7900     		.ascii	"y\000"
 7938 0c14 01       		.byte	0x1
 7939 0c15 4E01     		.2byte	0x14e
 7940 0c17 2C000000 		.4byte	0x2c
 7941 0c1b 260A0000 		.4byte	.LLST71
 7942 0c1f 16       		.uleb128 0x16
 7943 0c20 65727200 		.ascii	"err\000"
 7944 0c24 01       		.byte	0x1
 7945 0c25 4E01     		.2byte	0x14e
 7946 0c27 2C000000 		.4byte	0x2c
 7947 0c2b 450A0000 		.4byte	.LLST72
 7948 0c2f 16       		.uleb128 0x16
 7949 0c30 653200   		.ascii	"e2\000"
 7950 0c33 01       		.byte	0x1
 7951 0c34 4E01     		.2byte	0x14e
 7952 0c36 2C000000 		.4byte	0x2c
 7953 0c3a B00A0000 		.4byte	.LLST73
 7954 0c3e 0C       		.uleb128 0xc
 7955 0c3f 4E000000 		.4byte	.LVL190
 7956 0c43 E0080000 		.4byte	0x8e0
 7957 0c47 6D0C0000 		.4byte	0xc6d
 7958 0c4b 0D       		.uleb128 0xd
 7959 0c4c 01       		.uleb128 0x1
 7960 0c4d 50       		.byte	0x50
 7961 0c4e 05       		.uleb128 0x5
 7962 0c4f 75       		.byte	0x75
 7963 0c50 00       		.sleb128 0
 7964 0c51 74       		.byte	0x74
 7965 0c52 00       		.sleb128 0
 7966 0c53 1C       		.byte	0x1c
 7967 0c54 0D       		.uleb128 0xd
 7968 0c55 01       		.uleb128 0x1
 7969 0c56 51       		.byte	0x51
 7970 0c57 04       		.uleb128 0x4
 7971 0c58 91       		.byte	0x91
 7972 0c59 54       		.sleb128 -44
 7973 0c5a 94       		.byte	0x94
 7974 0c5b 02       		.byte	0x2
 7975 0c5c 0D       		.uleb128 0xd
 7976 0c5d 01       		.uleb128 0x1
 7977 0c5e 52       		.byte	0x52
 7978 0c5f 04       		.uleb128 0x4
 7979 0c60 91       		.byte	0x91
 7980 0c61 58       		.sleb128 -40
 7981 0c62 94       		.byte	0x94
 7982 0c63 02       		.byte	0x2
 7983 0c64 0D       		.uleb128 0xd
 7984 0c65 01       		.uleb128 0x1
 7985 0c66 53       		.byte	0x53
 7986 0c67 04       		.uleb128 0x4
 7987 0c68 7D       		.byte	0x7d
 7988 0c69 00       		.sleb128 0
 7989 0c6a 94       		.byte	0x94
 7990 0c6b 02       		.byte	0x2
 7991 0c6c 00       		.byte	0
ARM GAS  C:\Users\Kayas\AppData\Local\Temp\ccpxl0Kp.s 			page 153


 7992 0c6d 0E       		.uleb128 0xe
 7993 0c6e 5C000000 		.4byte	.LVL191
 7994 0c72 E0080000 		.4byte	0x8e0
 7995 0c76 0D       		.uleb128 0xd
 7996 0c77 01       		.uleb128 0x1
 7997 0c78 50       		.byte	0x50
 7998 0c79 02       		.uleb128 0x2
 7999 0c7a 74       		.byte	0x74
 8000 0c7b 00       		.sleb128 0
 8001 0c7c 0D       		.uleb128 0xd
 8002 0c7d 01       		.uleb128 0x1
 8003 0c7e 51       		.byte	0x51
 8004 0c7f 04       		.uleb128 0x4
 8005 0c80 91       		.byte	0x91
 8006 0c81 54       		.sleb128 -44
 8007 0c82 94       		.byte	0x94
 8008 0c83 02       		.byte	0x2
 8009 0c84 0D       		.uleb128 0xd
 8010 0c85 01       		.uleb128 0x1
 8011 0c86 52       		.byte	0x52
 8012 0c87 04       		.uleb128 0x4
 8013 0c88 91       		.byte	0x91
 8014 0c89 58       		.sleb128 -40
 8015 0c8a 94       		.byte	0x94
 8016 0c8b 02       		.byte	0x2
 8017 0c8c 0D       		.uleb128 0xd
 8018 0c8d 01       		.uleb128 0x1
 8019 0c8e 53       		.byte	0x53
 8020 0c8f 04       		.uleb128 0x4
 8021 0c90 7D       		.byte	0x7d
 8022 0c91 00       		.sleb128 0
 8023 0c92 94       		.byte	0x94
 8024 0c93 02       		.byte	0x2
 8025 0c94 00       		.byte	0
 8026 0c95 00       		.byte	0
 8027 0c96 13       		.uleb128 0x13
 8028 0c97 B9030000 		.4byte	.LASF52
 8029 0c9b 01       		.byte	0x1
 8030 0c9c 5C01     		.2byte	0x15c
 8031 0c9e 00000000 		.4byte	.LFB78
 8032 0ca2 60000000 		.4byte	.LFE78-.LFB78
 8033 0ca6 01       		.uleb128 0x1
 8034 0ca7 9C       		.byte	0x9c
 8035 0ca8 1D0D0000 		.4byte	0xd1d
 8036 0cac 15       		.uleb128 0x15
 8037 0cad 64020000 		.4byte	.LASF53
 8038 0cb1 01       		.byte	0x1
 8039 0cb2 5C01     		.2byte	0x15c
 8040 0cb4 C2000000 		.4byte	0xc2
 8041 0cb8 CE0A0000 		.4byte	.LLST74
 8042 0cbc 0C       		.uleb128 0xc
 8043 0cbd 0A000000 		.4byte	.LVL208
 8044 0cc1 3A010000 		.4byte	0x13a
 8045 0cc5 D00C0000 		.4byte	0xcd0
 8046 0cc9 0D       		.uleb128 0xd
 8047 0cca 01       		.uleb128 0x1
 8048 0ccb 50       		.byte	0x50
ARM GAS  C:\Users\Kayas\AppData\Local\Temp\ccpxl0Kp.s 			page 154


 8049 0ccc 02       		.uleb128 0x2
 8050 0ccd 08       		.byte	0x8
 8051 0cce 36       		.byte	0x36
 8052 0ccf 00       		.byte	0
 8053 0cd0 0C       		.uleb128 0xc
 8054 0cd1 22000000 		.4byte	.LVL209
 8055 0cd5 95010000 		.4byte	0x195
 8056 0cd9 E40C0000 		.4byte	0xce4
 8057 0cdd 0D       		.uleb128 0xd
 8058 0cde 01       		.uleb128 0x1
 8059 0cdf 50       		.byte	0x50
 8060 0ce0 02       		.uleb128 0x2
 8061 0ce1 08       		.byte	0x8
 8062 0ce2 48       		.byte	0x48
 8063 0ce3 00       		.byte	0
 8064 0ce4 0C       		.uleb128 0xc
 8065 0ce5 2A000000 		.4byte	.LVL210
 8066 0ce9 95010000 		.4byte	0x195
 8067 0ced F80C0000 		.4byte	0xcf8
 8068 0cf1 0D       		.uleb128 0xd
 8069 0cf2 01       		.uleb128 0x1
 8070 0cf3 50       		.byte	0x50
 8071 0cf4 02       		.uleb128 0x2
 8072 0cf5 08       		.byte	0x8
 8073 0cf6 28       		.byte	0x28
 8074 0cf7 00       		.byte	0
 8075 0cf8 0C       		.uleb128 0xc
 8076 0cf9 32000000 		.4byte	.LVL211
 8077 0cfd 95010000 		.4byte	0x195
 8078 0d01 0C0D0000 		.4byte	0xd0c
 8079 0d05 0D       		.uleb128 0xd
 8080 0d06 01       		.uleb128 0x1
 8081 0d07 50       		.byte	0x50
 8082 0d08 02       		.uleb128 0x2
 8083 0d09 09       		.byte	0x9
 8084 0d0a 88       		.byte	0x88
 8085 0d0b 00       		.byte	0
 8086 0d0c 0E       		.uleb128 0xe
 8087 0d0d 3A000000 		.4byte	.LVL212
 8088 0d11 95010000 		.4byte	0x195
 8089 0d15 0D       		.uleb128 0xd
 8090 0d16 01       		.uleb128 0x1
 8091 0d17 50       		.byte	0x50
 8092 0d18 02       		.uleb128 0x2
 8093 0d19 09       		.byte	0x9
 8094 0d1a E8       		.byte	0xe8
 8095 0d1b 00       		.byte	0
 8096 0d1c 00       		.byte	0
 8097 0d1d 0B       		.uleb128 0xb
 8098 0d1e 3B040000 		.4byte	.LASF54
 8099 0d22 01       		.byte	0x1
 8100 0d23 24       		.byte	0x24
 8101 0d24 00000000 		.4byte	.LFB63
 8102 0d28 FE010000 		.4byte	.LFE63-.LFB63
 8103 0d2c 01       		.uleb128 0x1
 8104 0d2d 9C       		.byte	0x9c
 8105 0d2e A5130000 		.4byte	0x13a5
ARM GAS  C:\Users\Kayas\AppData\Local\Temp\ccpxl0Kp.s 			page 155


 8106 0d32 0F       		.uleb128 0xf
 8107 0d33 64020000 		.4byte	.LASF53
 8108 0d37 01       		.byte	0x1
 8109 0d38 24       		.byte	0x24
 8110 0d39 C2000000 		.4byte	0xc2
 8111 0d3d EF0A0000 		.4byte	.LLST75
 8112 0d41 0C       		.uleb128 0xc
 8113 0d42 0A000000 		.4byte	.LVL215
 8114 0d46 FA190000 		.4byte	0x19fa
 8115 0d4a 540D0000 		.4byte	0xd54
 8116 0d4e 0D       		.uleb128 0xd
 8117 0d4f 01       		.uleb128 0x1
 8118 0d50 50       		.byte	0x50
 8119 0d51 01       		.uleb128 0x1
 8120 0d52 30       		.byte	0x30
 8121 0d53 00       		.byte	0
 8122 0d54 0C       		.uleb128 0xc
 8123 0d55 10000000 		.4byte	.LVL216
 8124 0d59 051A0000 		.4byte	0x1a05
 8125 0d5d 670D0000 		.4byte	0xd67
 8126 0d61 0D       		.uleb128 0xd
 8127 0d62 01       		.uleb128 0x1
 8128 0d63 50       		.byte	0x50
 8129 0d64 01       		.uleb128 0x1
 8130 0d65 3A       		.byte	0x3a
 8131 0d66 00       		.byte	0
 8132 0d67 0C       		.uleb128 0xc
 8133 0d68 16000000 		.4byte	.LVL217
 8134 0d6c FA190000 		.4byte	0x19fa
 8135 0d70 7A0D0000 		.4byte	0xd7a
 8136 0d74 0D       		.uleb128 0xd
 8137 0d75 01       		.uleb128 0x1
 8138 0d76 50       		.byte	0x50
 8139 0d77 01       		.uleb128 0x1
 8140 0d78 31       		.byte	0x31
 8141 0d79 00       		.byte	0
 8142 0d7a 0C       		.uleb128 0xc
 8143 0d7b 1C000000 		.4byte	.LVL218
 8144 0d7f 3A010000 		.4byte	0x13a
 8145 0d83 8D0D0000 		.4byte	0xd8d
 8146 0d87 0D       		.uleb128 0xd
 8147 0d88 01       		.uleb128 0x1
 8148 0d89 50       		.byte	0x50
 8149 0d8a 01       		.uleb128 0x1
 8150 0d8b 31       		.byte	0x31
 8151 0d8c 00       		.byte	0
 8152 0d8d 0C       		.uleb128 0xc
 8153 0d8e 22000000 		.4byte	.LVL219
 8154 0d92 051A0000 		.4byte	0x1a05
 8155 0d96 A10D0000 		.4byte	0xda1
 8156 0d9a 0D       		.uleb128 0xd
 8157 0d9b 01       		.uleb128 0x1
 8158 0d9c 50       		.byte	0x50
 8159 0d9d 02       		.uleb128 0x2
 8160 0d9e 08       		.byte	0x8
 8161 0d9f 64       		.byte	0x64
 8162 0da0 00       		.byte	0
ARM GAS  C:\Users\Kayas\AppData\Local\Temp\ccpxl0Kp.s 			page 156


 8163 0da1 0C       		.uleb128 0xc
 8164 0da2 28000000 		.4byte	.LVL220
 8165 0da6 3A010000 		.4byte	0x13a
 8166 0daa B50D0000 		.4byte	0xdb5
 8167 0dae 0D       		.uleb128 0xd
 8168 0daf 01       		.uleb128 0x1
 8169 0db0 50       		.byte	0x50
 8170 0db1 02       		.uleb128 0x2
 8171 0db2 09       		.byte	0x9
 8172 0db3 CB       		.byte	0xcb
 8173 0db4 00       		.byte	0
 8174 0db5 0C       		.uleb128 0xc
 8175 0db6 2E000000 		.4byte	.LVL221
 8176 0dba 95010000 		.4byte	0x195
 8177 0dbe C90D0000 		.4byte	0xdc9
 8178 0dc2 0D       		.uleb128 0xd
 8179 0dc3 01       		.uleb128 0x1
 8180 0dc4 50       		.byte	0x50
 8181 0dc5 02       		.uleb128 0x2
 8182 0dc6 08       		.byte	0x8
 8183 0dc7 39       		.byte	0x39
 8184 0dc8 00       		.byte	0
 8185 0dc9 0C       		.uleb128 0xc
 8186 0dca 34000000 		.4byte	.LVL222
 8187 0dce 95010000 		.4byte	0x195
 8188 0dd2 DD0D0000 		.4byte	0xddd
 8189 0dd6 0D       		.uleb128 0xd
 8190 0dd7 01       		.uleb128 0x1
 8191 0dd8 50       		.byte	0x50
 8192 0dd9 02       		.uleb128 0x2
 8193 0dda 08       		.byte	0x8
 8194 0ddb 2C       		.byte	0x2c
 8195 0ddc 00       		.byte	0
 8196 0ddd 0C       		.uleb128 0xc
 8197 0dde 3A000000 		.4byte	.LVL223
 8198 0de2 95010000 		.4byte	0x195
 8199 0de6 F00D0000 		.4byte	0xdf0
 8200 0dea 0D       		.uleb128 0xd
 8201 0deb 01       		.uleb128 0x1
 8202 0dec 50       		.byte	0x50
 8203 0ded 01       		.uleb128 0x1
 8204 0dee 30       		.byte	0x30
 8205 0def 00       		.byte	0
 8206 0df0 0C       		.uleb128 0xc
 8207 0df1 40000000 		.4byte	.LVL224
 8208 0df5 95010000 		.4byte	0x195
 8209 0df9 040E0000 		.4byte	0xe04
 8210 0dfd 0D       		.uleb128 0xd
 8211 0dfe 01       		.uleb128 0x1
 8212 0dff 50       		.byte	0x50
 8213 0e00 02       		.uleb128 0x2
 8214 0e01 09       		.byte	0x9
 8215 0e02 CC       		.byte	0xcc
 8216 0e03 00       		.byte	0
 8217 0e04 0C       		.uleb128 0xc
 8218 0e05 46000000 		.4byte	.LVL225
 8219 0e09 95010000 		.4byte	0x195
ARM GAS  C:\Users\Kayas\AppData\Local\Temp\ccpxl0Kp.s 			page 157


 8220 0e0d 170E0000 		.4byte	0xe17
 8221 0e11 0D       		.uleb128 0xd
 8222 0e12 01       		.uleb128 0x1
 8223 0e13 50       		.byte	0x50
 8224 0e14 01       		.uleb128 0x1
 8225 0e15 32       		.byte	0x32
 8226 0e16 00       		.byte	0
 8227 0e17 0C       		.uleb128 0xc
 8228 0e18 4C000000 		.4byte	.LVL226
 8229 0e1c 3A010000 		.4byte	0x13a
 8230 0e20 2B0E0000 		.4byte	0xe2b
 8231 0e24 0D       		.uleb128 0xd
 8232 0e25 01       		.uleb128 0x1
 8233 0e26 50       		.byte	0x50
 8234 0e27 02       		.uleb128 0x2
 8235 0e28 09       		.byte	0x9
 8236 0e29 CF       		.byte	0xcf
 8237 0e2a 00       		.byte	0
 8238 0e2b 0C       		.uleb128 0xc
 8239 0e2c 52000000 		.4byte	.LVL227
 8240 0e30 95010000 		.4byte	0x195
 8241 0e34 3E0E0000 		.4byte	0xe3e
 8242 0e38 0D       		.uleb128 0xd
 8243 0e39 01       		.uleb128 0x1
 8244 0e3a 50       		.byte	0x50
 8245 0e3b 01       		.uleb128 0x1
 8246 0e3c 30       		.byte	0x30
 8247 0e3d 00       		.byte	0
 8248 0e3e 0C       		.uleb128 0xc
 8249 0e3f 58000000 		.4byte	.LVL228
 8250 0e43 95010000 		.4byte	0x195
 8251 0e47 520E0000 		.4byte	0xe52
 8252 0e4b 0D       		.uleb128 0xd
 8253 0e4c 01       		.uleb128 0x1
 8254 0e4d 50       		.byte	0x50
 8255 0e4e 02       		.uleb128 0x2
 8256 0e4f 09       		.byte	0x9
 8257 0e50 C1       		.byte	0xc1
 8258 0e51 00       		.byte	0
 8259 0e52 0C       		.uleb128 0xc
 8260 0e53 5E000000 		.4byte	.LVL229
 8261 0e57 95010000 		.4byte	0x195
 8262 0e5b 660E0000 		.4byte	0xe66
 8263 0e5f 0D       		.uleb128 0xd
 8264 0e60 01       		.uleb128 0x1
 8265 0e61 50       		.byte	0x50
 8266 0e62 02       		.uleb128 0x2
 8267 0e63 08       		.byte	0x8
 8268 0e64 30       		.byte	0x30
 8269 0e65 00       		.byte	0
 8270 0e66 0C       		.uleb128 0xc
 8271 0e67 64000000 		.4byte	.LVL230
 8272 0e6b 3A010000 		.4byte	0x13a
 8273 0e6f 7A0E0000 		.4byte	0xe7a
 8274 0e73 0D       		.uleb128 0xd
 8275 0e74 01       		.uleb128 0x1
 8276 0e75 50       		.byte	0x50
ARM GAS  C:\Users\Kayas\AppData\Local\Temp\ccpxl0Kp.s 			page 158


 8277 0e76 02       		.uleb128 0x2
 8278 0e77 09       		.byte	0x9
 8279 0e78 E8       		.byte	0xe8
 8280 0e79 00       		.byte	0
 8281 0e7a 0C       		.uleb128 0xc
 8282 0e7b 6A000000 		.4byte	.LVL231
 8283 0e7f 95010000 		.4byte	0x195
 8284 0e83 8E0E0000 		.4byte	0xe8e
 8285 0e87 0D       		.uleb128 0xd
 8286 0e88 01       		.uleb128 0x1
 8287 0e89 50       		.byte	0x50
 8288 0e8a 02       		.uleb128 0x2
 8289 0e8b 09       		.byte	0x9
 8290 0e8c 85       		.byte	0x85
 8291 0e8d 00       		.byte	0
 8292 0e8e 0C       		.uleb128 0xc
 8293 0e8f 70000000 		.4byte	.LVL232
 8294 0e93 95010000 		.4byte	0x195
 8295 0e97 A10E0000 		.4byte	0xea1
 8296 0e9b 0D       		.uleb128 0xd
 8297 0e9c 01       		.uleb128 0x1
 8298 0e9d 50       		.byte	0x50
 8299 0e9e 01       		.uleb128 0x1
 8300 0e9f 30       		.byte	0x30
 8301 0ea0 00       		.byte	0
 8302 0ea1 0C       		.uleb128 0xc
 8303 0ea2 76000000 		.4byte	.LVL233
 8304 0ea6 95010000 		.4byte	0x195
 8305 0eaa B50E0000 		.4byte	0xeb5
 8306 0eae 0D       		.uleb128 0xd
 8307 0eaf 01       		.uleb128 0x1
 8308 0eb0 50       		.byte	0x50
 8309 0eb1 02       		.uleb128 0x2
 8310 0eb2 08       		.byte	0x8
 8311 0eb3 78       		.byte	0x78
 8312 0eb4 00       		.byte	0
 8313 0eb5 0C       		.uleb128 0xc
 8314 0eb6 7C000000 		.4byte	.LVL234
 8315 0eba 3A010000 		.4byte	0x13a
 8316 0ebe C90E0000 		.4byte	0xec9
 8317 0ec2 0D       		.uleb128 0xd
 8318 0ec3 01       		.uleb128 0x1
 8319 0ec4 50       		.byte	0x50
 8320 0ec5 02       		.uleb128 0x2
 8321 0ec6 09       		.byte	0x9
 8322 0ec7 EA       		.byte	0xea
 8323 0ec8 00       		.byte	0
 8324 0ec9 0C       		.uleb128 0xc
 8325 0eca 82000000 		.4byte	.LVL235
 8326 0ece 95010000 		.4byte	0x195
 8327 0ed2 DC0E0000 		.4byte	0xedc
 8328 0ed6 0D       		.uleb128 0xd
 8329 0ed7 01       		.uleb128 0x1
 8330 0ed8 50       		.byte	0x50
 8331 0ed9 01       		.uleb128 0x1
 8332 0eda 30       		.byte	0x30
 8333 0edb 00       		.byte	0
ARM GAS  C:\Users\Kayas\AppData\Local\Temp\ccpxl0Kp.s 			page 159


 8334 0edc 0C       		.uleb128 0xc
 8335 0edd 88000000 		.4byte	.LVL236
 8336 0ee1 95010000 		.4byte	0x195
 8337 0ee5 EF0E0000 		.4byte	0xeef
 8338 0ee9 0D       		.uleb128 0xd
 8339 0eea 01       		.uleb128 0x1
 8340 0eeb 50       		.byte	0x50
 8341 0eec 01       		.uleb128 0x1
 8342 0eed 30       		.byte	0x30
 8343 0eee 00       		.byte	0
 8344 0eef 0C       		.uleb128 0xc
 8345 0ef0 8E000000 		.4byte	.LVL237
 8346 0ef4 3A010000 		.4byte	0x13a
 8347 0ef8 030F0000 		.4byte	0xf03
 8348 0efc 0D       		.uleb128 0xd
 8349 0efd 01       		.uleb128 0x1
 8350 0efe 50       		.byte	0x50
 8351 0eff 02       		.uleb128 0x2
 8352 0f00 09       		.byte	0x9
 8353 0f01 ED       		.byte	0xed
 8354 0f02 00       		.byte	0
 8355 0f03 0C       		.uleb128 0xc
 8356 0f04 94000000 		.4byte	.LVL238
 8357 0f08 95010000 		.4byte	0x195
 8358 0f0c 170F0000 		.4byte	0xf17
 8359 0f10 0D       		.uleb128 0xd
 8360 0f11 01       		.uleb128 0x1
 8361 0f12 50       		.byte	0x50
 8362 0f13 02       		.uleb128 0x2
 8363 0f14 08       		.byte	0x8
 8364 0f15 64       		.byte	0x64
 8365 0f16 00       		.byte	0
 8366 0f17 0C       		.uleb128 0xc
 8367 0f18 9A000000 		.4byte	.LVL239
 8368 0f1c 95010000 		.4byte	0x195
 8369 0f20 2A0F0000 		.4byte	0xf2a
 8370 0f24 0D       		.uleb128 0xd
 8371 0f25 01       		.uleb128 0x1
 8372 0f26 50       		.byte	0x50
 8373 0f27 01       		.uleb128 0x1
 8374 0f28 33       		.byte	0x33
 8375 0f29 00       		.byte	0
 8376 0f2a 0C       		.uleb128 0xc
 8377 0f2b A0000000 		.4byte	.LVL240
 8378 0f2f 95010000 		.4byte	0x195
 8379 0f33 3D0F0000 		.4byte	0xf3d
 8380 0f37 0D       		.uleb128 0xd
 8381 0f38 01       		.uleb128 0x1
 8382 0f39 50       		.byte	0x50
 8383 0f3a 01       		.uleb128 0x1
 8384 0f3b 42       		.byte	0x42
 8385 0f3c 00       		.byte	0
 8386 0f3d 0C       		.uleb128 0xc
 8387 0f3e A6000000 		.4byte	.LVL241
 8388 0f42 95010000 		.4byte	0x195
 8389 0f46 510F0000 		.4byte	0xf51
 8390 0f4a 0D       		.uleb128 0xd
ARM GAS  C:\Users\Kayas\AppData\Local\Temp\ccpxl0Kp.s 			page 160


 8391 0f4b 01       		.uleb128 0x1
 8392 0f4c 50       		.byte	0x50
 8393 0f4d 02       		.uleb128 0x2
 8394 0f4e 09       		.byte	0x9
 8395 0f4f 81       		.byte	0x81
 8396 0f50 00       		.byte	0
 8397 0f51 0C       		.uleb128 0xc
 8398 0f52 AC000000 		.4byte	.LVL242
 8399 0f56 3A010000 		.4byte	0x13a
 8400 0f5a 650F0000 		.4byte	0xf65
 8401 0f5e 0D       		.uleb128 0xd
 8402 0f5f 01       		.uleb128 0x1
 8403 0f60 50       		.byte	0x50
 8404 0f61 02       		.uleb128 0x2
 8405 0f62 09       		.byte	0x9
 8406 0f63 F7       		.byte	0xf7
 8407 0f64 00       		.byte	0
 8408 0f65 0C       		.uleb128 0xc
 8409 0f66 B2000000 		.4byte	.LVL243
 8410 0f6a 95010000 		.4byte	0x195
 8411 0f6e 790F0000 		.4byte	0xf79
 8412 0f72 0D       		.uleb128 0xd
 8413 0f73 01       		.uleb128 0x1
 8414 0f74 50       		.byte	0x50
 8415 0f75 02       		.uleb128 0x2
 8416 0f76 08       		.byte	0x8
 8417 0f77 20       		.byte	0x20
 8418 0f78 00       		.byte	0
 8419 0f79 0C       		.uleb128 0xc
 8420 0f7a B8000000 		.4byte	.LVL244
 8421 0f7e 3A010000 		.4byte	0x13a
 8422 0f82 8D0F0000 		.4byte	0xf8d
 8423 0f86 0D       		.uleb128 0xd
 8424 0f87 01       		.uleb128 0x1
 8425 0f88 50       		.byte	0x50
 8426 0f89 02       		.uleb128 0x2
 8427 0f8a 09       		.byte	0x9
 8428 0f8b C0       		.byte	0xc0
 8429 0f8c 00       		.byte	0
 8430 0f8d 0C       		.uleb128 0xc
 8431 0f8e BE000000 		.4byte	.LVL245
 8432 0f92 95010000 		.4byte	0x195
 8433 0f96 A10F0000 		.4byte	0xfa1
 8434 0f9a 0D       		.uleb128 0xd
 8435 0f9b 01       		.uleb128 0x1
 8436 0f9c 50       		.byte	0x50
 8437 0f9d 02       		.uleb128 0x2
 8438 0f9e 08       		.byte	0x8
 8439 0f9f 23       		.byte	0x23
 8440 0fa0 00       		.byte	0
 8441 0fa1 0C       		.uleb128 0xc
 8442 0fa2 C4000000 		.4byte	.LVL246
 8443 0fa6 3A010000 		.4byte	0x13a
 8444 0faa B50F0000 		.4byte	0xfb5
 8445 0fae 0D       		.uleb128 0xd
 8446 0faf 01       		.uleb128 0x1
 8447 0fb0 50       		.byte	0x50
ARM GAS  C:\Users\Kayas\AppData\Local\Temp\ccpxl0Kp.s 			page 161


 8448 0fb1 02       		.uleb128 0x2
 8449 0fb2 09       		.byte	0x9
 8450 0fb3 C1       		.byte	0xc1
 8451 0fb4 00       		.byte	0
 8452 0fb5 0C       		.uleb128 0xc
 8453 0fb6 CA000000 		.4byte	.LVL247
 8454 0fba 95010000 		.4byte	0x195
 8455 0fbe C80F0000 		.4byte	0xfc8
 8456 0fc2 0D       		.uleb128 0xd
 8457 0fc3 01       		.uleb128 0x1
 8458 0fc4 50       		.byte	0x50
 8459 0fc5 01       		.uleb128 0x1
 8460 0fc6 40       		.byte	0x40
 8461 0fc7 00       		.byte	0
 8462 0fc8 0C       		.uleb128 0xc
 8463 0fc9 D0000000 		.4byte	.LVL248
 8464 0fcd 3A010000 		.4byte	0x13a
 8465 0fd1 DC0F0000 		.4byte	0xfdc
 8466 0fd5 0D       		.uleb128 0xd
 8467 0fd6 01       		.uleb128 0x1
 8468 0fd7 50       		.byte	0x50
 8469 0fd8 02       		.uleb128 0x2
 8470 0fd9 09       		.byte	0x9
 8471 0fda C5       		.byte	0xc5
 8472 0fdb 00       		.byte	0
 8473 0fdc 0C       		.uleb128 0xc
 8474 0fdd D6000000 		.4byte	.LVL249
 8475 0fe1 95010000 		.4byte	0x195
 8476 0fe5 F00F0000 		.4byte	0xff0
 8477 0fe9 0D       		.uleb128 0xd
 8478 0fea 01       		.uleb128 0x1
 8479 0feb 50       		.byte	0x50
 8480 0fec 02       		.uleb128 0x2
 8481 0fed 08       		.byte	0x8
 8482 0fee 2B       		.byte	0x2b
 8483 0fef 00       		.byte	0
 8484 0ff0 0C       		.uleb128 0xc
 8485 0ff1 DC000000 		.4byte	.LVL250
 8486 0ff5 95010000 		.4byte	0x195
 8487 0ff9 04100000 		.4byte	0x1004
 8488 0ffd 0D       		.uleb128 0xd
 8489 0ffe 01       		.uleb128 0x1
 8490 0fff 50       		.byte	0x50
 8491 1000 02       		.uleb128 0x2
 8492 1001 08       		.byte	0x8
 8493 1002 2B       		.byte	0x2b
 8494 1003 00       		.byte	0
 8495 1004 0C       		.uleb128 0xc
 8496 1005 E2000000 		.4byte	.LVL251
 8497 1009 960C0000 		.4byte	0xc96
 8498 100d 18100000 		.4byte	0x1018
 8499 1011 0D       		.uleb128 0xd
 8500 1012 01       		.uleb128 0x1
 8501 1013 50       		.byte	0x50
 8502 1014 02       		.uleb128 0x2
 8503 1015 74       		.byte	0x74
 8504 1016 00       		.sleb128 0
ARM GAS  C:\Users\Kayas\AppData\Local\Temp\ccpxl0Kp.s 			page 162


 8505 1017 00       		.byte	0
 8506 1018 0C       		.uleb128 0xc
 8507 1019 E8000000 		.4byte	.LVL252
 8508 101d 3A010000 		.4byte	0x13a
 8509 1021 2C100000 		.4byte	0x102c
 8510 1025 0D       		.uleb128 0xd
 8511 1026 01       		.uleb128 0x1
 8512 1027 50       		.byte	0x50
 8513 1028 02       		.uleb128 0x2
 8514 1029 09       		.byte	0x9
 8515 102a B1       		.byte	0xb1
 8516 102b 00       		.byte	0
 8517 102c 0C       		.uleb128 0xc
 8518 102d EE000000 		.4byte	.LVL253
 8519 1031 95010000 		.4byte	0x195
 8520 1035 3F100000 		.4byte	0x103f
 8521 1039 0D       		.uleb128 0xd
 8522 103a 01       		.uleb128 0x1
 8523 103b 50       		.byte	0x50
 8524 103c 01       		.uleb128 0x1
 8525 103d 30       		.byte	0x30
 8526 103e 00       		.byte	0
 8527 103f 0C       		.uleb128 0xc
 8528 1040 F4000000 		.4byte	.LVL254
 8529 1044 95010000 		.4byte	0x195
 8530 1048 52100000 		.4byte	0x1052
 8531 104c 0D       		.uleb128 0xd
 8532 104d 01       		.uleb128 0x1
 8533 104e 50       		.byte	0x50
 8534 104f 01       		.uleb128 0x1
 8535 1050 4B       		.byte	0x4b
 8536 1051 00       		.byte	0
 8537 1052 0C       		.uleb128 0xc
 8538 1053 FA000000 		.4byte	.LVL255
 8539 1057 3A010000 		.4byte	0x13a
 8540 105b 66100000 		.4byte	0x1066
 8541 105f 0D       		.uleb128 0xd
 8542 1060 01       		.uleb128 0x1
 8543 1061 50       		.byte	0x50
 8544 1062 02       		.uleb128 0x2
 8545 1063 09       		.byte	0x9
 8546 1064 B6       		.byte	0xb6
 8547 1065 00       		.byte	0
 8548 1066 0C       		.uleb128 0xc
 8549 1067 00010000 		.4byte	.LVL256
 8550 106b 95010000 		.4byte	0x195
 8551 106f 79100000 		.4byte	0x1079
 8552 1073 0D       		.uleb128 0xd
 8553 1074 01       		.uleb128 0x1
 8554 1075 50       		.byte	0x50
 8555 1076 01       		.uleb128 0x1
 8556 1077 3A       		.byte	0x3a
 8557 1078 00       		.byte	0
 8558 1079 0C       		.uleb128 0xc
 8559 107a 06010000 		.4byte	.LVL257
 8560 107e 95010000 		.4byte	0x195
 8561 1082 8C100000 		.4byte	0x108c
ARM GAS  C:\Users\Kayas\AppData\Local\Temp\ccpxl0Kp.s 			page 163


 8562 1086 0D       		.uleb128 0xd
 8563 1087 01       		.uleb128 0x1
 8564 1088 50       		.byte	0x50
 8565 1089 01       		.uleb128 0x1
 8566 108a 32       		.byte	0x32
 8567 108b 00       		.byte	0
 8568 108c 0C       		.uleb128 0xc
 8569 108d 0C010000 		.4byte	.LVL258
 8570 1091 3A010000 		.4byte	0x13a
 8571 1095 A0100000 		.4byte	0x10a0
 8572 1099 0D       		.uleb128 0xd
 8573 109a 01       		.uleb128 0x1
 8574 109b 50       		.byte	0x50
 8575 109c 02       		.uleb128 0x2
 8576 109d 09       		.byte	0x9
 8577 109e F2       		.byte	0xf2
 8578 109f 00       		.byte	0
 8579 10a0 0C       		.uleb128 0xc
 8580 10a1 12010000 		.4byte	.LVL259
 8581 10a5 95010000 		.4byte	0x195
 8582 10a9 B3100000 		.4byte	0x10b3
 8583 10ad 0D       		.uleb128 0xd
 8584 10ae 01       		.uleb128 0x1
 8585 10af 50       		.byte	0x50
 8586 10b0 01       		.uleb128 0x1
 8587 10b1 32       		.byte	0x32
 8588 10b2 00       		.byte	0
 8589 10b3 0C       		.uleb128 0xc
 8590 10b4 18010000 		.4byte	.LVL260
 8591 10b8 3A010000 		.4byte	0x13a
 8592 10bc C7100000 		.4byte	0x10c7
 8593 10c0 0D       		.uleb128 0xd
 8594 10c1 01       		.uleb128 0x1
 8595 10c2 50       		.byte	0x50
 8596 10c3 02       		.uleb128 0x2
 8597 10c4 08       		.byte	0x8
 8598 10c5 3A       		.byte	0x3a
 8599 10c6 00       		.byte	0
 8600 10c7 0C       		.uleb128 0xc
 8601 10c8 1E010000 		.4byte	.LVL261
 8602 10cc 95010000 		.4byte	0x195
 8603 10d0 DA100000 		.4byte	0x10da
 8604 10d4 0D       		.uleb128 0xd
 8605 10d5 01       		.uleb128 0x1
 8606 10d6 50       		.byte	0x50
 8607 10d7 01       		.uleb128 0x1
 8608 10d8 35       		.byte	0x35
 8609 10d9 00       		.byte	0
 8610 10da 0C       		.uleb128 0xc
 8611 10db 24010000 		.4byte	.LVL262
 8612 10df 3A010000 		.4byte	0x13a
 8613 10e3 EE100000 		.4byte	0x10ee
 8614 10e7 0D       		.uleb128 0xd
 8615 10e8 01       		.uleb128 0x1
 8616 10e9 50       		.byte	0x50
 8617 10ea 02       		.uleb128 0x2
 8618 10eb 08       		.byte	0x8
ARM GAS  C:\Users\Kayas\AppData\Local\Temp\ccpxl0Kp.s 			page 164


 8619 10ec 26       		.byte	0x26
 8620 10ed 00       		.byte	0
 8621 10ee 0C       		.uleb128 0xc
 8622 10ef 2A010000 		.4byte	.LVL263
 8623 10f3 95010000 		.4byte	0x195
 8624 10f7 01110000 		.4byte	0x1101
 8625 10fb 0D       		.uleb128 0xd
 8626 10fc 01       		.uleb128 0x1
 8627 10fd 50       		.byte	0x50
 8628 10fe 01       		.uleb128 0x1
 8629 10ff 31       		.byte	0x31
 8630 1100 00       		.byte	0
 8631 1101 0C       		.uleb128 0xc
 8632 1102 30010000 		.4byte	.LVL264
 8633 1106 3A010000 		.4byte	0x13a
 8634 110a 15110000 		.4byte	0x1115
 8635 110e 0D       		.uleb128 0xd
 8636 110f 01       		.uleb128 0x1
 8637 1110 50       		.byte	0x50
 8638 1111 02       		.uleb128 0x2
 8639 1112 09       		.byte	0x9
 8640 1113 E0       		.byte	0xe0
 8641 1114 00       		.byte	0
 8642 1115 0C       		.uleb128 0xc
 8643 1116 36010000 		.4byte	.LVL265
 8644 111a 95010000 		.4byte	0x195
 8645 111e 28110000 		.4byte	0x1128
 8646 1122 0D       		.uleb128 0xd
 8647 1123 01       		.uleb128 0x1
 8648 1124 50       		.byte	0x50
 8649 1125 01       		.uleb128 0x1
 8650 1126 3F       		.byte	0x3f
 8651 1127 00       		.byte	0
 8652 1128 0C       		.uleb128 0xc
 8653 1129 3C010000 		.4byte	.LVL266
 8654 112d 95010000 		.4byte	0x195
 8655 1131 3C110000 		.4byte	0x113c
 8656 1135 0D       		.uleb128 0xd
 8657 1136 01       		.uleb128 0x1
 8658 1137 50       		.byte	0x50
 8659 1138 02       		.uleb128 0x2
 8660 1139 08       		.byte	0x8
 8661 113a 31       		.byte	0x31
 8662 113b 00       		.byte	0
 8663 113c 0C       		.uleb128 0xc
 8664 113d 42010000 		.4byte	.LVL267
 8665 1141 95010000 		.4byte	0x195
 8666 1145 50110000 		.4byte	0x1150
 8667 1149 0D       		.uleb128 0xd
 8668 114a 01       		.uleb128 0x1
 8669 114b 50       		.byte	0x50
 8670 114c 02       		.uleb128 0x2
 8671 114d 08       		.byte	0x8
 8672 114e 2B       		.byte	0x2b
 8673 114f 00       		.byte	0
 8674 1150 0C       		.uleb128 0xc
 8675 1151 48010000 		.4byte	.LVL268
ARM GAS  C:\Users\Kayas\AppData\Local\Temp\ccpxl0Kp.s 			page 165


 8676 1155 95010000 		.4byte	0x195
 8677 1159 63110000 		.4byte	0x1163
 8678 115d 0D       		.uleb128 0xd
 8679 115e 01       		.uleb128 0x1
 8680 115f 50       		.byte	0x50
 8681 1160 01       		.uleb128 0x1
 8682 1161 3C       		.byte	0x3c
 8683 1162 00       		.byte	0
 8684 1163 0C       		.uleb128 0xc
 8685 1164 4E010000 		.4byte	.LVL269
 8686 1168 95010000 		.4byte	0x195
 8687 116c 76110000 		.4byte	0x1176
 8688 1170 0D       		.uleb128 0xd
 8689 1171 01       		.uleb128 0x1
 8690 1172 50       		.byte	0x50
 8691 1173 01       		.uleb128 0x1
 8692 1174 3E       		.byte	0x3e
 8693 1175 00       		.byte	0
 8694 1176 0C       		.uleb128 0xc
 8695 1177 54010000 		.4byte	.LVL270
 8696 117b 95010000 		.4byte	0x195
 8697 117f 89110000 		.4byte	0x1189
 8698 1183 0D       		.uleb128 0xd
 8699 1184 01       		.uleb128 0x1
 8700 1185 50       		.byte	0x50
 8701 1186 01       		.uleb128 0x1
 8702 1187 38       		.byte	0x38
 8703 1188 00       		.byte	0
 8704 1189 0C       		.uleb128 0xc
 8705 118a 5A010000 		.4byte	.LVL271
 8706 118e 95010000 		.4byte	0x195
 8707 1192 9D110000 		.4byte	0x119d
 8708 1196 0D       		.uleb128 0xd
 8709 1197 01       		.uleb128 0x1
 8710 1198 50       		.byte	0x50
 8711 1199 02       		.uleb128 0x2
 8712 119a 08       		.byte	0x8
 8713 119b 4E       		.byte	0x4e
 8714 119c 00       		.byte	0
 8715 119d 0C       		.uleb128 0xc
 8716 119e 60010000 		.4byte	.LVL272
 8717 11a2 95010000 		.4byte	0x195
 8718 11a6 B1110000 		.4byte	0x11b1
 8719 11aa 0D       		.uleb128 0xd
 8720 11ab 01       		.uleb128 0x1
 8721 11ac 50       		.byte	0x50
 8722 11ad 02       		.uleb128 0x2
 8723 11ae 09       		.byte	0x9
 8724 11af F1       		.byte	0xf1
 8725 11b0 00       		.byte	0
 8726 11b1 0C       		.uleb128 0xc
 8727 11b2 66010000 		.4byte	.LVL273
 8728 11b6 95010000 		.4byte	0x195
 8729 11ba C5110000 		.4byte	0x11c5
 8730 11be 0D       		.uleb128 0xd
 8731 11bf 01       		.uleb128 0x1
 8732 11c0 50       		.byte	0x50
ARM GAS  C:\Users\Kayas\AppData\Local\Temp\ccpxl0Kp.s 			page 166


 8733 11c1 02       		.uleb128 0x2
 8734 11c2 08       		.byte	0x8
 8735 11c3 37       		.byte	0x37
 8736 11c4 00       		.byte	0
 8737 11c5 0C       		.uleb128 0xc
 8738 11c6 6C010000 		.4byte	.LVL274
 8739 11ca 95010000 		.4byte	0x195
 8740 11ce D8110000 		.4byte	0x11d8
 8741 11d2 0D       		.uleb128 0xd
 8742 11d3 01       		.uleb128 0x1
 8743 11d4 50       		.byte	0x50
 8744 11d5 01       		.uleb128 0x1
 8745 11d6 37       		.byte	0x37
 8746 11d7 00       		.byte	0
 8747 11d8 0C       		.uleb128 0xc
 8748 11d9 72010000 		.4byte	.LVL275
 8749 11dd 95010000 		.4byte	0x195
 8750 11e1 EB110000 		.4byte	0x11eb
 8751 11e5 0D       		.uleb128 0xd
 8752 11e6 01       		.uleb128 0x1
 8753 11e7 50       		.byte	0x50
 8754 11e8 01       		.uleb128 0x1
 8755 11e9 40       		.byte	0x40
 8756 11ea 00       		.byte	0
 8757 11eb 0C       		.uleb128 0xc
 8758 11ec 78010000 		.4byte	.LVL276
 8759 11f0 95010000 		.4byte	0x195
 8760 11f4 FE110000 		.4byte	0x11fe
 8761 11f8 0D       		.uleb128 0xd
 8762 11f9 01       		.uleb128 0x1
 8763 11fa 50       		.byte	0x50
 8764 11fb 01       		.uleb128 0x1
 8765 11fc 33       		.byte	0x33
 8766 11fd 00       		.byte	0
 8767 11fe 0C       		.uleb128 0xc
 8768 11ff 7E010000 		.4byte	.LVL277
 8769 1203 95010000 		.4byte	0x195
 8770 1207 11120000 		.4byte	0x1211
 8771 120b 0D       		.uleb128 0xd
 8772 120c 01       		.uleb128 0x1
 8773 120d 50       		.byte	0x50
 8774 120e 01       		.uleb128 0x1
 8775 120f 3E       		.byte	0x3e
 8776 1210 00       		.byte	0
 8777 1211 0C       		.uleb128 0xc
 8778 1212 84010000 		.4byte	.LVL278
 8779 1216 95010000 		.4byte	0x195
 8780 121a 24120000 		.4byte	0x1224
 8781 121e 0D       		.uleb128 0xd
 8782 121f 01       		.uleb128 0x1
 8783 1220 50       		.byte	0x50
 8784 1221 01       		.uleb128 0x1
 8785 1222 39       		.byte	0x39
 8786 1223 00       		.byte	0
 8787 1224 0C       		.uleb128 0xc
 8788 1225 8A010000 		.4byte	.LVL279
 8789 1229 95010000 		.4byte	0x195
ARM GAS  C:\Users\Kayas\AppData\Local\Temp\ccpxl0Kp.s 			page 167


 8790 122d 37120000 		.4byte	0x1237
 8791 1231 0D       		.uleb128 0xd
 8792 1232 01       		.uleb128 0x1
 8793 1233 50       		.byte	0x50
 8794 1234 01       		.uleb128 0x1
 8795 1235 30       		.byte	0x30
 8796 1236 00       		.byte	0
 8797 1237 0C       		.uleb128 0xc
 8798 1238 90010000 		.4byte	.LVL280
 8799 123c 3A010000 		.4byte	0x13a
 8800 1240 4B120000 		.4byte	0x124b
 8801 1244 0D       		.uleb128 0xd
 8802 1245 01       		.uleb128 0x1
 8803 1246 50       		.byte	0x50
 8804 1247 02       		.uleb128 0x2
 8805 1248 09       		.byte	0x9
 8806 1249 E1       		.byte	0xe1
 8807 124a 00       		.byte	0
 8808 124b 0C       		.uleb128 0xc
 8809 124c 96010000 		.4byte	.LVL281
 8810 1250 95010000 		.4byte	0x195
 8811 1254 5E120000 		.4byte	0x125e
 8812 1258 0D       		.uleb128 0xd
 8813 1259 01       		.uleb128 0x1
 8814 125a 50       		.byte	0x50
 8815 125b 01       		.uleb128 0x1
 8816 125c 30       		.byte	0x30
 8817 125d 00       		.byte	0
 8818 125e 0C       		.uleb128 0xc
 8819 125f 9C010000 		.4byte	.LVL282
 8820 1263 95010000 		.4byte	0x195
 8821 1267 71120000 		.4byte	0x1271
 8822 126b 0D       		.uleb128 0xd
 8823 126c 01       		.uleb128 0x1
 8824 126d 50       		.byte	0x50
 8825 126e 01       		.uleb128 0x1
 8826 126f 3E       		.byte	0x3e
 8827 1270 00       		.byte	0
 8828 1271 0C       		.uleb128 0xc
 8829 1272 A2010000 		.4byte	.LVL283
 8830 1276 95010000 		.4byte	0x195
 8831 127a 84120000 		.4byte	0x1284
 8832 127e 0D       		.uleb128 0xd
 8833 127f 01       		.uleb128 0x1
 8834 1280 50       		.byte	0x50
 8835 1281 01       		.uleb128 0x1
 8836 1282 44       		.byte	0x44
 8837 1283 00       		.byte	0
 8838 1284 0C       		.uleb128 0xc
 8839 1285 A8010000 		.4byte	.LVL284
 8840 1289 95010000 		.4byte	0x195
 8841 128d 97120000 		.4byte	0x1297
 8842 1291 0D       		.uleb128 0xd
 8843 1292 01       		.uleb128 0x1
 8844 1293 50       		.byte	0x50
 8845 1294 01       		.uleb128 0x1
 8846 1295 33       		.byte	0x33
ARM GAS  C:\Users\Kayas\AppData\Local\Temp\ccpxl0Kp.s 			page 168


 8847 1296 00       		.byte	0
 8848 1297 0C       		.uleb128 0xc
 8849 1298 AE010000 		.4byte	.LVL285
 8850 129c 95010000 		.4byte	0x195
 8851 12a0 AA120000 		.4byte	0x12aa
 8852 12a4 0D       		.uleb128 0xd
 8853 12a5 01       		.uleb128 0x1
 8854 12a6 50       		.byte	0x50
 8855 12a7 01       		.uleb128 0x1
 8856 12a8 41       		.byte	0x41
 8857 12a9 00       		.byte	0
 8858 12aa 0C       		.uleb128 0xc
 8859 12ab B4010000 		.4byte	.LVL286
 8860 12af 95010000 		.4byte	0x195
 8861 12b3 BD120000 		.4byte	0x12bd
 8862 12b7 0D       		.uleb128 0xd
 8863 12b8 01       		.uleb128 0x1
 8864 12b9 50       		.byte	0x50
 8865 12ba 01       		.uleb128 0x1
 8866 12bb 37       		.byte	0x37
 8867 12bc 00       		.byte	0
 8868 12bd 0C       		.uleb128 0xc
 8869 12be BA010000 		.4byte	.LVL287
 8870 12c2 95010000 		.4byte	0x195
 8871 12c6 D1120000 		.4byte	0x12d1
 8872 12ca 0D       		.uleb128 0xd
 8873 12cb 01       		.uleb128 0x1
 8874 12cc 50       		.byte	0x50
 8875 12cd 02       		.uleb128 0x2
 8876 12ce 08       		.byte	0x8
 8877 12cf 31       		.byte	0x31
 8878 12d0 00       		.byte	0
 8879 12d1 0C       		.uleb128 0xc
 8880 12d2 C0010000 		.4byte	.LVL288
 8881 12d6 95010000 		.4byte	0x195
 8882 12da E5120000 		.4byte	0x12e5
 8883 12de 0D       		.uleb128 0xd
 8884 12df 01       		.uleb128 0x1
 8885 12e0 50       		.byte	0x50
 8886 12e1 02       		.uleb128 0x2
 8887 12e2 09       		.byte	0x9
 8888 12e3 C1       		.byte	0xc1
 8889 12e4 00       		.byte	0
 8890 12e5 0C       		.uleb128 0xc
 8891 12e6 C6010000 		.4byte	.LVL289
 8892 12ea 95010000 		.4byte	0x195
 8893 12ee F9120000 		.4byte	0x12f9
 8894 12f2 0D       		.uleb128 0xd
 8895 12f3 01       		.uleb128 0x1
 8896 12f4 50       		.byte	0x50
 8897 12f5 02       		.uleb128 0x2
 8898 12f6 08       		.byte	0x8
 8899 12f7 48       		.byte	0x48
 8900 12f8 00       		.byte	0
 8901 12f9 0C       		.uleb128 0xc
 8902 12fa CC010000 		.4byte	.LVL290
 8903 12fe 95010000 		.4byte	0x195
ARM GAS  C:\Users\Kayas\AppData\Local\Temp\ccpxl0Kp.s 			page 169


 8904 1302 0C130000 		.4byte	0x130c
 8905 1306 0D       		.uleb128 0xd
 8906 1307 01       		.uleb128 0x1
 8907 1308 50       		.byte	0x50
 8908 1309 01       		.uleb128 0x1
 8909 130a 38       		.byte	0x38
 8910 130b 00       		.byte	0
 8911 130c 0C       		.uleb128 0xc
 8912 130d D2010000 		.4byte	.LVL291
 8913 1311 95010000 		.4byte	0x195
 8914 1315 1F130000 		.4byte	0x131f
 8915 1319 0D       		.uleb128 0xd
 8916 131a 01       		.uleb128 0x1
 8917 131b 50       		.byte	0x50
 8918 131c 01       		.uleb128 0x1
 8919 131d 3F       		.byte	0x3f
 8920 131e 00       		.byte	0
 8921 131f 0C       		.uleb128 0xc
 8922 1320 D8010000 		.4byte	.LVL292
 8923 1324 95010000 		.4byte	0x195
 8924 1328 32130000 		.4byte	0x1332
 8925 132c 0D       		.uleb128 0xd
 8926 132d 01       		.uleb128 0x1
 8927 132e 50       		.byte	0x50
 8928 132f 01       		.uleb128 0x1
 8929 1330 3C       		.byte	0x3c
 8930 1331 00       		.byte	0
 8931 1332 0C       		.uleb128 0xc
 8932 1333 DE010000 		.4byte	.LVL293
 8933 1337 95010000 		.4byte	0x195
 8934 133b 46130000 		.4byte	0x1346
 8935 133f 0D       		.uleb128 0xd
 8936 1340 01       		.uleb128 0x1
 8937 1341 50       		.byte	0x50
 8938 1342 02       		.uleb128 0x2
 8939 1343 08       		.byte	0x8
 8940 1344 31       		.byte	0x31
 8941 1345 00       		.byte	0
 8942 1346 0C       		.uleb128 0xc
 8943 1347 E4010000 		.4byte	.LVL294
 8944 134b 95010000 		.4byte	0x195
 8945 134f 5A130000 		.4byte	0x135a
 8946 1353 0D       		.uleb128 0xd
 8947 1354 01       		.uleb128 0x1
 8948 1355 50       		.byte	0x50
 8949 1356 02       		.uleb128 0x2
 8950 1357 08       		.byte	0x8
 8951 1358 36       		.byte	0x36
 8952 1359 00       		.byte	0
 8953 135a 0C       		.uleb128 0xc
 8954 135b EA010000 		.4byte	.LVL295
 8955 135f 95010000 		.4byte	0x195
 8956 1363 6D130000 		.4byte	0x136d
 8957 1367 0D       		.uleb128 0xd
 8958 1368 01       		.uleb128 0x1
 8959 1369 50       		.byte	0x50
 8960 136a 01       		.uleb128 0x1
ARM GAS  C:\Users\Kayas\AppData\Local\Temp\ccpxl0Kp.s 			page 170


 8961 136b 3F       		.byte	0x3f
 8962 136c 00       		.byte	0
 8963 136d 0C       		.uleb128 0xc
 8964 136e F0010000 		.4byte	.LVL296
 8965 1372 3A010000 		.4byte	0x13a
 8966 1376 80130000 		.4byte	0x1380
 8967 137a 0D       		.uleb128 0xd
 8968 137b 01       		.uleb128 0x1
 8969 137c 50       		.byte	0x50
 8970 137d 01       		.uleb128 0x1
 8971 137e 41       		.byte	0x41
 8972 137f 00       		.byte	0
 8973 1380 0C       		.uleb128 0xc
 8974 1381 F6010000 		.4byte	.LVL297
 8975 1385 051A0000 		.4byte	0x1a05
 8976 1389 94130000 		.4byte	0x1394
 8977 138d 0D       		.uleb128 0xd
 8978 138e 01       		.uleb128 0x1
 8979 138f 50       		.byte	0x50
 8980 1390 02       		.uleb128 0x2
 8981 1391 08       		.byte	0x8
 8982 1392 78       		.byte	0x78
 8983 1393 00       		.byte	0
 8984 1394 0E       		.uleb128 0xe
 8985 1395 FC010000 		.4byte	.LVL298
 8986 1399 3A010000 		.4byte	0x13a
 8987 139d 0D       		.uleb128 0xd
 8988 139e 01       		.uleb128 0x1
 8989 139f 50       		.byte	0x50
 8990 13a0 02       		.uleb128 0x2
 8991 13a1 08       		.byte	0x8
 8992 13a2 29       		.byte	0x29
 8993 13a3 00       		.byte	0
 8994 13a4 00       		.byte	0
 8995 13a5 13       		.uleb128 0x13
 8996 13a6 18040000 		.4byte	.LASF55
 8997 13aa 01       		.byte	0x1
 8998 13ab 7101     		.2byte	0x171
 8999 13ad 00000000 		.4byte	.LFB79
 9000 13b1 C8000000 		.4byte	.LFE79-.LFB79
 9001 13b5 01       		.uleb128 0x1
 9002 13b6 9C       		.byte	0x9c
 9003 13b7 C3140000 		.4byte	0x14c3
 9004 13bb 14       		.uleb128 0x14
 9005 13bc 6300     		.ascii	"c\000"
 9006 13be 01       		.byte	0x1
 9007 13bf 7101     		.2byte	0x171
 9008 13c1 5E000000 		.4byte	0x5e
 9009 13c5 100B0000 		.4byte	.LLST76
 9010 13c9 14       		.uleb128 0x14
 9011 13ca 7800     		.ascii	"x\000"
 9012 13cc 01       		.byte	0x1
 9013 13cd 7101     		.2byte	0x171
 9014 13cf CD000000 		.4byte	0xcd
 9015 13d3 310B0000 		.4byte	.LLST77
 9016 13d7 14       		.uleb128 0x14
 9017 13d8 7900     		.ascii	"y\000"
ARM GAS  C:\Users\Kayas\AppData\Local\Temp\ccpxl0Kp.s 			page 171


 9018 13da 01       		.byte	0x1
 9019 13db 7101     		.2byte	0x171
 9020 13dd CD000000 		.4byte	0xcd
 9021 13e1 520B0000 		.4byte	.LLST78
 9022 13e5 15       		.uleb128 0x15
 9023 13e6 52030000 		.4byte	.LASF56
 9024 13ea 01       		.byte	0x1
 9025 13eb 7101     		.2byte	0x171
 9026 13ed C2000000 		.4byte	0xc2
 9027 13f1 730B0000 		.4byte	.LLST79
 9028 13f5 15       		.uleb128 0x15
 9029 13f6 3C000000 		.4byte	.LASF37
 9030 13fa 01       		.byte	0x1
 9031 13fb 7101     		.2byte	0x171
 9032 13fd D8000000 		.4byte	0xd8
 9033 1401 940B0000 		.4byte	.LLST80
 9034 1405 17       		.uleb128 0x17
 9035 1406 626700   		.ascii	"bg\000"
 9036 1409 01       		.byte	0x1
 9037 140a 7301     		.2byte	0x173
 9038 140c D8000000 		.4byte	0xd8
 9039 1410 02       		.uleb128 0x2
 9040 1411 91       		.byte	0x91
 9041 1412 5C       		.sleb128 -36
 9042 1413 18       		.uleb128 0x18
 9043 1414 46000000 		.4byte	.LBB2
 9044 1418 68000000 		.4byte	.LBE2-.LBB2
 9045 141c 16       		.uleb128 0x16
 9046 141d 6900     		.ascii	"i\000"
 9047 141f 01       		.byte	0x1
 9048 1420 7A01     		.2byte	0x17a
 9049 1422 B7000000 		.4byte	0xb7
 9050 1426 C00B0000 		.4byte	.LLST81
 9051 142a 18       		.uleb128 0x18
 9052 142b 46000000 		.4byte	.LBB3
 9053 142f 60000000 		.4byte	.LBE3-.LBB3
 9054 1433 19       		.uleb128 0x19
 9055 1434 D6010000 		.4byte	.LASF57
 9056 1438 01       		.byte	0x1
 9057 1439 7B01     		.2byte	0x17b
 9058 143b C2000000 		.4byte	0xc2
 9059 143f DE0B0000 		.4byte	.LLST82
 9060 1443 18       		.uleb128 0x18
 9061 1444 5E000000 		.4byte	.LBB4
 9062 1448 48000000 		.4byte	.LBE4-.LBB4
 9063 144c 16       		.uleb128 0x16
 9064 144d 6A00     		.ascii	"j\000"
 9065 144f 01       		.byte	0x1
 9066 1450 8001     		.2byte	0x180
 9067 1452 B7000000 		.4byte	0xb7
 9068 1456 FC0B0000 		.4byte	.LLST83
 9069 145a 0C       		.uleb128 0xc
 9070 145b 78000000 		.4byte	.LVL308
 9071 145f 63060000 		.4byte	0x663
 9072 1463 82140000 		.4byte	0x1482
 9073 1467 0D       		.uleb128 0xd
 9074 1468 01       		.uleb128 0x1
ARM GAS  C:\Users\Kayas\AppData\Local\Temp\ccpxl0Kp.s 			page 172


 9075 1469 50       		.byte	0x50
 9076 146a 05       		.uleb128 0x5
 9077 146b 74       		.byte	0x74
 9078 146c 00       		.sleb128 0
 9079 146d 7A       		.byte	0x7a
 9080 146e 00       		.sleb128 0
 9081 146f 22       		.byte	0x22
 9082 1470 0D       		.uleb128 0xd
 9083 1471 01       		.uleb128 0x1
 9084 1472 51       		.byte	0x51
 9085 1473 05       		.uleb128 0x5
 9086 1474 76       		.byte	0x76
 9087 1475 00       		.sleb128 0
 9088 1476 77       		.byte	0x77
 9089 1477 00       		.sleb128 0
 9090 1478 22       		.byte	0x22
 9091 1479 0D       		.uleb128 0xd
 9092 147a 01       		.uleb128 0x1
 9093 147b 52       		.byte	0x52
 9094 147c 04       		.uleb128 0x4
 9095 147d 91       		.byte	0x91
 9096 147e 5C       		.sleb128 -36
 9097 147f 94       		.byte	0x94
 9098 1480 02       		.byte	0x2
 9099 1481 00       		.byte	0
 9100 1482 0E       		.uleb128 0xe
 9101 1483 9C000000 		.4byte	.LVL309
 9102 1487 C0060000 		.4byte	0x6c0
 9103 148b 0D       		.uleb128 0xd
 9104 148c 01       		.uleb128 0x1
 9105 148d 50       		.byte	0x50
 9106 148e 0C       		.uleb128 0xc
 9107 148f 78       		.byte	0x78
 9108 1490 00       		.sleb128 0
 9109 1491 0A       		.byte	0xa
 9110 1492 FFFF     		.2byte	0xffff
 9111 1494 1A       		.byte	0x1a
 9112 1495 74       		.byte	0x74
 9113 1496 00       		.sleb128 0
 9114 1497 1E       		.byte	0x1e
 9115 1498 7A       		.byte	0x7a
 9116 1499 00       		.sleb128 0
 9117 149a 22       		.byte	0x22
 9118 149b 0D       		.uleb128 0xd
 9119 149c 01       		.uleb128 0x1
 9120 149d 51       		.byte	0x51
 9121 149e 0C       		.uleb128 0xc
 9122 149f 78       		.byte	0x78
 9123 14a0 00       		.sleb128 0
 9124 14a1 0A       		.byte	0xa
 9125 14a2 FFFF     		.2byte	0xffff
 9126 14a4 1A       		.byte	0x1a
 9127 14a5 76       		.byte	0x76
 9128 14a6 00       		.sleb128 0
 9129 14a7 1E       		.byte	0x1e
 9130 14a8 77       		.byte	0x77
 9131 14a9 00       		.sleb128 0
ARM GAS  C:\Users\Kayas\AppData\Local\Temp\ccpxl0Kp.s 			page 173


 9132 14aa 22       		.byte	0x22
 9133 14ab 0D       		.uleb128 0xd
 9134 14ac 01       		.uleb128 0x1
 9135 14ad 52       		.byte	0x52
 9136 14ae 02       		.uleb128 0x2
 9137 14af 78       		.byte	0x78
 9138 14b0 00       		.sleb128 0
 9139 14b1 0D       		.uleb128 0xd
 9140 14b2 01       		.uleb128 0x1
 9141 14b3 53       		.byte	0x53
 9142 14b4 02       		.uleb128 0x2
 9143 14b5 78       		.byte	0x78
 9144 14b6 00       		.sleb128 0
 9145 14b7 0D       		.uleb128 0xd
 9146 14b8 02       		.uleb128 0x2
 9147 14b9 7D       		.byte	0x7d
 9148 14ba 00       		.sleb128 0
 9149 14bb 02       		.uleb128 0x2
 9150 14bc 09       		.byte	0x9
 9151 14bd FF       		.byte	0xff
 9152 14be 00       		.byte	0
 9153 14bf 00       		.byte	0
 9154 14c0 00       		.byte	0
 9155 14c1 00       		.byte	0
 9156 14c2 00       		.byte	0
 9157 14c3 13       		.uleb128 0x13
 9158 14c4 FB030000 		.4byte	.LASF58
 9159 14c8 01       		.byte	0x1
 9160 14c9 9301     		.2byte	0x193
 9161 14cb 00000000 		.4byte	.LFB80
 9162 14cf 74000000 		.4byte	.LFE80-.LFB80
 9163 14d3 01       		.uleb128 0x1
 9164 14d4 9C       		.byte	0x9c
 9165 14d5 4F150000 		.4byte	0x154f
 9166 14d9 15       		.uleb128 0x15
 9167 14da 54020000 		.4byte	.LASF59
 9168 14de 01       		.byte	0x1
 9169 14df 9301     		.2byte	0x193
 9170 14e1 A5000000 		.4byte	0xa5
 9171 14e5 1A0C0000 		.4byte	.LLST84
 9172 14e9 14       		.uleb128 0x14
 9173 14ea 706F5800 		.ascii	"poX\000"
 9174 14ee 01       		.byte	0x1
 9175 14ef 9301     		.2byte	0x193
 9176 14f1 D8000000 		.4byte	0xd8
 9177 14f5 380C0000 		.4byte	.LLST85
 9178 14f9 14       		.uleb128 0x14
 9179 14fa 706F5900 		.ascii	"poY\000"
 9180 14fe 01       		.byte	0x1
 9181 14ff 9301     		.2byte	0x193
 9182 1501 D8000000 		.4byte	0xd8
 9183 1505 780C0000 		.4byte	.LLST86
 9184 1509 15       		.uleb128 0x15
 9185 150a 52030000 		.4byte	.LASF56
 9186 150e 01       		.byte	0x1
 9187 150f 9301     		.2byte	0x193
 9188 1511 D8000000 		.4byte	0xd8
ARM GAS  C:\Users\Kayas\AppData\Local\Temp\ccpxl0Kp.s 			page 174


 9189 1515 C30C0000 		.4byte	.LLST87
 9190 1519 15       		.uleb128 0x15
 9191 151a C2020000 		.4byte	.LASF60
 9192 151e 01       		.byte	0x1
 9193 151f 9301     		.2byte	0x193
 9194 1521 D8000000 		.4byte	0xd8
 9195 1525 E40C0000 		.4byte	.LLST88
 9196 1529 0E       		.uleb128 0xe
 9197 152a 3C000000 		.4byte	.LVL323
 9198 152e A5130000 		.4byte	0x13a5
 9199 1532 0D       		.uleb128 0xd
 9200 1533 01       		.uleb128 0x1
 9201 1534 51       		.byte	0x51
 9202 1535 02       		.uleb128 0x2
 9203 1536 76       		.byte	0x76
 9204 1537 00       		.sleb128 0
 9205 1538 0D       		.uleb128 0xd
 9206 1539 01       		.uleb128 0x1
 9207 153a 52       		.byte	0x52
 9208 153b 02       		.uleb128 0x2
 9209 153c 77       		.byte	0x77
 9210 153d 00       		.sleb128 0
 9211 153e 0D       		.uleb128 0xd
 9212 153f 01       		.uleb128 0x1
 9213 1540 53       		.byte	0x53
 9214 1541 04       		.uleb128 0x4
 9215 1542 91       		.byte	0x91
 9216 1543 64       		.sleb128 -28
 9217 1544 94       		.byte	0x94
 9218 1545 01       		.byte	0x1
 9219 1546 0D       		.uleb128 0xd
 9220 1547 02       		.uleb128 0x2
 9221 1548 7D       		.byte	0x7d
 9222 1549 00       		.sleb128 0
 9223 154a 02       		.uleb128 0x2
 9224 154b 78       		.byte	0x78
 9225 154c 00       		.sleb128 0
 9226 154d 00       		.byte	0
 9227 154e 00       		.byte	0
 9228 154f 13       		.uleb128 0x13
 9229 1550 00000000 		.4byte	.LASF61
 9230 1554 01       		.byte	0x1
 9231 1555 AE01     		.2byte	0x1ae
 9232 1557 00000000 		.4byte	.LFB81
 9233 155b E8000000 		.4byte	.LFE81-.LFB81
 9234 155f 01       		.uleb128 0x1
 9235 1560 9C       		.byte	0x9c
 9236 1561 71160000 		.4byte	0x1671
 9237 1565 15       		.uleb128 0x15
 9238 1566 F5030000 		.4byte	.LASF62
 9239 156a 01       		.byte	0x1
 9240 156b AE01     		.2byte	0x1ae
 9241 156d C2000000 		.4byte	0xc2
 9242 1571 100D0000 		.4byte	.LLST89
 9243 1575 14       		.uleb128 0x14
 9244 1576 706F5800 		.ascii	"poX\000"
 9245 157a 01       		.byte	0x1
ARM GAS  C:\Users\Kayas\AppData\Local\Temp\ccpxl0Kp.s 			page 175


 9246 157b AE01     		.2byte	0x1ae
 9247 157d D8000000 		.4byte	0xd8
 9248 1581 2E0D0000 		.4byte	.LLST90
 9249 1585 14       		.uleb128 0x14
 9250 1586 706F5900 		.ascii	"poY\000"
 9251 158a 01       		.byte	0x1
 9252 158b AE01     		.2byte	0x1ae
 9253 158d D8000000 		.4byte	0xd8
 9254 1591 4F0D0000 		.4byte	.LLST91
 9255 1595 15       		.uleb128 0x15
 9256 1596 52030000 		.4byte	.LASF56
 9257 159a 01       		.byte	0x1
 9258 159b AE01     		.2byte	0x1ae
 9259 159d D8000000 		.4byte	0xd8
 9260 15a1 700D0000 		.4byte	.LLST92
 9261 15a5 15       		.uleb128 0x15
 9262 15a6 C2020000 		.4byte	.LASF60
 9263 15aa 01       		.byte	0x1
 9264 15ab AE01     		.2byte	0x1ae
 9265 15ad D8000000 		.4byte	0xd8
 9266 15b1 910D0000 		.4byte	.LLST93
 9267 15b5 16       		.uleb128 0x16
 9268 15b6 6900     		.ascii	"i\000"
 9269 15b8 01       		.byte	0x1
 9270 15b9 B001     		.2byte	0x1b0
 9271 15bb 2C000000 		.4byte	0x2c
 9272 15bf BD0D0000 		.4byte	.LLST94
 9273 15c3 16       		.uleb128 0x16
 9274 15c4 6600     		.ascii	"f\000"
 9275 15c6 01       		.byte	0x1
 9276 15c7 B001     		.2byte	0x1b0
 9277 15c9 C2000000 		.4byte	0xc2
 9278 15cd DC0D0000 		.4byte	.LLST95
 9279 15d1 19       		.uleb128 0x19
 9280 15d2 20000000 		.4byte	.LASF63
 9281 15d6 01       		.byte	0x1
 9282 15d7 B101     		.2byte	0x1b1
 9283 15d9 C2000000 		.4byte	0xc2
 9284 15dd 120E0000 		.4byte	.LLST96
 9285 15e1 16       		.uleb128 0x16
 9286 15e2 6B00     		.ascii	"k\000"
 9287 15e4 01       		.byte	0x1
 9288 15e5 B101     		.2byte	0x1b1
 9289 15e7 C2000000 		.4byte	0xc2
 9290 15eb 3C0E0000 		.4byte	.LLST97
 9291 15ef 0C       		.uleb128 0xc
 9292 15f0 9C000000 		.4byte	.LVL345
 9293 15f4 63060000 		.4byte	0x663
 9294 15f8 21160000 		.4byte	0x1621
 9295 15fc 0D       		.uleb128 0xd
 9296 15fd 01       		.uleb128 0x1
 9297 15fe 50       		.byte	0x50
 9298 15ff 0A       		.uleb128 0xa
 9299 1600 78       		.byte	0x78
 9300 1601 00       		.sleb128 0
 9301 1602 33       		.byte	0x33
 9302 1603 24       		.byte	0x24
ARM GAS  C:\Users\Kayas\AppData\Local\Temp\ccpxl0Kp.s 			page 176


 9303 1604 74       		.byte	0x74
 9304 1605 00       		.sleb128 0
 9305 1606 22       		.byte	0x22
 9306 1607 7A       		.byte	0x7a
 9307 1608 00       		.sleb128 0
 9308 1609 22       		.byte	0x22
 9309 160a 0D       		.uleb128 0xd
 9310 160b 01       		.uleb128 0x1
 9311 160c 51       		.byte	0x51
 9312 160d 0A       		.uleb128 0xa
 9313 160e 77       		.byte	0x77
 9314 160f 00       		.sleb128 0
 9315 1610 78       		.byte	0x78
 9316 1611 00       		.sleb128 0
 9317 1612 33       		.byte	0x33
 9318 1613 24       		.byte	0x24
 9319 1614 1C       		.byte	0x1c
 9320 1615 79       		.byte	0x79
 9321 1616 00       		.sleb128 0
 9322 1617 22       		.byte	0x22
 9323 1618 0D       		.uleb128 0xd
 9324 1619 01       		.uleb128 0x1
 9325 161a 52       		.byte	0x52
 9326 161b 04       		.uleb128 0x4
 9327 161c 91       		.byte	0x91
 9328 161d 54       		.sleb128 -44
 9329 161e 94       		.byte	0x94
 9330 161f 02       		.byte	0x2
 9331 1620 00       		.byte	0
 9332 1621 0E       		.uleb128 0xe
 9333 1622 C6000000 		.4byte	.LVL346
 9334 1626 C0060000 		.4byte	0x6c0
 9335 162a 0D       		.uleb128 0xd
 9336 162b 01       		.uleb128 0x1
 9337 162c 50       		.byte	0x50
 9338 162d 14       		.uleb128 0x14
 9339 162e 74       		.byte	0x74
 9340 162f 00       		.sleb128 0
 9341 1630 76       		.byte	0x76
 9342 1631 00       		.sleb128 0
 9343 1632 1E       		.byte	0x1e
 9344 1633 78       		.byte	0x78
 9345 1634 00       		.sleb128 0
 9346 1635 76       		.byte	0x76
 9347 1636 00       		.sleb128 0
 9348 1637 1E       		.byte	0x1e
 9349 1638 33       		.byte	0x33
 9350 1639 24       		.byte	0x24
 9351 163a 0A       		.byte	0xa
 9352 163b FFFF     		.2byte	0xffff
 9353 163d 1A       		.byte	0x1a
 9354 163e 22       		.byte	0x22
 9355 163f 7A       		.byte	0x7a
 9356 1640 00       		.sleb128 0
 9357 1641 22       		.byte	0x22
 9358 1642 0D       		.uleb128 0xd
 9359 1643 01       		.uleb128 0x1
ARM GAS  C:\Users\Kayas\AppData\Local\Temp\ccpxl0Kp.s 			page 177


 9360 1644 51       		.byte	0x51
 9361 1645 14       		.uleb128 0x14
 9362 1646 77       		.byte	0x77
 9363 1647 00       		.sleb128 0
 9364 1648 76       		.byte	0x76
 9365 1649 00       		.sleb128 0
 9366 164a 1E       		.byte	0x1e
 9367 164b 78       		.byte	0x78
 9368 164c 00       		.sleb128 0
 9369 164d 76       		.byte	0x76
 9370 164e 00       		.sleb128 0
 9371 164f 1E       		.byte	0x1e
 9372 1650 33       		.byte	0x33
 9373 1651 24       		.byte	0x24
 9374 1652 0A       		.byte	0xa
 9375 1653 FFFF     		.2byte	0xffff
 9376 1655 1A       		.byte	0x1a
 9377 1656 1C       		.byte	0x1c
 9378 1657 79       		.byte	0x79
 9379 1658 00       		.sleb128 0
 9380 1659 22       		.byte	0x22
 9381 165a 0D       		.uleb128 0xd
 9382 165b 01       		.uleb128 0x1
 9383 165c 52       		.byte	0x52
 9384 165d 02       		.uleb128 0x2
 9385 165e 76       		.byte	0x76
 9386 165f 00       		.sleb128 0
 9387 1660 0D       		.uleb128 0xd
 9388 1661 01       		.uleb128 0x1
 9389 1662 53       		.byte	0x53
 9390 1663 02       		.uleb128 0x2
 9391 1664 76       		.byte	0x76
 9392 1665 00       		.sleb128 0
 9393 1666 0D       		.uleb128 0xd
 9394 1667 02       		.uleb128 0x2
 9395 1668 7D       		.byte	0x7d
 9396 1669 00       		.sleb128 0
 9397 166a 04       		.uleb128 0x4
 9398 166b 91       		.byte	0x91
 9399 166c 54       		.sleb128 -44
 9400 166d 94       		.byte	0x94
 9401 166e 02       		.byte	0x2
 9402 166f 00       		.byte	0
 9403 1670 00       		.byte	0
 9404 1671 13       		.uleb128 0x13
 9405 1672 08020000 		.4byte	.LASF64
 9406 1676 01       		.byte	0x1
 9407 1677 CC01     		.2byte	0x1cc
 9408 1679 00000000 		.4byte	.LFB82
 9409 167d 68000000 		.4byte	.LFE82-.LFB82
 9410 1681 01       		.uleb128 0x1
 9411 1682 9C       		.byte	0x9c
 9412 1683 FC160000 		.4byte	0x16fc
 9413 1687 15       		.uleb128 0x15
 9414 1688 54020000 		.4byte	.LASF59
 9415 168c 01       		.byte	0x1
 9416 168d CC01     		.2byte	0x1cc
ARM GAS  C:\Users\Kayas\AppData\Local\Temp\ccpxl0Kp.s 			page 178


 9417 168f A5000000 		.4byte	0xa5
 9418 1693 7B0E0000 		.4byte	.LLST98
 9419 1697 14       		.uleb128 0x14
 9420 1698 706F5800 		.ascii	"poX\000"
 9421 169c 01       		.byte	0x1
 9422 169d CC01     		.2byte	0x1cc
 9423 169f D8000000 		.4byte	0xd8
 9424 16a3 990E0000 		.4byte	.LLST99
 9425 16a7 14       		.uleb128 0x14
 9426 16a8 706F5900 		.ascii	"poY\000"
 9427 16ac 01       		.byte	0x1
 9428 16ad CC01     		.2byte	0x1cc
 9429 16af D8000000 		.4byte	0xd8
 9430 16b3 E40E0000 		.4byte	.LLST100
 9431 16b7 15       		.uleb128 0x15
 9432 16b8 52030000 		.4byte	.LASF56
 9433 16bc 01       		.byte	0x1
 9434 16bd CC01     		.2byte	0x1cc
 9435 16bf D8000000 		.4byte	0xd8
 9436 16c3 0D0F0000 		.4byte	.LLST101
 9437 16c7 15       		.uleb128 0x15
 9438 16c8 C2020000 		.4byte	.LASF60
 9439 16cc 01       		.byte	0x1
 9440 16cd CC01     		.2byte	0x1cc
 9441 16cf D8000000 		.4byte	0xd8
 9442 16d3 2E0F0000 		.4byte	.LLST102
 9443 16d7 0E       		.uleb128 0xe
 9444 16d8 40000000 		.4byte	.LVL362
 9445 16dc 4F150000 		.4byte	0x154f
 9446 16e0 0D       		.uleb128 0xd
 9447 16e1 01       		.uleb128 0x1
 9448 16e2 51       		.byte	0x51
 9449 16e3 02       		.uleb128 0x2
 9450 16e4 74       		.byte	0x74
 9451 16e5 00       		.sleb128 0
 9452 16e6 0D       		.uleb128 0xd
 9453 16e7 01       		.uleb128 0x1
 9454 16e8 52       		.byte	0x52
 9455 16e9 02       		.uleb128 0x2
 9456 16ea 77       		.byte	0x77
 9457 16eb 00       		.sleb128 0
 9458 16ec 0D       		.uleb128 0xd
 9459 16ed 01       		.uleb128 0x1
 9460 16ee 53       		.byte	0x53
 9461 16ef 02       		.uleb128 0x2
 9462 16f0 75       		.byte	0x75
 9463 16f1 00       		.sleb128 0
 9464 16f2 0D       		.uleb128 0xd
 9465 16f3 02       		.uleb128 0x2
 9466 16f4 7D       		.byte	0x7d
 9467 16f5 00       		.sleb128 0
 9468 16f6 03       		.uleb128 0x3
 9469 16f7 78       		.byte	0x78
 9470 16f8 00       		.sleb128 0
 9471 16f9 20       		.byte	0x20
 9472 16fa 00       		.byte	0
 9473 16fb 00       		.byte	0
ARM GAS  C:\Users\Kayas\AppData\Local\Temp\ccpxl0Kp.s 			page 179


 9474 16fc 13       		.uleb128 0x13
 9475 16fd A7020000 		.4byte	.LASF65
 9476 1701 01       		.byte	0x1
 9477 1702 DC01     		.2byte	0x1dc
 9478 1704 00000000 		.4byte	.LFB83
 9479 1708 48000000 		.4byte	.LFE83-.LFB83
 9480 170c 01       		.uleb128 0x1
 9481 170d 9C       		.byte	0x9c
 9482 170e F5170000 		.4byte	0x17f5
 9483 1712 14       		.uleb128 0x14
 9484 1713 584C00   		.ascii	"XL\000"
 9485 1716 01       		.byte	0x1
 9486 1717 DC01     		.2byte	0x1dc
 9487 1719 D8000000 		.4byte	0xd8
 9488 171d 5A0F0000 		.4byte	.LLST103
 9489 1721 14       		.uleb128 0x14
 9490 1722 585200   		.ascii	"XR\000"
 9491 1725 01       		.byte	0x1
 9492 1726 DC01     		.2byte	0x1dc
 9493 1728 D8000000 		.4byte	0xd8
 9494 172c 7B0F0000 		.4byte	.LLST104
 9495 1730 14       		.uleb128 0x14
 9496 1731 595500   		.ascii	"YU\000"
 9497 1734 01       		.byte	0x1
 9498 1735 DC01     		.2byte	0x1dc
 9499 1737 D8000000 		.4byte	0xd8
 9500 173b 9C0F0000 		.4byte	.LLST105
 9501 173f 14       		.uleb128 0x14
 9502 1740 594400   		.ascii	"YD\000"
 9503 1743 01       		.byte	0x1
 9504 1744 DC01     		.2byte	0x1dc
 9505 1746 D8000000 		.4byte	0xd8
 9506 174a BD0F0000 		.4byte	.LLST106
 9507 174e 1A       		.uleb128 0x1a
 9508 174f 88020000 		.4byte	.LASF66
 9509 1753 01       		.byte	0x1
 9510 1754 DC01     		.2byte	0x1dc
 9511 1756 F5170000 		.4byte	0x17f5
 9512 175a 02       		.uleb128 0x2
 9513 175b 91       		.byte	0x91
 9514 175c 00       		.sleb128 0
 9515 175d 16       		.uleb128 0x16
 9516 175e 585900   		.ascii	"XY\000"
 9517 1761 01       		.byte	0x1
 9518 1762 DE01     		.2byte	0x1de
 9519 1764 90000000 		.4byte	0x90
 9520 1768 DE0F0000 		.4byte	.LLST107
 9521 176c 16       		.uleb128 0x16
 9522 176d 6900     		.ascii	"i\000"
 9523 176f 01       		.byte	0x1
 9524 1770 DF01     		.2byte	0x1df
 9525 1772 90000000 		.4byte	0x90
 9526 1776 08100000 		.4byte	.LLST108
 9527 177a 1B       		.uleb128 0x1b
 9528 177b 28000000 		.4byte	.LBB5
 9529 177f 18000000 		.4byte	.LBE5-.LBB5
 9530 1783 C1170000 		.4byte	0x17c1
ARM GAS  C:\Users\Kayas\AppData\Local\Temp\ccpxl0Kp.s 			page 180


 9531 1787 19       		.uleb128 0x19
 9532 1788 0D000000 		.4byte	.LASF38
 9533 178c 01       		.byte	0x1
 9534 178d E901     		.2byte	0x1e9
 9535 178f C2000000 		.4byte	0xc2
 9536 1793 27100000 		.4byte	.LLST109
 9537 1797 19       		.uleb128 0x19
 9538 1798 4D020000 		.4byte	.LASF39
 9539 179c 01       		.byte	0x1
 9540 179d EA01     		.2byte	0x1ea
 9541 179f C2000000 		.4byte	0xc2
 9542 17a3 3A100000 		.4byte	.LLST110
 9543 17a7 11       		.uleb128 0x11
 9544 17a8 3A000000 		.4byte	.LVL381
 9545 17ac 95010000 		.4byte	0x195
 9546 17b0 0E       		.uleb128 0xe
 9547 17b1 40000000 		.4byte	.LVL382
 9548 17b5 95010000 		.4byte	0x195
 9549 17b9 0D       		.uleb128 0xd
 9550 17ba 01       		.uleb128 0x1
 9551 17bb 50       		.byte	0x50
 9552 17bc 02       		.uleb128 0x2
 9553 17bd 74       		.byte	0x74
 9554 17be 00       		.sleb128 0
 9555 17bf 00       		.byte	0
 9556 17c0 00       		.byte	0
 9557 17c1 11       		.uleb128 0x11
 9558 17c2 16000000 		.4byte	.LVL375
 9559 17c6 4C020000 		.4byte	0x24c
 9560 17ca 0C       		.uleb128 0xc
 9561 17cb 1E000000 		.4byte	.LVL376
 9562 17cf B8020000 		.4byte	0x2b8
 9563 17d3 E4170000 		.4byte	0x17e4
 9564 17d7 0D       		.uleb128 0xd
 9565 17d8 01       		.uleb128 0x1
 9566 17d9 50       		.byte	0x50
 9567 17da 02       		.uleb128 0x2
 9568 17db 74       		.byte	0x74
 9569 17dc 00       		.sleb128 0
 9570 17dd 0D       		.uleb128 0xd
 9571 17de 01       		.uleb128 0x1
 9572 17df 51       		.byte	0x51
 9573 17e0 02       		.uleb128 0x2
 9574 17e1 75       		.byte	0x75
 9575 17e2 00       		.sleb128 0
 9576 17e3 00       		.byte	0
 9577 17e4 0E       		.uleb128 0xe
 9578 17e5 24000000 		.4byte	.LVL377
 9579 17e9 3A010000 		.4byte	0x13a
 9580 17ed 0D       		.uleb128 0xd
 9581 17ee 01       		.uleb128 0x1
 9582 17ef 50       		.byte	0x50
 9583 17f0 02       		.uleb128 0x2
 9584 17f1 08       		.byte	0x8
 9585 17f2 2C       		.byte	0x2c
 9586 17f3 00       		.byte	0
 9587 17f4 00       		.byte	0
ARM GAS  C:\Users\Kayas\AppData\Local\Temp\ccpxl0Kp.s 			page 181


 9588 17f5 05       		.uleb128 0x5
 9589 17f6 04       		.byte	0x4
 9590 17f7 82000000 		.4byte	0x82
 9591 17fb 13       		.uleb128 0x13
 9592 17fc A0030000 		.4byte	.LASF67
 9593 1800 01       		.byte	0x1
 9594 1801 1402     		.2byte	0x214
 9595 1803 00000000 		.4byte	.LFB84
 9596 1807 60000000 		.4byte	.LFE84-.LFB84
 9597 180b 01       		.uleb128 0x1
 9598 180c 9C       		.byte	0x9c
 9599 180d 39190000 		.4byte	0x1939
 9600 1811 14       		.uleb128 0x14
 9601 1812 584C00   		.ascii	"XL\000"
 9602 1815 01       		.byte	0x1
 9603 1816 1402     		.2byte	0x214
 9604 1818 D8000000 		.4byte	0xd8
 9605 181c 4D100000 		.4byte	.LLST111
 9606 1820 14       		.uleb128 0x14
 9607 1821 595500   		.ascii	"YU\000"
 9608 1824 01       		.byte	0x1
 9609 1825 1402     		.2byte	0x214
 9610 1827 D8000000 		.4byte	0xd8
 9611 182b 6E100000 		.4byte	.LLST112
 9612 182f 14       		.uleb128 0x14
 9613 1830 594400   		.ascii	"YD\000"
 9614 1833 01       		.byte	0x1
 9615 1834 1402     		.2byte	0x214
 9616 1836 D8000000 		.4byte	0xd8
 9617 183a 8F100000 		.4byte	.LLST113
 9618 183e 15       		.uleb128 0x15
 9619 183f E5010000 		.4byte	.LASF68
 9620 1843 01       		.byte	0x1
 9621 1844 1402     		.2byte	0x214
 9622 1846 AB000000 		.4byte	0xab
 9623 184a B0100000 		.4byte	.LLST114
 9624 184e 15       		.uleb128 0x15
 9625 184f F7020000 		.4byte	.LASF69
 9626 1853 01       		.byte	0x1
 9627 1854 1402     		.2byte	0x214
 9628 1856 AB000000 		.4byte	0xab
 9629 185a D1100000 		.4byte	.LLST115
 9630 185e 16       		.uleb128 0x16
 9631 185f 585900   		.ascii	"XY\000"
 9632 1862 01       		.byte	0x1
 9633 1863 1602     		.2byte	0x216
 9634 1865 90000000 		.4byte	0x90
 9635 1869 FD100000 		.4byte	.LLST116
 9636 186d 16       		.uleb128 0x16
 9637 186e 6900     		.ascii	"i\000"
 9638 1870 01       		.byte	0x1
 9639 1871 1702     		.2byte	0x217
 9640 1873 90000000 		.4byte	0x90
 9641 1877 1C110000 		.4byte	.LLST117
 9642 187b 1B       		.uleb128 0x1b
 9643 187c 2A000000 		.4byte	.LBB6
 9644 1880 2C000000 		.4byte	.LBE6-.LBB6
ARM GAS  C:\Users\Kayas\AppData\Local\Temp\ccpxl0Kp.s 			page 182


 9645 1884 03190000 		.4byte	0x1903
 9646 1888 19       		.uleb128 0x19
 9647 1889 0D000000 		.4byte	.LASF38
 9648 188d 01       		.byte	0x1
 9649 188e 2402     		.2byte	0x224
 9650 1890 C2000000 		.4byte	0xc2
 9651 1894 3B110000 		.4byte	.LLST118
 9652 1898 19       		.uleb128 0x19
 9653 1899 4D020000 		.4byte	.LASF39
 9654 189d 01       		.byte	0x1
 9655 189e 2602     		.2byte	0x226
 9656 18a0 C2000000 		.4byte	0xc2
 9657 18a4 91110000 		.4byte	.LLST119
 9658 18a8 0C       		.uleb128 0xc
 9659 18a9 50000000 		.4byte	.LVL397
 9660 18ad 95010000 		.4byte	0x195
 9661 18b1 F2180000 		.4byte	0x18f2
 9662 18b5 0D       		.uleb128 0xd
 9663 18b6 01       		.uleb128 0x1
 9664 18b7 50       		.byte	0x50
 9665 18b8 38       		.uleb128 0x38
 9666 18b9 74       		.byte	0x74
 9667 18ba 00       		.sleb128 0
 9668 18bb 40       		.byte	0x40
 9669 18bc 4B       		.byte	0x4b
 9670 18bd 24       		.byte	0x24
 9671 18be 22       		.byte	0x22
 9672 18bf 76       		.byte	0x76
 9673 18c0 00       		.sleb128 0
 9674 18c1 40       		.byte	0x40
 9675 18c2 4B       		.byte	0x4b
 9676 18c3 24       		.byte	0x24
 9677 18c4 22       		.byte	0x22
 9678 18c5 2D       		.byte	0x2d
 9679 18c6 76       		.byte	0x76
 9680 18c7 00       		.sleb128 0
 9681 18c8 40       		.byte	0x40
 9682 18c9 4B       		.byte	0x4b
 9683 18ca 24       		.byte	0x24
 9684 18cb 22       		.byte	0x22
 9685 18cc 75       		.byte	0x75
 9686 18cd 00       		.sleb128 0
 9687 18ce 40       		.byte	0x40
 9688 18cf 4B       		.byte	0x4b
 9689 18d0 24       		.byte	0x24
 9690 18d1 22       		.byte	0x22
 9691 18d2 2D       		.byte	0x2d
 9692 18d3 21       		.byte	0x21
 9693 18d4 75       		.byte	0x75
 9694 18d5 00       		.sleb128 0
 9695 18d6 40       		.byte	0x40
 9696 18d7 4B       		.byte	0x4b
 9697 18d8 24       		.byte	0x24
 9698 18d9 22       		.byte	0x22
 9699 18da 76       		.byte	0x76
 9700 18db 00       		.sleb128 0
 9701 18dc 40       		.byte	0x40
ARM GAS  C:\Users\Kayas\AppData\Local\Temp\ccpxl0Kp.s 			page 183


 9702 18dd 4B       		.byte	0x4b
 9703 18de 24       		.byte	0x24
 9704 18df 22       		.byte	0x22
 9705 18e0 2D       		.byte	0x2d
 9706 18e1 76       		.byte	0x76
 9707 18e2 00       		.sleb128 0
 9708 18e3 40       		.byte	0x40
 9709 18e4 4B       		.byte	0x4b
 9710 18e5 24       		.byte	0x24
 9711 18e6 22       		.byte	0x22
 9712 18e7 74       		.byte	0x74
 9713 18e8 00       		.sleb128 0
 9714 18e9 40       		.byte	0x40
 9715 18ea 4B       		.byte	0x4b
 9716 18eb 24       		.byte	0x24
 9717 18ec 22       		.byte	0x22
 9718 18ed 2D       		.byte	0x2d
 9719 18ee 21       		.byte	0x21
 9720 18ef 1A       		.byte	0x1a
 9721 18f0 1F       		.byte	0x1f
 9722 18f1 00       		.byte	0
 9723 18f2 0E       		.uleb128 0xe
 9724 18f3 56000000 		.4byte	.LVL398
 9725 18f7 95010000 		.4byte	0x195
 9726 18fb 0D       		.uleb128 0xd
 9727 18fc 01       		.uleb128 0x1
 9728 18fd 50       		.byte	0x50
 9729 18fe 02       		.uleb128 0x2
 9730 18ff 09       		.byte	0x9
 9731 1900 80       		.byte	0x80
 9732 1901 00       		.byte	0
 9733 1902 00       		.byte	0
 9734 1903 11       		.uleb128 0x11
 9735 1904 18000000 		.4byte	.LVL392
 9736 1908 4C020000 		.4byte	0x24c
 9737 190c 0C       		.uleb128 0xc
 9738 190d 20000000 		.4byte	.LVL393
 9739 1911 B8020000 		.4byte	0x2b8
 9740 1915 28190000 		.4byte	0x1928
 9741 1919 0D       		.uleb128 0xd
 9742 191a 01       		.uleb128 0x1
 9743 191b 50       		.byte	0x50
 9744 191c 02       		.uleb128 0x2
 9745 191d 76       		.byte	0x76
 9746 191e 00       		.sleb128 0
 9747 191f 0D       		.uleb128 0xd
 9748 1920 01       		.uleb128 0x1
 9749 1921 51       		.byte	0x51
 9750 1922 04       		.uleb128 0x4
 9751 1923 91       		.byte	0x91
 9752 1924 64       		.sleb128 -28
 9753 1925 94       		.byte	0x94
 9754 1926 02       		.byte	0x2
 9755 1927 00       		.byte	0
 9756 1928 0E       		.uleb128 0xe
 9757 1929 26000000 		.4byte	.LVL394
 9758 192d 3A010000 		.4byte	0x13a
ARM GAS  C:\Users\Kayas\AppData\Local\Temp\ccpxl0Kp.s 			page 184


 9759 1931 0D       		.uleb128 0xd
 9760 1932 01       		.uleb128 0x1
 9761 1933 50       		.byte	0x50
 9762 1934 02       		.uleb128 0x2
 9763 1935 08       		.byte	0x8
 9764 1936 2C       		.byte	0x2c
 9765 1937 00       		.byte	0
 9766 1938 00       		.byte	0
 9767 1939 1C       		.uleb128 0x1c
 9768 193a 4A190000 		.4byte	0x194a
 9769 193e 4A190000 		.4byte	0x194a
 9770 1942 1D       		.uleb128 0x1d
 9771 1943 9E000000 		.4byte	0x9e
 9772 1947 FA04     		.2byte	0x4fa
 9773 1949 00       		.byte	0
 9774 194a 06       		.uleb128 0x6
 9775 194b 5E000000 		.4byte	0x5e
 9776 194f 1E       		.uleb128 0x1e
 9777 1950 1B000000 		.4byte	.LASF70
 9778 1954 05       		.byte	0x5
 9779 1955 AE       		.byte	0xae
 9780 1956 60190000 		.4byte	0x1960
 9781 195a 05       		.uleb128 0x5
 9782 195b 03       		.byte	0x3
 9783 195c 00000000 		.4byte	font
 9784 1960 06       		.uleb128 0x6
 9785 1961 39190000 		.4byte	0x1939
 9786 1965 1C       		.uleb128 0x1c
 9787 1966 75190000 		.4byte	0x1975
 9788 196a 75190000 		.4byte	0x1975
 9789 196e 1F       		.uleb128 0x1f
 9790 196f 9E000000 		.4byte	0x9e
 9791 1973 0B       		.byte	0xb
 9792 1974 00       		.byte	0
 9793 1975 06       		.uleb128 0x6
 9794 1976 E3000000 		.4byte	0xe3
 9795 197a 20       		.uleb128 0x20
 9796 197b BF000000 		.4byte	.LASF71
 9797 197f 06       		.byte	0x6
 9798 1980 E001     		.2byte	0x1e0
 9799 1982 86190000 		.4byte	0x1986
 9800 1986 06       		.uleb128 0x6
 9801 1987 65190000 		.4byte	0x1965
 9802 198b 1C       		.uleb128 0x1c
 9803 198c B2000000 		.4byte	0xb2
 9804 1990 A1190000 		.4byte	0x19a1
 9805 1994 1F       		.uleb128 0x1f
 9806 1995 9E000000 		.4byte	0x9e
 9807 1999 9A       		.byte	0x9a
 9808 199a 1F       		.uleb128 0x1f
 9809 199b 9E000000 		.4byte	0x9e
 9810 199f 0F       		.byte	0xf
 9811 19a0 00       		.byte	0
 9812 19a1 21       		.uleb128 0x21
 9813 19a2 96030000 		.4byte	.LASF72
 9814 19a6 05       		.byte	0x5
 9815 19a7 10       		.byte	0x10
ARM GAS  C:\Users\Kayas\AppData\Local\Temp\ccpxl0Kp.s 			page 185


 9816 19a8 B2190000 		.4byte	0x19b2
 9817 19ac 05       		.uleb128 0x5
 9818 19ad 03       		.byte	0x3
 9819 19ae 00000000 		.4byte	Font16x16
 9820 19b2 06       		.uleb128 0x6
 9821 19b3 8B190000 		.4byte	0x198b
 9822 19b7 21       		.uleb128 0x21
 9823 19b8 75020000 		.4byte	.LASF73
 9824 19bc 01       		.byte	0x1
 9825 19bd 0D       		.byte	0xd
 9826 19be D8000000 		.4byte	0xd8
 9827 19c2 05       		.uleb128 0x5
 9828 19c3 03       		.byte	0x3
 9829 19c4 00000000 		.4byte	MAX_X
 9830 19c8 21       		.uleb128 0x21
 9831 19c9 2D040000 		.4byte	.LASF74
 9832 19cd 01       		.byte	0x1
 9833 19ce 0D       		.byte	0xd
 9834 19cf D8000000 		.4byte	0xd8
 9835 19d3 05       		.uleb128 0x5
 9836 19d4 03       		.byte	0x3
 9837 19d5 00000000 		.4byte	MAX_Y
 9838 19d9 22       		.uleb128 0x22
 9839 19da 3D030000 		.4byte	.LASF75
 9840 19de 3D030000 		.4byte	.LASF75
 9841 19e2 07       		.byte	0x7
 9842 19e3 33       		.byte	0x33
 9843 19e4 22       		.uleb128 0x22
 9844 19e5 B6010000 		.4byte	.LASF76
 9845 19e9 B6010000 		.4byte	.LASF76
 9846 19ed 08       		.byte	0x8
 9847 19ee 5E       		.byte	0x5e
 9848 19ef 22       		.uleb128 0x22
 9849 19f0 8F020000 		.4byte	.LASF77
 9850 19f4 8F020000 		.4byte	.LASF77
 9851 19f8 09       		.byte	0x9
 9852 19f9 DA       		.byte	0xda
 9853 19fa 22       		.uleb128 0x22
 9854 19fb DB010000 		.4byte	.LASF78
 9855 19ff DB010000 		.4byte	.LASF78
 9856 1a03 0A       		.byte	0xa
 9857 1a04 33       		.byte	0x33
 9858 1a05 22       		.uleb128 0x22
 9859 1a06 33040000 		.4byte	.LASF79
 9860 1a0a 33040000 		.4byte	.LASF79
 9861 1a0e 09       		.byte	0x9
 9862 1a0f D9       		.byte	0xd9
 9863 1a10 00       		.byte	0
 9864              		.section	.debug_abbrev,"",%progbits
 9865              	.Ldebug_abbrev0:
 9866 0000 01       		.uleb128 0x1
 9867 0001 11       		.uleb128 0x11
 9868 0002 01       		.byte	0x1
 9869 0003 25       		.uleb128 0x25
 9870 0004 0E       		.uleb128 0xe
 9871 0005 13       		.uleb128 0x13
 9872 0006 0B       		.uleb128 0xb
ARM GAS  C:\Users\Kayas\AppData\Local\Temp\ccpxl0Kp.s 			page 186


 9873 0007 03       		.uleb128 0x3
 9874 0008 0E       		.uleb128 0xe
 9875 0009 1B       		.uleb128 0x1b
 9876 000a 0E       		.uleb128 0xe
 9877 000b 55       		.uleb128 0x55
 9878 000c 17       		.uleb128 0x17
 9879 000d 11       		.uleb128 0x11
 9880 000e 01       		.uleb128 0x1
 9881 000f 10       		.uleb128 0x10
 9882 0010 17       		.uleb128 0x17
 9883 0011 00       		.byte	0
 9884 0012 00       		.byte	0
 9885 0013 02       		.uleb128 0x2
 9886 0014 24       		.uleb128 0x24
 9887 0015 00       		.byte	0
 9888 0016 0B       		.uleb128 0xb
 9889 0017 0B       		.uleb128 0xb
 9890 0018 3E       		.uleb128 0x3e
 9891 0019 0B       		.uleb128 0xb
 9892 001a 03       		.uleb128 0x3
 9893 001b 0E       		.uleb128 0xe
 9894 001c 00       		.byte	0
 9895 001d 00       		.byte	0
 9896 001e 03       		.uleb128 0x3
 9897 001f 24       		.uleb128 0x24
 9898 0020 00       		.byte	0
 9899 0021 0B       		.uleb128 0xb
 9900 0022 0B       		.uleb128 0xb
 9901 0023 3E       		.uleb128 0x3e
 9902 0024 0B       		.uleb128 0xb
 9903 0025 03       		.uleb128 0x3
 9904 0026 08       		.uleb128 0x8
 9905 0027 00       		.byte	0
 9906 0028 00       		.byte	0
 9907 0029 04       		.uleb128 0x4
 9908 002a 16       		.uleb128 0x16
 9909 002b 00       		.byte	0
 9910 002c 03       		.uleb128 0x3
 9911 002d 0E       		.uleb128 0xe
 9912 002e 3A       		.uleb128 0x3a
 9913 002f 0B       		.uleb128 0xb
 9914 0030 3B       		.uleb128 0x3b
 9915 0031 0B       		.uleb128 0xb
 9916 0032 49       		.uleb128 0x49
 9917 0033 13       		.uleb128 0x13
 9918 0034 00       		.byte	0
 9919 0035 00       		.byte	0
 9920 0036 05       		.uleb128 0x5
 9921 0037 0F       		.uleb128 0xf
 9922 0038 00       		.byte	0
 9923 0039 0B       		.uleb128 0xb
 9924 003a 0B       		.uleb128 0xb
 9925 003b 49       		.uleb128 0x49
 9926 003c 13       		.uleb128 0x13
 9927 003d 00       		.byte	0
 9928 003e 00       		.byte	0
 9929 003f 06       		.uleb128 0x6
ARM GAS  C:\Users\Kayas\AppData\Local\Temp\ccpxl0Kp.s 			page 187


 9930 0040 26       		.uleb128 0x26
 9931 0041 00       		.byte	0
 9932 0042 49       		.uleb128 0x49
 9933 0043 13       		.uleb128 0x13
 9934 0044 00       		.byte	0
 9935 0045 00       		.byte	0
 9936 0046 07       		.uleb128 0x7
 9937 0047 16       		.uleb128 0x16
 9938 0048 00       		.byte	0
 9939 0049 03       		.uleb128 0x3
 9940 004a 0E       		.uleb128 0xe
 9941 004b 3A       		.uleb128 0x3a
 9942 004c 0B       		.uleb128 0xb
 9943 004d 3B       		.uleb128 0x3b
 9944 004e 05       		.uleb128 0x5
 9945 004f 49       		.uleb128 0x49
 9946 0050 13       		.uleb128 0x13
 9947 0051 00       		.byte	0
 9948 0052 00       		.byte	0
 9949 0053 08       		.uleb128 0x8
 9950 0054 2E       		.uleb128 0x2e
 9951 0055 01       		.byte	0x1
 9952 0056 3F       		.uleb128 0x3f
 9953 0057 19       		.uleb128 0x19
 9954 0058 03       		.uleb128 0x3
 9955 0059 0E       		.uleb128 0xe
 9956 005a 3A       		.uleb128 0x3a
 9957 005b 0B       		.uleb128 0xb
 9958 005c 3B       		.uleb128 0x3b
 9959 005d 0B       		.uleb128 0xb
 9960 005e 27       		.uleb128 0x27
 9961 005f 19       		.uleb128 0x19
 9962 0060 49       		.uleb128 0x49
 9963 0061 13       		.uleb128 0x13
 9964 0062 11       		.uleb128 0x11
 9965 0063 01       		.uleb128 0x1
 9966 0064 12       		.uleb128 0x12
 9967 0065 06       		.uleb128 0x6
 9968 0066 40       		.uleb128 0x40
 9969 0067 18       		.uleb128 0x18
 9970 0068 9742     		.uleb128 0x2117
 9971 006a 19       		.uleb128 0x19
 9972 006b 01       		.uleb128 0x1
 9973 006c 13       		.uleb128 0x13
 9974 006d 00       		.byte	0
 9975 006e 00       		.byte	0
 9976 006f 09       		.uleb128 0x9
 9977 0070 05       		.uleb128 0x5
 9978 0071 00       		.byte	0
 9979 0072 03       		.uleb128 0x3
 9980 0073 08       		.uleb128 0x8
 9981 0074 3A       		.uleb128 0x3a
 9982 0075 0B       		.uleb128 0xb
 9983 0076 3B       		.uleb128 0x3b
 9984 0077 0B       		.uleb128 0xb
 9985 0078 49       		.uleb128 0x49
 9986 0079 13       		.uleb128 0x13
ARM GAS  C:\Users\Kayas\AppData\Local\Temp\ccpxl0Kp.s 			page 188


 9987 007a 02       		.uleb128 0x2
 9988 007b 17       		.uleb128 0x17
 9989 007c 00       		.byte	0
 9990 007d 00       		.byte	0
 9991 007e 0A       		.uleb128 0xa
 9992 007f 05       		.uleb128 0x5
 9993 0080 00       		.byte	0
 9994 0081 03       		.uleb128 0x3
 9995 0082 08       		.uleb128 0x8
 9996 0083 3A       		.uleb128 0x3a
 9997 0084 0B       		.uleb128 0xb
 9998 0085 3B       		.uleb128 0x3b
 9999 0086 0B       		.uleb128 0xb
 10000 0087 49       		.uleb128 0x49
 10001 0088 13       		.uleb128 0x13
 10002 0089 02       		.uleb128 0x2
 10003 008a 18       		.uleb128 0x18
 10004 008b 00       		.byte	0
 10005 008c 00       		.byte	0
 10006 008d 0B       		.uleb128 0xb
 10007 008e 2E       		.uleb128 0x2e
 10008 008f 01       		.byte	0x1
 10009 0090 3F       		.uleb128 0x3f
 10010 0091 19       		.uleb128 0x19
 10011 0092 03       		.uleb128 0x3
 10012 0093 0E       		.uleb128 0xe
 10013 0094 3A       		.uleb128 0x3a
 10014 0095 0B       		.uleb128 0xb
 10015 0096 3B       		.uleb128 0x3b
 10016 0097 0B       		.uleb128 0xb
 10017 0098 27       		.uleb128 0x27
 10018 0099 19       		.uleb128 0x19
 10019 009a 11       		.uleb128 0x11
 10020 009b 01       		.uleb128 0x1
 10021 009c 12       		.uleb128 0x12
 10022 009d 06       		.uleb128 0x6
 10023 009e 40       		.uleb128 0x40
 10024 009f 18       		.uleb128 0x18
 10025 00a0 9742     		.uleb128 0x2117
 10026 00a2 19       		.uleb128 0x19
 10027 00a3 01       		.uleb128 0x1
 10028 00a4 13       		.uleb128 0x13
 10029 00a5 00       		.byte	0
 10030 00a6 00       		.byte	0
 10031 00a7 0C       		.uleb128 0xc
 10032 00a8 898201   		.uleb128 0x4109
 10033 00ab 01       		.byte	0x1
 10034 00ac 11       		.uleb128 0x11
 10035 00ad 01       		.uleb128 0x1
 10036 00ae 31       		.uleb128 0x31
 10037 00af 13       		.uleb128 0x13
 10038 00b0 01       		.uleb128 0x1
 10039 00b1 13       		.uleb128 0x13
 10040 00b2 00       		.byte	0
 10041 00b3 00       		.byte	0
 10042 00b4 0D       		.uleb128 0xd
 10043 00b5 8A8201   		.uleb128 0x410a
ARM GAS  C:\Users\Kayas\AppData\Local\Temp\ccpxl0Kp.s 			page 189


 10044 00b8 00       		.byte	0
 10045 00b9 02       		.uleb128 0x2
 10046 00ba 18       		.uleb128 0x18
 10047 00bb 9142     		.uleb128 0x2111
 10048 00bd 18       		.uleb128 0x18
 10049 00be 00       		.byte	0
 10050 00bf 00       		.byte	0
 10051 00c0 0E       		.uleb128 0xe
 10052 00c1 898201   		.uleb128 0x4109
 10053 00c4 01       		.byte	0x1
 10054 00c5 11       		.uleb128 0x11
 10055 00c6 01       		.uleb128 0x1
 10056 00c7 31       		.uleb128 0x31
 10057 00c8 13       		.uleb128 0x13
 10058 00c9 00       		.byte	0
 10059 00ca 00       		.byte	0
 10060 00cb 0F       		.uleb128 0xf
 10061 00cc 05       		.uleb128 0x5
 10062 00cd 00       		.byte	0
 10063 00ce 03       		.uleb128 0x3
 10064 00cf 0E       		.uleb128 0xe
 10065 00d0 3A       		.uleb128 0x3a
 10066 00d1 0B       		.uleb128 0xb
 10067 00d2 3B       		.uleb128 0x3b
 10068 00d3 0B       		.uleb128 0xb
 10069 00d4 49       		.uleb128 0x49
 10070 00d5 13       		.uleb128 0x13
 10071 00d6 02       		.uleb128 0x2
 10072 00d7 17       		.uleb128 0x17
 10073 00d8 00       		.byte	0
 10074 00d9 00       		.byte	0
 10075 00da 10       		.uleb128 0x10
 10076 00db 34       		.uleb128 0x34
 10077 00dc 00       		.byte	0
 10078 00dd 03       		.uleb128 0x3
 10079 00de 0E       		.uleb128 0xe
 10080 00df 3A       		.uleb128 0x3a
 10081 00e0 0B       		.uleb128 0xb
 10082 00e1 3B       		.uleb128 0x3b
 10083 00e2 0B       		.uleb128 0xb
 10084 00e3 49       		.uleb128 0x49
 10085 00e4 13       		.uleb128 0x13
 10086 00e5 02       		.uleb128 0x2
 10087 00e6 17       		.uleb128 0x17
 10088 00e7 00       		.byte	0
 10089 00e8 00       		.byte	0
 10090 00e9 11       		.uleb128 0x11
 10091 00ea 898201   		.uleb128 0x4109
 10092 00ed 00       		.byte	0
 10093 00ee 11       		.uleb128 0x11
 10094 00ef 01       		.uleb128 0x1
 10095 00f0 31       		.uleb128 0x31
 10096 00f1 13       		.uleb128 0x13
 10097 00f2 00       		.byte	0
 10098 00f3 00       		.byte	0
 10099 00f4 12       		.uleb128 0x12
 10100 00f5 34       		.uleb128 0x34
ARM GAS  C:\Users\Kayas\AppData\Local\Temp\ccpxl0Kp.s 			page 190


 10101 00f6 00       		.byte	0
 10102 00f7 03       		.uleb128 0x3
 10103 00f8 08       		.uleb128 0x8
 10104 00f9 3A       		.uleb128 0x3a
 10105 00fa 0B       		.uleb128 0xb
 10106 00fb 3B       		.uleb128 0x3b
 10107 00fc 0B       		.uleb128 0xb
 10108 00fd 49       		.uleb128 0x49
 10109 00fe 13       		.uleb128 0x13
 10110 00ff 02       		.uleb128 0x2
 10111 0100 17       		.uleb128 0x17
 10112 0101 00       		.byte	0
 10113 0102 00       		.byte	0
 10114 0103 13       		.uleb128 0x13
 10115 0104 2E       		.uleb128 0x2e
 10116 0105 01       		.byte	0x1
 10117 0106 3F       		.uleb128 0x3f
 10118 0107 19       		.uleb128 0x19
 10119 0108 03       		.uleb128 0x3
 10120 0109 0E       		.uleb128 0xe
 10121 010a 3A       		.uleb128 0x3a
 10122 010b 0B       		.uleb128 0xb
 10123 010c 3B       		.uleb128 0x3b
 10124 010d 05       		.uleb128 0x5
 10125 010e 27       		.uleb128 0x27
 10126 010f 19       		.uleb128 0x19
 10127 0110 11       		.uleb128 0x11
 10128 0111 01       		.uleb128 0x1
 10129 0112 12       		.uleb128 0x12
 10130 0113 06       		.uleb128 0x6
 10131 0114 40       		.uleb128 0x40
 10132 0115 18       		.uleb128 0x18
 10133 0116 9742     		.uleb128 0x2117
 10134 0118 19       		.uleb128 0x19
 10135 0119 01       		.uleb128 0x1
 10136 011a 13       		.uleb128 0x13
 10137 011b 00       		.byte	0
 10138 011c 00       		.byte	0
 10139 011d 14       		.uleb128 0x14
 10140 011e 05       		.uleb128 0x5
 10141 011f 00       		.byte	0
 10142 0120 03       		.uleb128 0x3
 10143 0121 08       		.uleb128 0x8
 10144 0122 3A       		.uleb128 0x3a
 10145 0123 0B       		.uleb128 0xb
 10146 0124 3B       		.uleb128 0x3b
 10147 0125 05       		.uleb128 0x5
 10148 0126 49       		.uleb128 0x49
 10149 0127 13       		.uleb128 0x13
 10150 0128 02       		.uleb128 0x2
 10151 0129 17       		.uleb128 0x17
 10152 012a 00       		.byte	0
 10153 012b 00       		.byte	0
 10154 012c 15       		.uleb128 0x15
 10155 012d 05       		.uleb128 0x5
 10156 012e 00       		.byte	0
 10157 012f 03       		.uleb128 0x3
ARM GAS  C:\Users\Kayas\AppData\Local\Temp\ccpxl0Kp.s 			page 191


 10158 0130 0E       		.uleb128 0xe
 10159 0131 3A       		.uleb128 0x3a
 10160 0132 0B       		.uleb128 0xb
 10161 0133 3B       		.uleb128 0x3b
 10162 0134 05       		.uleb128 0x5
 10163 0135 49       		.uleb128 0x49
 10164 0136 13       		.uleb128 0x13
 10165 0137 02       		.uleb128 0x2
 10166 0138 17       		.uleb128 0x17
 10167 0139 00       		.byte	0
 10168 013a 00       		.byte	0
 10169 013b 16       		.uleb128 0x16
 10170 013c 34       		.uleb128 0x34
 10171 013d 00       		.byte	0
 10172 013e 03       		.uleb128 0x3
 10173 013f 08       		.uleb128 0x8
 10174 0140 3A       		.uleb128 0x3a
 10175 0141 0B       		.uleb128 0xb
 10176 0142 3B       		.uleb128 0x3b
 10177 0143 05       		.uleb128 0x5
 10178 0144 49       		.uleb128 0x49
 10179 0145 13       		.uleb128 0x13
 10180 0146 02       		.uleb128 0x2
 10181 0147 17       		.uleb128 0x17
 10182 0148 00       		.byte	0
 10183 0149 00       		.byte	0
 10184 014a 17       		.uleb128 0x17
 10185 014b 34       		.uleb128 0x34
 10186 014c 00       		.byte	0
 10187 014d 03       		.uleb128 0x3
 10188 014e 08       		.uleb128 0x8
 10189 014f 3A       		.uleb128 0x3a
 10190 0150 0B       		.uleb128 0xb
 10191 0151 3B       		.uleb128 0x3b
 10192 0152 05       		.uleb128 0x5
 10193 0153 49       		.uleb128 0x49
 10194 0154 13       		.uleb128 0x13
 10195 0155 02       		.uleb128 0x2
 10196 0156 18       		.uleb128 0x18
 10197 0157 00       		.byte	0
 10198 0158 00       		.byte	0
 10199 0159 18       		.uleb128 0x18
 10200 015a 0B       		.uleb128 0xb
 10201 015b 01       		.byte	0x1
 10202 015c 11       		.uleb128 0x11
 10203 015d 01       		.uleb128 0x1
 10204 015e 12       		.uleb128 0x12
 10205 015f 06       		.uleb128 0x6
 10206 0160 00       		.byte	0
 10207 0161 00       		.byte	0
 10208 0162 19       		.uleb128 0x19
 10209 0163 34       		.uleb128 0x34
 10210 0164 00       		.byte	0
 10211 0165 03       		.uleb128 0x3
 10212 0166 0E       		.uleb128 0xe
 10213 0167 3A       		.uleb128 0x3a
 10214 0168 0B       		.uleb128 0xb
ARM GAS  C:\Users\Kayas\AppData\Local\Temp\ccpxl0Kp.s 			page 192


 10215 0169 3B       		.uleb128 0x3b
 10216 016a 05       		.uleb128 0x5
 10217 016b 49       		.uleb128 0x49
 10218 016c 13       		.uleb128 0x13
 10219 016d 02       		.uleb128 0x2
 10220 016e 17       		.uleb128 0x17
 10221 016f 00       		.byte	0
 10222 0170 00       		.byte	0
 10223 0171 1A       		.uleb128 0x1a
 10224 0172 05       		.uleb128 0x5
 10225 0173 00       		.byte	0
 10226 0174 03       		.uleb128 0x3
 10227 0175 0E       		.uleb128 0xe
 10228 0176 3A       		.uleb128 0x3a
 10229 0177 0B       		.uleb128 0xb
 10230 0178 3B       		.uleb128 0x3b
 10231 0179 05       		.uleb128 0x5
 10232 017a 49       		.uleb128 0x49
 10233 017b 13       		.uleb128 0x13
 10234 017c 02       		.uleb128 0x2
 10235 017d 18       		.uleb128 0x18
 10236 017e 00       		.byte	0
 10237 017f 00       		.byte	0
 10238 0180 1B       		.uleb128 0x1b
 10239 0181 0B       		.uleb128 0xb
 10240 0182 01       		.byte	0x1
 10241 0183 11       		.uleb128 0x11
 10242 0184 01       		.uleb128 0x1
 10243 0185 12       		.uleb128 0x12
 10244 0186 06       		.uleb128 0x6
 10245 0187 01       		.uleb128 0x1
 10246 0188 13       		.uleb128 0x13
 10247 0189 00       		.byte	0
 10248 018a 00       		.byte	0
 10249 018b 1C       		.uleb128 0x1c
 10250 018c 01       		.uleb128 0x1
 10251 018d 01       		.byte	0x1
 10252 018e 49       		.uleb128 0x49
 10253 018f 13       		.uleb128 0x13
 10254 0190 01       		.uleb128 0x1
 10255 0191 13       		.uleb128 0x13
 10256 0192 00       		.byte	0
 10257 0193 00       		.byte	0
 10258 0194 1D       		.uleb128 0x1d
 10259 0195 21       		.uleb128 0x21
 10260 0196 00       		.byte	0
 10261 0197 49       		.uleb128 0x49
 10262 0198 13       		.uleb128 0x13
 10263 0199 2F       		.uleb128 0x2f
 10264 019a 05       		.uleb128 0x5
 10265 019b 00       		.byte	0
 10266 019c 00       		.byte	0
 10267 019d 1E       		.uleb128 0x1e
 10268 019e 34       		.uleb128 0x34
 10269 019f 00       		.byte	0
 10270 01a0 03       		.uleb128 0x3
 10271 01a1 0E       		.uleb128 0xe
ARM GAS  C:\Users\Kayas\AppData\Local\Temp\ccpxl0Kp.s 			page 193


 10272 01a2 3A       		.uleb128 0x3a
 10273 01a3 0B       		.uleb128 0xb
 10274 01a4 3B       		.uleb128 0x3b
 10275 01a5 0B       		.uleb128 0xb
 10276 01a6 49       		.uleb128 0x49
 10277 01a7 13       		.uleb128 0x13
 10278 01a8 02       		.uleb128 0x2
 10279 01a9 18       		.uleb128 0x18
 10280 01aa 00       		.byte	0
 10281 01ab 00       		.byte	0
 10282 01ac 1F       		.uleb128 0x1f
 10283 01ad 21       		.uleb128 0x21
 10284 01ae 00       		.byte	0
 10285 01af 49       		.uleb128 0x49
 10286 01b0 13       		.uleb128 0x13
 10287 01b1 2F       		.uleb128 0x2f
 10288 01b2 0B       		.uleb128 0xb
 10289 01b3 00       		.byte	0
 10290 01b4 00       		.byte	0
 10291 01b5 20       		.uleb128 0x20
 10292 01b6 34       		.uleb128 0x34
 10293 01b7 00       		.byte	0
 10294 01b8 03       		.uleb128 0x3
 10295 01b9 0E       		.uleb128 0xe
 10296 01ba 3A       		.uleb128 0x3a
 10297 01bb 0B       		.uleb128 0xb
 10298 01bc 3B       		.uleb128 0x3b
 10299 01bd 05       		.uleb128 0x5
 10300 01be 49       		.uleb128 0x49
 10301 01bf 13       		.uleb128 0x13
 10302 01c0 3F       		.uleb128 0x3f
 10303 01c1 19       		.uleb128 0x19
 10304 01c2 3C       		.uleb128 0x3c
 10305 01c3 19       		.uleb128 0x19
 10306 01c4 00       		.byte	0
 10307 01c5 00       		.byte	0
 10308 01c6 21       		.uleb128 0x21
 10309 01c7 34       		.uleb128 0x34
 10310 01c8 00       		.byte	0
 10311 01c9 03       		.uleb128 0x3
 10312 01ca 0E       		.uleb128 0xe
 10313 01cb 3A       		.uleb128 0x3a
 10314 01cc 0B       		.uleb128 0xb
 10315 01cd 3B       		.uleb128 0x3b
 10316 01ce 0B       		.uleb128 0xb
 10317 01cf 49       		.uleb128 0x49
 10318 01d0 13       		.uleb128 0x13
 10319 01d1 3F       		.uleb128 0x3f
 10320 01d2 19       		.uleb128 0x19
 10321 01d3 02       		.uleb128 0x2
 10322 01d4 18       		.uleb128 0x18
 10323 01d5 00       		.byte	0
 10324 01d6 00       		.byte	0
 10325 01d7 22       		.uleb128 0x22
 10326 01d8 2E       		.uleb128 0x2e
 10327 01d9 00       		.byte	0
 10328 01da 3F       		.uleb128 0x3f
ARM GAS  C:\Users\Kayas\AppData\Local\Temp\ccpxl0Kp.s 			page 194


 10329 01db 19       		.uleb128 0x19
 10330 01dc 3C       		.uleb128 0x3c
 10331 01dd 19       		.uleb128 0x19
 10332 01de 6E       		.uleb128 0x6e
 10333 01df 0E       		.uleb128 0xe
 10334 01e0 03       		.uleb128 0x3
 10335 01e1 0E       		.uleb128 0xe
 10336 01e2 3A       		.uleb128 0x3a
 10337 01e3 0B       		.uleb128 0xb
 10338 01e4 3B       		.uleb128 0x3b
 10339 01e5 0B       		.uleb128 0xb
 10340 01e6 00       		.byte	0
 10341 01e7 00       		.byte	0
 10342 01e8 00       		.byte	0
 10343              		.section	.debug_loc,"",%progbits
 10344              	.Ldebug_loc0:
 10345              	.LLST0:
 10346 0000 00000000 		.4byte	.LVL0
 10347 0004 0A000000 		.4byte	.LVL1
 10348 0008 0100     		.2byte	0x1
 10349 000a 50       		.byte	0x50
 10350 000b 0A000000 		.4byte	.LVL1
 10351 000f 0C000000 		.4byte	.LVL2
 10352 0013 0400     		.2byte	0x4
 10353 0015 F3       		.byte	0xf3
 10354 0016 01       		.uleb128 0x1
 10355 0017 50       		.byte	0x50
 10356 0018 9F       		.byte	0x9f
 10357 0019 0C000000 		.4byte	.LVL2
 10358 001d 0E000000 		.4byte	.LVL3
 10359 0021 0100     		.2byte	0x1
 10360 0023 50       		.byte	0x50
 10361 0024 0E000000 		.4byte	.LVL3
 10362 0028 10000000 		.4byte	.LFE59
 10363 002c 0400     		.2byte	0x4
 10364 002e F3       		.byte	0xf3
 10365 002f 01       		.uleb128 0x1
 10366 0030 50       		.byte	0x50
 10367 0031 9F       		.byte	0x9f
 10368 0032 00000000 		.4byte	0
 10369 0036 00000000 		.4byte	0
 10370              	.LLST1:
 10371 003a 00000000 		.4byte	.LVL4
 10372 003e 06000000 		.4byte	.LVL5
 10373 0042 0100     		.2byte	0x1
 10374 0044 50       		.byte	0x50
 10375 0045 06000000 		.4byte	.LVL5
 10376 0049 18000000 		.4byte	.LFE60
 10377 004d 0400     		.2byte	0x4
 10378 004f F3       		.byte	0xf3
 10379 0050 01       		.uleb128 0x1
 10380 0051 50       		.byte	0x50
 10381 0052 9F       		.byte	0x9f
 10382 0053 00000000 		.4byte	0
 10383 0057 00000000 		.4byte	0
 10384              	.LLST2:
 10385 005b 00000000 		.4byte	.LVL9
ARM GAS  C:\Users\Kayas\AppData\Local\Temp\ccpxl0Kp.s 			page 195


 10386 005f 06000000 		.4byte	.LVL10
 10387 0063 0100     		.2byte	0x1
 10388 0065 50       		.byte	0x50
 10389 0066 06000000 		.4byte	.LVL10
 10390 006a 18000000 		.4byte	.LFE61
 10391 006e 0400     		.2byte	0x4
 10392 0070 F3       		.byte	0xf3
 10393 0071 01       		.uleb128 0x1
 10394 0072 50       		.byte	0x50
 10395 0073 9F       		.byte	0x9f
 10396 0074 00000000 		.4byte	0
 10397 0078 00000000 		.4byte	0
 10398              	.LLST3:
 10399 007c 00000000 		.4byte	.LVL14
 10400 0080 06000000 		.4byte	.LVL15
 10401 0084 0100     		.2byte	0x1
 10402 0086 50       		.byte	0x50
 10403 0087 06000000 		.4byte	.LVL15
 10404 008b 14000000 		.4byte	.LFE62
 10405 008f 0400     		.2byte	0x4
 10406 0091 F3       		.byte	0xf3
 10407 0092 01       		.uleb128 0x1
 10408 0093 50       		.byte	0x50
 10409 0094 9F       		.byte	0x9f
 10410 0095 00000000 		.4byte	0
 10411 0099 00000000 		.4byte	0
 10412              	.LLST4:
 10413 009d 06000000 		.4byte	.LVL15
 10414 00a1 0B000000 		.4byte	.LVL17-1
 10415 00a5 0100     		.2byte	0x1
 10416 00a7 50       		.byte	0x50
 10417 00a8 00000000 		.4byte	0
 10418 00ac 00000000 		.4byte	0
 10419              	.LLST5:
 10420 00b0 08000000 		.4byte	.LVL16
 10421 00b4 12000000 		.4byte	.LVL19
 10422 00b8 0100     		.2byte	0x1
 10423 00ba 54       		.byte	0x54
 10424 00bb 00000000 		.4byte	0
 10425 00bf 00000000 		.4byte	0
 10426              	.LLST6:
 10427 00c3 00000000 		.4byte	.LVL20
 10428 00c7 08000000 		.4byte	.LVL21
 10429 00cb 0100     		.2byte	0x1
 10430 00cd 50       		.byte	0x50
 10431 00ce 08000000 		.4byte	.LVL21
 10432 00d2 1A000000 		.4byte	.LFE64
 10433 00d6 0400     		.2byte	0x4
 10434 00d8 F3       		.byte	0xf3
 10435 00d9 01       		.uleb128 0x1
 10436 00da 50       		.byte	0x50
 10437 00db 9F       		.byte	0x9f
 10438 00dc 00000000 		.4byte	0
 10439 00e0 00000000 		.4byte	0
 10440              	.LLST7:
 10441 00e4 00000000 		.4byte	.LVL20
 10442 00e8 0B000000 		.4byte	.LVL22-1
ARM GAS  C:\Users\Kayas\AppData\Local\Temp\ccpxl0Kp.s 			page 196


 10443 00ec 0100     		.2byte	0x1
 10444 00ee 51       		.byte	0x51
 10445 00ef 0B000000 		.4byte	.LVL22-1
 10446 00f3 1A000000 		.4byte	.LFE64
 10447 00f7 0400     		.2byte	0x4
 10448 00f9 F3       		.byte	0xf3
 10449 00fa 01       		.uleb128 0x1
 10450 00fb 51       		.byte	0x51
 10451 00fc 9F       		.byte	0x9f
 10452 00fd 00000000 		.4byte	0
 10453 0101 00000000 		.4byte	0
 10454              	.LLST8:
 10455 0105 00000000 		.4byte	.LVL25
 10456 0109 08000000 		.4byte	.LVL26
 10457 010d 0100     		.2byte	0x1
 10458 010f 50       		.byte	0x50
 10459 0110 08000000 		.4byte	.LVL26
 10460 0114 1A000000 		.4byte	.LFE65
 10461 0118 0400     		.2byte	0x4
 10462 011a F3       		.byte	0xf3
 10463 011b 01       		.uleb128 0x1
 10464 011c 50       		.byte	0x50
 10465 011d 9F       		.byte	0x9f
 10466 011e 00000000 		.4byte	0
 10467 0122 00000000 		.4byte	0
 10468              	.LLST9:
 10469 0126 00000000 		.4byte	.LVL25
 10470 012a 0B000000 		.4byte	.LVL27-1
 10471 012e 0100     		.2byte	0x1
 10472 0130 51       		.byte	0x51
 10473 0131 0B000000 		.4byte	.LVL27-1
 10474 0135 1A000000 		.4byte	.LFE65
 10475 0139 0400     		.2byte	0x4
 10476 013b F3       		.byte	0xf3
 10477 013c 01       		.uleb128 0x1
 10478 013d 51       		.byte	0x51
 10479 013e 9F       		.byte	0x9f
 10480 013f 00000000 		.4byte	0
 10481 0143 00000000 		.4byte	0
 10482              	.LLST10:
 10483 0147 02000000 		.4byte	.LVL30
 10484 014b 1E000000 		.4byte	.LVL34
 10485 014f 0200     		.2byte	0x2
 10486 0151 30       		.byte	0x30
 10487 0152 9F       		.byte	0x9f
 10488 0153 1E000000 		.4byte	.LVL34
 10489 0157 38000000 		.4byte	.LVL39
 10490 015b 0100     		.2byte	0x1
 10491 015d 54       		.byte	0x54
 10492 015e 3A000000 		.4byte	.LVL40
 10493 0162 40000000 		.4byte	.LVL41
 10494 0166 0100     		.2byte	0x1
 10495 0168 54       		.byte	0x54
 10496 0169 00000000 		.4byte	0
 10497 016d 00000000 		.4byte	0
 10498              	.LLST11:
 10499 0171 00000000 		.4byte	.LVL42
ARM GAS  C:\Users\Kayas\AppData\Local\Temp\ccpxl0Kp.s 			page 197


 10500 0175 1E000000 		.4byte	.LVL47
 10501 0179 0100     		.2byte	0x1
 10502 017b 50       		.byte	0x50
 10503 017c 1E000000 		.4byte	.LVL47
 10504 0180 3B000000 		.4byte	.LVL54-1
 10505 0184 0100     		.2byte	0x1
 10506 0186 50       		.byte	0x50
 10507 0187 3E000000 		.4byte	.LVL55
 10508 018b B4000000 		.4byte	.LFE67
 10509 018f 0200     		.2byte	0x2
 10510 0191 91       		.byte	0x91
 10511 0192 64       		.sleb128 -28
 10512 0193 00000000 		.4byte	0
 10513 0197 00000000 		.4byte	0
 10514              	.LLST12:
 10515 019b 00000000 		.4byte	.LVL42
 10516 019f 20000000 		.4byte	.LVL48
 10517 01a3 0100     		.2byte	0x1
 10518 01a5 51       		.byte	0x51
 10519 01a6 20000000 		.4byte	.LVL48
 10520 01aa 74000000 		.4byte	.LVL63
 10521 01ae 0100     		.2byte	0x1
 10522 01b0 57       		.byte	0x57
 10523 01b1 00000000 		.4byte	0
 10524 01b5 00000000 		.4byte	0
 10525              	.LLST13:
 10526 01b9 00000000 		.4byte	.LVL42
 10527 01bd 28000000 		.4byte	.LVL50
 10528 01c1 0100     		.2byte	0x1
 10529 01c3 52       		.byte	0x52
 10530 01c4 28000000 		.4byte	.LVL50
 10531 01c8 2C000000 		.4byte	.LVL52
 10532 01cc 0100     		.2byte	0x1
 10533 01ce 54       		.byte	0x54
 10534 01cf 2E000000 		.4byte	.LVL53
 10535 01d3 94000000 		.4byte	.LVL69
 10536 01d7 0100     		.2byte	0x1
 10537 01d9 54       		.byte	0x54
 10538 01da 00000000 		.4byte	0
 10539 01de 00000000 		.4byte	0
 10540              	.LLST14:
 10541 01e2 00000000 		.4byte	.LVL42
 10542 01e6 10000000 		.4byte	.LVL43
 10543 01ea 0100     		.2byte	0x1
 10544 01ec 53       		.byte	0x53
 10545 01ed 10000000 		.4byte	.LVL43
 10546 01f1 2A000000 		.4byte	.LVL51
 10547 01f5 0400     		.2byte	0x4
 10548 01f7 F3       		.byte	0xf3
 10549 01f8 01       		.uleb128 0x1
 10550 01f9 53       		.byte	0x53
 10551 01fa 9F       		.byte	0x9f
 10552 01fb 2A000000 		.4byte	.LVL51
 10553 01ff 64000000 		.4byte	.LVL61
 10554 0203 0100     		.2byte	0x1
 10555 0205 56       		.byte	0x56
 10556 0206 64000000 		.4byte	.LVL61
ARM GAS  C:\Users\Kayas\AppData\Local\Temp\ccpxl0Kp.s 			page 198


 10557 020a 92000000 		.4byte	.LVL68
 10558 020e 0100     		.2byte	0x1
 10559 0210 55       		.byte	0x55
 10560 0211 00000000 		.4byte	0
 10561 0215 00000000 		.4byte	0
 10562              	.LLST15:
 10563 0219 00000000 		.4byte	.LVL42
 10564 021d 10000000 		.4byte	.LVL43
 10565 0221 0200     		.2byte	0x2
 10566 0223 91       		.byte	0x91
 10567 0224 00       		.sleb128 0
 10568 0225 10000000 		.4byte	.LVL43
 10569 0229 16000000 		.4byte	.LVL45
 10570 022d 0200     		.2byte	0x2
 10571 022f 73       		.byte	0x73
 10572 0230 00       		.sleb128 0
 10573 0231 16000000 		.4byte	.LVL45
 10574 0235 18000000 		.4byte	.LVL46
 10575 0239 0200     		.2byte	0x2
 10576 023b 91       		.byte	0x91
 10577 023c 00       		.sleb128 0
 10578 023d 18000000 		.4byte	.LVL46
 10579 0241 AA000000 		.4byte	.LVL78
 10580 0245 0100     		.2byte	0x1
 10581 0247 59       		.byte	0x59
 10582 0248 AA000000 		.4byte	.LVL78
 10583 024c B4000000 		.4byte	.LFE67
 10584 0250 0A00     		.2byte	0xa
 10585 0252 91       		.byte	0x91
 10586 0253 00       		.sleb128 0
 10587 0254 94       		.byte	0x94
 10588 0255 02       		.byte	0x2
 10589 0256 0A       		.byte	0xa
 10590 0257 FFFF     		.2byte	0xffff
 10591 0259 1A       		.byte	0x1a
 10592 025a 20       		.byte	0x20
 10593 025b 9F       		.byte	0x9f
 10594 025c 00000000 		.4byte	0
 10595 0260 00000000 		.4byte	0
 10596              	.LLST16:
 10597 0264 12000000 		.4byte	.LVL44
 10598 0268 6C000000 		.4byte	.LVL62
 10599 026c 0200     		.2byte	0x2
 10600 026e 30       		.byte	0x30
 10601 026f 9F       		.byte	0x9f
 10602 0270 6C000000 		.4byte	.LVL62
 10603 0274 74000000 		.4byte	.LVL63
 10604 0278 0100     		.2byte	0x1
 10605 027a 52       		.byte	0x52
 10606 027b 74000000 		.4byte	.LVL63
 10607 027f 77000000 		.4byte	.LVL64-1
 10608 0283 0100     		.2byte	0x1
 10609 0285 53       		.byte	0x53
 10610 0286 77000000 		.4byte	.LVL64-1
 10611 028a AA000000 		.4byte	.LVL77
 10612 028e 0100     		.2byte	0x1
 10613 0290 57       		.byte	0x57
ARM GAS  C:\Users\Kayas\AppData\Local\Temp\ccpxl0Kp.s 			page 199


 10614 0291 00000000 		.4byte	0
 10615 0295 00000000 		.4byte	0
 10616              	.LLST17:
 10617 0299 12000000 		.4byte	.LVL44
 10618 029d 96000000 		.4byte	.LVL70
 10619 02a1 0200     		.2byte	0x2
 10620 02a3 30       		.byte	0x30
 10621 02a4 9F       		.byte	0x9f
 10622 02a5 96000000 		.4byte	.LVL70
 10623 02a9 AA000000 		.4byte	.LVL74
 10624 02ad 0100     		.2byte	0x1
 10625 02af 54       		.byte	0x54
 10626 02b0 00000000 		.4byte	0
 10627 02b4 00000000 		.4byte	0
 10628              	.LLST18:
 10629 02b8 8A000000 		.4byte	.LVL67
 10630 02bc AA000000 		.4byte	.LVL76
 10631 02c0 0100     		.2byte	0x1
 10632 02c2 56       		.byte	0x56
 10633 02c3 AA000000 		.4byte	.LVL76
 10634 02c7 AA000000 		.4byte	.LVL78
 10635 02cb 0500     		.2byte	0x5
 10636 02cd 79       		.byte	0x79
 10637 02ce 00       		.sleb128 0
 10638 02cf 38       		.byte	0x38
 10639 02d0 25       		.byte	0x25
 10640 02d1 9F       		.byte	0x9f
 10641 02d2 AA000000 		.4byte	.LVL78
 10642 02d6 B4000000 		.4byte	.LFE67
 10643 02da 1000     		.2byte	0x10
 10644 02dc 91       		.byte	0x91
 10645 02dd 00       		.sleb128 0
 10646 02de 94       		.byte	0x94
 10647 02df 02       		.byte	0x2
 10648 02e0 0A       		.byte	0xa
 10649 02e1 FFFF     		.2byte	0xffff
 10650 02e3 1A       		.byte	0x1a
 10651 02e4 20       		.byte	0x20
 10652 02e5 0A       		.byte	0xa
 10653 02e6 FFFF     		.2byte	0xffff
 10654 02e8 1A       		.byte	0x1a
 10655 02e9 38       		.byte	0x38
 10656 02ea 25       		.byte	0x25
 10657 02eb 9F       		.byte	0x9f
 10658 02ec 00000000 		.4byte	0
 10659 02f0 00000000 		.4byte	0
 10660              	.LLST19:
 10661 02f4 92000000 		.4byte	.LVL68
 10662 02f8 AA000000 		.4byte	.LVL75
 10663 02fc 0100     		.2byte	0x1
 10664 02fe 55       		.byte	0x55
 10665 02ff AA000000 		.4byte	.LVL75
 10666 0303 AA000000 		.4byte	.LVL78
 10667 0307 0100     		.2byte	0x1
 10668 0309 59       		.byte	0x59
 10669 030a AA000000 		.4byte	.LVL78
 10670 030e B4000000 		.4byte	.LFE67
ARM GAS  C:\Users\Kayas\AppData\Local\Temp\ccpxl0Kp.s 			page 200


 10671 0312 0200     		.2byte	0x2
 10672 0314 91       		.byte	0x91
 10673 0315 60       		.sleb128 -32
 10674 0316 00000000 		.4byte	0
 10675 031a 00000000 		.4byte	0
 10676              	.LLST20:
 10677 031e 00000000 		.4byte	.LVL79
 10678 0322 09000000 		.4byte	.LVL81-1
 10679 0326 0100     		.2byte	0x1
 10680 0328 50       		.byte	0x50
 10681 0329 09000000 		.4byte	.LVL81-1
 10682 032d 32000000 		.4byte	.LFE68
 10683 0331 0400     		.2byte	0x4
 10684 0333 F3       		.byte	0xf3
 10685 0334 01       		.uleb128 0x1
 10686 0335 50       		.byte	0x50
 10687 0336 9F       		.byte	0x9f
 10688 0337 00000000 		.4byte	0
 10689 033b 00000000 		.4byte	0
 10690              	.LLST21:
 10691 033f 00000000 		.4byte	.LVL79
 10692 0343 06000000 		.4byte	.LVL80
 10693 0347 0100     		.2byte	0x1
 10694 0349 51       		.byte	0x51
 10695 034a 06000000 		.4byte	.LVL80
 10696 034e 32000000 		.4byte	.LFE68
 10697 0352 0400     		.2byte	0x4
 10698 0354 F3       		.byte	0xf3
 10699 0355 01       		.uleb128 0x1
 10700 0356 51       		.byte	0x51
 10701 0357 9F       		.byte	0x9f
 10702 0358 00000000 		.4byte	0
 10703 035c 00000000 		.4byte	0
 10704              	.LLST22:
 10705 0360 00000000 		.4byte	.LVL88
 10706 0364 09000000 		.4byte	.LVL90-1
 10707 0368 0100     		.2byte	0x1
 10708 036a 50       		.byte	0x50
 10709 036b 09000000 		.4byte	.LVL90-1
 10710 036f 1A000000 		.4byte	.LFE69
 10711 0373 0400     		.2byte	0x4
 10712 0375 F3       		.byte	0xf3
 10713 0376 01       		.uleb128 0x1
 10714 0377 50       		.byte	0x50
 10715 0378 9F       		.byte	0x9f
 10716 0379 00000000 		.4byte	0
 10717 037d 00000000 		.4byte	0
 10718              	.LLST23:
 10719 0381 00000000 		.4byte	.LVL88
 10720 0385 06000000 		.4byte	.LVL89
 10721 0389 0100     		.2byte	0x1
 10722 038b 51       		.byte	0x51
 10723 038c 06000000 		.4byte	.LVL89
 10724 0390 1A000000 		.4byte	.LFE69
 10725 0394 0400     		.2byte	0x4
 10726 0396 F3       		.byte	0xf3
 10727 0397 01       		.uleb128 0x1
ARM GAS  C:\Users\Kayas\AppData\Local\Temp\ccpxl0Kp.s 			page 201


 10728 0398 51       		.byte	0x51
 10729 0399 9F       		.byte	0x9f
 10730 039a 00000000 		.4byte	0
 10731 039e 00000000 		.4byte	0
 10732              	.LLST24:
 10733 03a2 00000000 		.4byte	.LVL93
 10734 03a6 07000000 		.4byte	.LVL94-1
 10735 03aa 0100     		.2byte	0x1
 10736 03ac 50       		.byte	0x50
 10737 03ad 07000000 		.4byte	.LVL94-1
 10738 03b1 12000000 		.4byte	.LFE70
 10739 03b5 0400     		.2byte	0x4
 10740 03b7 F3       		.byte	0xf3
 10741 03b8 01       		.uleb128 0x1
 10742 03b9 50       		.byte	0x50
 10743 03ba 9F       		.byte	0x9f
 10744 03bb 00000000 		.4byte	0
 10745 03bf 00000000 		.4byte	0
 10746              	.LLST25:
 10747 03c3 00000000 		.4byte	.LVL93
 10748 03c7 07000000 		.4byte	.LVL94-1
 10749 03cb 0100     		.2byte	0x1
 10750 03cd 51       		.byte	0x51
 10751 03ce 07000000 		.4byte	.LVL94-1
 10752 03d2 12000000 		.4byte	.LFE70
 10753 03d6 0400     		.2byte	0x4
 10754 03d8 F3       		.byte	0xf3
 10755 03d9 01       		.uleb128 0x1
 10756 03da 51       		.byte	0x51
 10757 03db 9F       		.byte	0x9f
 10758 03dc 00000000 		.4byte	0
 10759 03e0 00000000 		.4byte	0
 10760              	.LLST26:
 10761 03e4 00000000 		.4byte	.LVL93
 10762 03e8 07000000 		.4byte	.LVL94-1
 10763 03ec 0100     		.2byte	0x1
 10764 03ee 52       		.byte	0x52
 10765 03ef 07000000 		.4byte	.LVL94-1
 10766 03f3 12000000 		.4byte	.LFE70
 10767 03f7 0400     		.2byte	0x4
 10768 03f9 F3       		.byte	0xf3
 10769 03fa 01       		.uleb128 0x1
 10770 03fb 52       		.byte	0x52
 10771 03fc 9F       		.byte	0x9f
 10772 03fd 00000000 		.4byte	0
 10773 0401 00000000 		.4byte	0
 10774              	.LLST27:
 10775 0405 00000000 		.4byte	.LVL96
 10776 0409 19000000 		.4byte	.LVL101-1
 10777 040d 0100     		.2byte	0x1
 10778 040f 50       		.byte	0x50
 10779 0410 19000000 		.4byte	.LVL101-1
 10780 0414 1E000000 		.4byte	.LFE71
 10781 0418 0400     		.2byte	0x4
 10782 041a F3       		.byte	0xf3
 10783 041b 01       		.uleb128 0x1
 10784 041c 50       		.byte	0x50
ARM GAS  C:\Users\Kayas\AppData\Local\Temp\ccpxl0Kp.s 			page 202


 10785 041d 9F       		.byte	0x9f
 10786 041e 00000000 		.4byte	0
 10787 0422 00000000 		.4byte	0
 10788              	.LLST28:
 10789 0426 00000000 		.4byte	.LVL96
 10790 042a 08000000 		.4byte	.LVL97
 10791 042e 0100     		.2byte	0x1
 10792 0430 51       		.byte	0x51
 10793 0431 08000000 		.4byte	.LVL97
 10794 0435 1E000000 		.4byte	.LFE71
 10795 0439 0400     		.2byte	0x4
 10796 043b F3       		.byte	0xf3
 10797 043c 01       		.uleb128 0x1
 10798 043d 51       		.byte	0x51
 10799 043e 9F       		.byte	0x9f
 10800 043f 00000000 		.4byte	0
 10801 0443 00000000 		.4byte	0
 10802              	.LLST29:
 10803 0447 00000000 		.4byte	.LVL96
 10804 044b 10000000 		.4byte	.LVL99
 10805 044f 0100     		.2byte	0x1
 10806 0451 52       		.byte	0x52
 10807 0452 10000000 		.4byte	.LVL99
 10808 0456 1E000000 		.4byte	.LFE71
 10809 045a 0400     		.2byte	0x4
 10810 045c F3       		.byte	0xf3
 10811 045d 01       		.uleb128 0x1
 10812 045e 52       		.byte	0x52
 10813 045f 9F       		.byte	0x9f
 10814 0460 00000000 		.4byte	0
 10815 0464 00000000 		.4byte	0
 10816              	.LLST30:
 10817 0468 00000000 		.4byte	.LVL96
 10818 046c 0C000000 		.4byte	.LVL98
 10819 0470 0100     		.2byte	0x1
 10820 0472 53       		.byte	0x53
 10821 0473 0C000000 		.4byte	.LVL98
 10822 0477 1E000000 		.4byte	.LFE71
 10823 047b 0400     		.2byte	0x4
 10824 047d F3       		.byte	0xf3
 10825 047e 01       		.uleb128 0x1
 10826 047f 53       		.byte	0x53
 10827 0480 9F       		.byte	0x9f
 10828 0481 00000000 		.4byte	0
 10829 0485 00000000 		.4byte	0
 10830              	.LLST31:
 10831 0489 00000000 		.4byte	.LVL96
 10832 048d 08000000 		.4byte	.LVL97
 10833 0491 0200     		.2byte	0x2
 10834 0493 91       		.byte	0x91
 10835 0494 00       		.sleb128 0
 10836 0495 08000000 		.4byte	.LVL97
 10837 0499 12000000 		.4byte	.LVL100
 10838 049d 0200     		.2byte	0x2
 10839 049f 71       		.byte	0x71
 10840 04a0 00       		.sleb128 0
 10841 04a1 12000000 		.4byte	.LVL100
ARM GAS  C:\Users\Kayas\AppData\Local\Temp\ccpxl0Kp.s 			page 203


 10842 04a5 1E000000 		.4byte	.LFE71
 10843 04a9 0200     		.2byte	0x2
 10844 04ab 91       		.byte	0x91
 10845 04ac 00       		.sleb128 0
 10846 04ad 00000000 		.4byte	0
 10847 04b1 00000000 		.4byte	0
 10848              	.LLST32:
 10849 04b5 00000000 		.4byte	.LVL102
 10850 04b9 0F000000 		.4byte	.LVL105-1
 10851 04bd 0100     		.2byte	0x1
 10852 04bf 50       		.byte	0x50
 10853 04c0 0F000000 		.4byte	.LVL105-1
 10854 04c4 32000000 		.4byte	.LFE72
 10855 04c8 0400     		.2byte	0x4
 10856 04ca F3       		.byte	0xf3
 10857 04cb 01       		.uleb128 0x1
 10858 04cc 50       		.byte	0x50
 10859 04cd 9F       		.byte	0x9f
 10860 04ce 00000000 		.4byte	0
 10861 04d2 00000000 		.4byte	0
 10862              	.LLST33:
 10863 04d6 00000000 		.4byte	.LVL102
 10864 04da 0A000000 		.4byte	.LVL104
 10865 04de 0100     		.2byte	0x1
 10866 04e0 51       		.byte	0x51
 10867 04e1 0A000000 		.4byte	.LVL104
 10868 04e5 32000000 		.4byte	.LFE72
 10869 04e9 0400     		.2byte	0x4
 10870 04eb F3       		.byte	0xf3
 10871 04ec 01       		.uleb128 0x1
 10872 04ed 51       		.byte	0x51
 10873 04ee 9F       		.byte	0x9f
 10874 04ef 00000000 		.4byte	0
 10875 04f3 00000000 		.4byte	0
 10876              	.LLST34:
 10877 04f7 00000000 		.4byte	.LVL102
 10878 04fb 0F000000 		.4byte	.LVL105-1
 10879 04ff 0100     		.2byte	0x1
 10880 0501 52       		.byte	0x52
 10881 0502 0F000000 		.4byte	.LVL105-1
 10882 0506 32000000 		.4byte	.LFE72
 10883 050a 0400     		.2byte	0x4
 10884 050c F3       		.byte	0xf3
 10885 050d 01       		.uleb128 0x1
 10886 050e 52       		.byte	0x52
 10887 050f 9F       		.byte	0x9f
 10888 0510 00000000 		.4byte	0
 10889 0514 00000000 		.4byte	0
 10890              	.LLST35:
 10891 0518 00000000 		.4byte	.LVL102
 10892 051c 0F000000 		.4byte	.LVL105-1
 10893 0520 0100     		.2byte	0x1
 10894 0522 53       		.byte	0x53
 10895 0523 0F000000 		.4byte	.LVL105-1
 10896 0527 32000000 		.4byte	.LFE72
 10897 052b 0400     		.2byte	0x4
 10898 052d F3       		.byte	0xf3
ARM GAS  C:\Users\Kayas\AppData\Local\Temp\ccpxl0Kp.s 			page 204


 10899 052e 01       		.uleb128 0x1
 10900 052f 53       		.byte	0x53
 10901 0530 9F       		.byte	0x9f
 10902 0531 00000000 		.4byte	0
 10903 0535 00000000 		.4byte	0
 10904              	.LLST36:
 10905 0539 08000000 		.4byte	.LVL103
 10906 053d 22000000 		.4byte	.LVL108
 10907 0541 0200     		.2byte	0x2
 10908 0543 30       		.byte	0x30
 10909 0544 9F       		.byte	0x9f
 10910 0545 22000000 		.4byte	.LVL108
 10911 0549 30000000 		.4byte	.LVL111
 10912 054d 0100     		.2byte	0x1
 10913 054f 54       		.byte	0x54
 10914 0550 00000000 		.4byte	0
 10915 0554 00000000 		.4byte	0
 10916              	.LLST37:
 10917 0558 00000000 		.4byte	.LVL112
 10918 055c 5C000000 		.4byte	.LVL125
 10919 0560 0100     		.2byte	0x1
 10920 0562 50       		.byte	0x50
 10921 0563 5C000000 		.4byte	.LVL125
 10922 0567 7E000000 		.4byte	.LVL129
 10923 056b 0100     		.2byte	0x1
 10924 056d 54       		.byte	0x54
 10925 056e 80000000 		.4byte	.LVL130
 10926 0572 98000000 		.4byte	.LVL135
 10927 0576 0100     		.2byte	0x1
 10928 0578 54       		.byte	0x54
 10929 0579 00000000 		.4byte	0
 10930 057d 00000000 		.4byte	0
 10931              	.LLST38:
 10932 0581 00000000 		.4byte	.LVL112
 10933 0585 16000000 		.4byte	.LVL113
 10934 0589 0100     		.2byte	0x1
 10935 058b 51       		.byte	0x51
 10936 058c 16000000 		.4byte	.LVL113
 10937 0590 5C000000 		.4byte	.LVL125
 10938 0594 0400     		.2byte	0x4
 10939 0596 F3       		.byte	0xf3
 10940 0597 01       		.uleb128 0x1
 10941 0598 51       		.byte	0x51
 10942 0599 9F       		.byte	0x9f
 10943 059a 5C000000 		.4byte	.LVL125
 10944 059e 92000000 		.4byte	.LVL133
 10945 05a2 0100     		.2byte	0x1
 10946 05a4 55       		.byte	0x55
 10947 05a5 94000000 		.4byte	.LVL134
 10948 05a9 98000000 		.4byte	.LVL136
 10949 05ad 0100     		.2byte	0x1
 10950 05af 55       		.byte	0x55
 10951 05b0 00000000 		.4byte	0
 10952 05b4 00000000 		.4byte	0
 10953              	.LLST39:
 10954 05b8 00000000 		.4byte	.LVL112
 10955 05bc 1C000000 		.4byte	.LVL115
ARM GAS  C:\Users\Kayas\AppData\Local\Temp\ccpxl0Kp.s 			page 205


 10956 05c0 0100     		.2byte	0x1
 10957 05c2 52       		.byte	0x52
 10958 05c3 1C000000 		.4byte	.LVL115
 10959 05c7 A4000000 		.4byte	.LFE73
 10960 05cb 0400     		.2byte	0x4
 10961 05cd F3       		.byte	0xf3
 10962 05ce 01       		.uleb128 0x1
 10963 05cf 52       		.byte	0x52
 10964 05d0 9F       		.byte	0x9f
 10965 05d1 00000000 		.4byte	0
 10966 05d5 00000000 		.4byte	0
 10967              	.LLST40:
 10968 05d9 00000000 		.4byte	.LVL112
 10969 05dd 1A000000 		.4byte	.LVL114
 10970 05e1 0100     		.2byte	0x1
 10971 05e3 53       		.byte	0x53
 10972 05e4 1A000000 		.4byte	.LVL114
 10973 05e8 A4000000 		.4byte	.LFE73
 10974 05ec 0400     		.2byte	0x4
 10975 05ee F3       		.byte	0xf3
 10976 05ef 01       		.uleb128 0x1
 10977 05f0 53       		.byte	0x53
 10978 05f1 9F       		.byte	0x9f
 10979 05f2 00000000 		.4byte	0
 10980 05f6 00000000 		.4byte	0
 10981              	.LLST41:
 10982 05fa 00000000 		.4byte	.LVL112
 10983 05fe 1A000000 		.4byte	.LVL114
 10984 0602 0200     		.2byte	0x2
 10985 0604 91       		.byte	0x91
 10986 0605 00       		.sleb128 0
 10987 0606 1A000000 		.4byte	.LVL114
 10988 060a 24000000 		.4byte	.LVL117
 10989 060e 0200     		.2byte	0x2
 10990 0610 73       		.byte	0x73
 10991 0611 00       		.sleb128 0
 10992 0612 24000000 		.4byte	.LVL117
 10993 0616 A4000000 		.4byte	.LFE73
 10994 061a 0200     		.2byte	0x2
 10995 061c 91       		.byte	0x91
 10996 061d 00       		.sleb128 0
 10997 061e 00000000 		.4byte	0
 10998 0622 00000000 		.4byte	0
 10999              	.LLST42:
 11000 0626 22000000 		.4byte	.LVL116
 11001 062a 28000000 		.4byte	.LVL118
 11002 062e 0100     		.2byte	0x1
 11003 0630 57       		.byte	0x57
 11004 0631 28000000 		.4byte	.LVL118
 11005 0635 5C000000 		.4byte	.LVL125
 11006 0639 0600     		.2byte	0x6
 11007 063b 7B       		.byte	0x7b
 11008 063c 00       		.sleb128 0
 11009 063d 70       		.byte	0x70
 11010 063e 00       		.sleb128 0
 11011 063f 1C       		.byte	0x1c
 11012 0640 9F       		.byte	0x9f
ARM GAS  C:\Users\Kayas\AppData\Local\Temp\ccpxl0Kp.s 			page 206


 11013 0641 00000000 		.4byte	0
 11014 0645 00000000 		.4byte	0
 11015              	.LLST43:
 11016 0649 24000000 		.4byte	.LVL117
 11017 064d 3E000000 		.4byte	.LVL121
 11018 0651 0100     		.2byte	0x1
 11019 0653 53       		.byte	0x53
 11020 0654 3E000000 		.4byte	.LVL121
 11021 0658 5C000000 		.4byte	.LVL125
 11022 065c 0600     		.2byte	0x6
 11023 065e 71       		.byte	0x71
 11024 065f 00       		.sleb128 0
 11025 0660 75       		.byte	0x75
 11026 0661 00       		.sleb128 0
 11027 0662 1C       		.byte	0x1c
 11028 0663 9F       		.byte	0x9f
 11029 0664 00000000 		.4byte	0
 11030 0668 00000000 		.4byte	0
 11031              	.LLST44:
 11032 066c 2A000000 		.4byte	.LVL119
 11033 0670 98000000 		.4byte	.LVL138
 11034 0674 0100     		.2byte	0x1
 11035 0676 57       		.byte	0x57
 11036 0677 00000000 		.4byte	0
 11037 067b 00000000 		.4byte	0
 11038              	.LLST45:
 11039 067f 46000000 		.4byte	.LVL122
 11040 0683 48000000 		.4byte	.LVL123
 11041 0687 0100     		.2byte	0x1
 11042 0689 53       		.byte	0x53
 11043 068a 48000000 		.4byte	.LVL123
 11044 068e 98000000 		.4byte	.LVL139
 11045 0692 0100     		.2byte	0x1
 11046 0694 58       		.byte	0x58
 11047 0695 98000000 		.4byte	.LVL139
 11048 0699 98000000 		.4byte	.LVL140
 11049 069d 0400     		.2byte	0x4
 11050 069f 7A       		.byte	0x7a
 11051 06a0 00       		.sleb128 0
 11052 06a1 1F       		.byte	0x1f
 11053 06a2 9F       		.byte	0x9f
 11054 06a3 00000000 		.4byte	0
 11055 06a7 00000000 		.4byte	0
 11056              	.LLST46:
 11057 06ab 5C000000 		.4byte	.LVL125
 11058 06af 98000000 		.4byte	.LVL137
 11059 06b3 0100     		.2byte	0x1
 11060 06b5 56       		.byte	0x56
 11061 06b6 00000000 		.4byte	0
 11062 06ba 00000000 		.4byte	0
 11063              	.LLST47:
 11064 06be 6C000000 		.4byte	.LVL127
 11065 06c2 86000000 		.4byte	.LVL131
 11066 06c6 0100     		.2byte	0x1
 11067 06c8 53       		.byte	0x53
 11068 06c9 00000000 		.4byte	0
 11069 06cd 00000000 		.4byte	0
ARM GAS  C:\Users\Kayas\AppData\Local\Temp\ccpxl0Kp.s 			page 207


 11070              	.LLST48:
 11071 06d1 00000000 		.4byte	.LVL141
 11072 06d5 0D000000 		.4byte	.LVL144-1
 11073 06d9 0100     		.2byte	0x1
 11074 06db 50       		.byte	0x50
 11075 06dc 0D000000 		.4byte	.LVL144-1
 11076 06e0 32000000 		.4byte	.LFE74
 11077 06e4 0400     		.2byte	0x4
 11078 06e6 F3       		.byte	0xf3
 11079 06e7 01       		.uleb128 0x1
 11080 06e8 50       		.byte	0x50
 11081 06e9 9F       		.byte	0x9f
 11082 06ea 00000000 		.4byte	0
 11083 06ee 00000000 		.4byte	0
 11084              	.LLST49:
 11085 06f2 00000000 		.4byte	.LVL141
 11086 06f6 0A000000 		.4byte	.LVL143
 11087 06fa 0100     		.2byte	0x1
 11088 06fc 51       		.byte	0x51
 11089 06fd 0A000000 		.4byte	.LVL143
 11090 0701 32000000 		.4byte	.LFE74
 11091 0705 0400     		.2byte	0x4
 11092 0707 F3       		.byte	0xf3
 11093 0708 01       		.uleb128 0x1
 11094 0709 51       		.byte	0x51
 11095 070a 9F       		.byte	0x9f
 11096 070b 00000000 		.4byte	0
 11097 070f 00000000 		.4byte	0
 11098              	.LLST50:
 11099 0713 00000000 		.4byte	.LVL141
 11100 0717 0D000000 		.4byte	.LVL144-1
 11101 071b 0100     		.2byte	0x1
 11102 071d 52       		.byte	0x52
 11103 071e 0D000000 		.4byte	.LVL144-1
 11104 0722 32000000 		.4byte	.LFE74
 11105 0726 0400     		.2byte	0x4
 11106 0728 F3       		.byte	0xf3
 11107 0729 01       		.uleb128 0x1
 11108 072a 52       		.byte	0x52
 11109 072b 9F       		.byte	0x9f
 11110 072c 00000000 		.4byte	0
 11111 0730 00000000 		.4byte	0
 11112              	.LLST51:
 11113 0734 00000000 		.4byte	.LVL141
 11114 0738 0D000000 		.4byte	.LVL144-1
 11115 073c 0100     		.2byte	0x1
 11116 073e 53       		.byte	0x53
 11117 073f 0D000000 		.4byte	.LVL144-1
 11118 0743 32000000 		.4byte	.LFE74
 11119 0747 0400     		.2byte	0x4
 11120 0749 F3       		.byte	0xf3
 11121 074a 01       		.uleb128 0x1
 11122 074b 53       		.byte	0x53
 11123 074c 9F       		.byte	0x9f
 11124 074d 00000000 		.4byte	0
 11125 0751 00000000 		.4byte	0
 11126              	.LLST52:
ARM GAS  C:\Users\Kayas\AppData\Local\Temp\ccpxl0Kp.s 			page 208


 11127 0755 08000000 		.4byte	.LVL142
 11128 0759 22000000 		.4byte	.LVL147
 11129 075d 0200     		.2byte	0x2
 11130 075f 30       		.byte	0x30
 11131 0760 9F       		.byte	0x9f
 11132 0761 22000000 		.4byte	.LVL147
 11133 0765 30000000 		.4byte	.LVL150
 11134 0769 0100     		.2byte	0x1
 11135 076b 54       		.byte	0x54
 11136 076c 00000000 		.4byte	0
 11137 0770 00000000 		.4byte	0
 11138              	.LLST53:
 11139 0774 00000000 		.4byte	.LVL151
 11140 0778 15000000 		.4byte	.LVL154-1
 11141 077c 0100     		.2byte	0x1
 11142 077e 50       		.byte	0x50
 11143 077f 15000000 		.4byte	.LVL154-1
 11144 0783 44000000 		.4byte	.LFE75
 11145 0787 0400     		.2byte	0x4
 11146 0789 F3       		.byte	0xf3
 11147 078a 01       		.uleb128 0x1
 11148 078b 50       		.byte	0x50
 11149 078c 9F       		.byte	0x9f
 11150 078d 00000000 		.4byte	0
 11151 0791 00000000 		.4byte	0
 11152              	.LLST54:
 11153 0795 00000000 		.4byte	.LVL151
 11154 0799 15000000 		.4byte	.LVL154-1
 11155 079d 0100     		.2byte	0x1
 11156 079f 51       		.byte	0x51
 11157 07a0 15000000 		.4byte	.LVL154-1
 11158 07a4 44000000 		.4byte	.LFE75
 11159 07a8 0400     		.2byte	0x4
 11160 07aa F3       		.byte	0xf3
 11161 07ab 01       		.uleb128 0x1
 11162 07ac 51       		.byte	0x51
 11163 07ad 9F       		.byte	0x9f
 11164 07ae 00000000 		.4byte	0
 11165 07b2 00000000 		.4byte	0
 11166              	.LLST55:
 11167 07b6 00000000 		.4byte	.LVL151
 11168 07ba 15000000 		.4byte	.LVL154-1
 11169 07be 0100     		.2byte	0x1
 11170 07c0 52       		.byte	0x52
 11171 07c1 15000000 		.4byte	.LVL154-1
 11172 07c5 44000000 		.4byte	.LFE75
 11173 07c9 0400     		.2byte	0x4
 11174 07cb F3       		.byte	0xf3
 11175 07cc 01       		.uleb128 0x1
 11176 07cd 52       		.byte	0x52
 11177 07ce 9F       		.byte	0x9f
 11178 07cf 00000000 		.4byte	0
 11179 07d3 00000000 		.4byte	0
 11180              	.LLST56:
 11181 07d7 00000000 		.4byte	.LVL151
 11182 07db 0E000000 		.4byte	.LVL152
 11183 07df 0100     		.2byte	0x1
ARM GAS  C:\Users\Kayas\AppData\Local\Temp\ccpxl0Kp.s 			page 209


 11184 07e1 53       		.byte	0x53
 11185 07e2 0E000000 		.4byte	.LVL152
 11186 07e6 44000000 		.4byte	.LFE75
 11187 07ea 0400     		.2byte	0x4
 11188 07ec F3       		.byte	0xf3
 11189 07ed 01       		.uleb128 0x1
 11190 07ee 53       		.byte	0x53
 11191 07ef 9F       		.byte	0x9f
 11192 07f0 00000000 		.4byte	0
 11193 07f4 00000000 		.4byte	0
 11194              	.LLST57:
 11195 07f8 00000000 		.4byte	.LVL151
 11196 07fc 0E000000 		.4byte	.LVL152
 11197 0800 0200     		.2byte	0x2
 11198 0802 91       		.byte	0x91
 11199 0803 00       		.sleb128 0
 11200 0804 0E000000 		.4byte	.LVL152
 11201 0808 12000000 		.4byte	.LVL153
 11202 080c 0200     		.2byte	0x2
 11203 080e 73       		.byte	0x73
 11204 080f 00       		.sleb128 0
 11205 0810 12000000 		.4byte	.LVL153
 11206 0814 44000000 		.4byte	.LFE75
 11207 0818 0200     		.2byte	0x2
 11208 081a 91       		.byte	0x91
 11209 081b 00       		.sleb128 0
 11210 081c 00000000 		.4byte	0
 11211 0820 00000000 		.4byte	0
 11212              	.LLST58:
 11213 0824 00000000 		.4byte	.LVL158
 11214 0828 26000000 		.4byte	.LVL164
 11215 082c 0100     		.2byte	0x1
 11216 082e 50       		.byte	0x50
 11217 082f 26000000 		.4byte	.LVL164
 11218 0833 C0000000 		.4byte	.LFE76
 11219 0837 0200     		.2byte	0x2
 11220 0839 91       		.byte	0x91
 11221 083a 50       		.sleb128 -48
 11222 083b 00000000 		.4byte	0
 11223 083f 00000000 		.4byte	0
 11224              	.LLST59:
 11225 0843 00000000 		.4byte	.LVL158
 11226 0847 26000000 		.4byte	.LVL164
 11227 084b 0100     		.2byte	0x1
 11228 084d 51       		.byte	0x51
 11229 084e 26000000 		.4byte	.LVL164
 11230 0852 C0000000 		.4byte	.LFE76
 11231 0856 0200     		.2byte	0x2
 11232 0858 91       		.byte	0x91
 11233 0859 54       		.sleb128 -44
 11234 085a 00000000 		.4byte	0
 11235 085e 00000000 		.4byte	0
 11236              	.LLST60:
 11237 0862 00000000 		.4byte	.LVL158
 11238 0866 1C000000 		.4byte	.LVL162
 11239 086a 0100     		.2byte	0x1
 11240 086c 52       		.byte	0x52
ARM GAS  C:\Users\Kayas\AppData\Local\Temp\ccpxl0Kp.s 			page 210


 11241 086d 1C000000 		.4byte	.LVL162
 11242 0871 B4000000 		.4byte	.LVL182
 11243 0875 0400     		.2byte	0x4
 11244 0877 7A       		.byte	0x7a
 11245 0878 00       		.sleb128 0
 11246 0879 1F       		.byte	0x1f
 11247 087a 9F       		.byte	0x9f
 11248 087b B4000000 		.4byte	.LVL182
 11249 087f C0000000 		.4byte	.LFE76
 11250 0883 0400     		.2byte	0x4
 11251 0885 F3       		.byte	0xf3
 11252 0886 01       		.uleb128 0x1
 11253 0887 52       		.byte	0x52
 11254 0888 9F       		.byte	0x9f
 11255 0889 00000000 		.4byte	0
 11256 088d 00000000 		.4byte	0
 11257              	.LLST61:
 11258 0891 00000000 		.4byte	.LVL158
 11259 0895 16000000 		.4byte	.LVL159
 11260 0899 0100     		.2byte	0x1
 11261 089b 53       		.byte	0x53
 11262 089c 16000000 		.4byte	.LVL159
 11263 08a0 C0000000 		.4byte	.LFE76
 11264 08a4 0400     		.2byte	0x4
 11265 08a6 F3       		.byte	0xf3
 11266 08a7 01       		.uleb128 0x1
 11267 08a8 53       		.byte	0x53
 11268 08a9 9F       		.byte	0x9f
 11269 08aa 00000000 		.4byte	0
 11270 08ae 00000000 		.4byte	0
 11271              	.LLST62:
 11272 08b2 18000000 		.4byte	.LVL160
 11273 08b6 1A000000 		.4byte	.LVL161
 11274 08ba 0100     		.2byte	0x1
 11275 08bc 53       		.byte	0x53
 11276 08bd 1A000000 		.4byte	.LVL161
 11277 08c1 26000000 		.4byte	.LVL164
 11278 08c5 0100     		.2byte	0x1
 11279 08c7 5A       		.byte	0x5a
 11280 08c8 26000000 		.4byte	.LVL164
 11281 08cc B4000000 		.4byte	.LVL180
 11282 08d0 0100     		.2byte	0x1
 11283 08d2 57       		.byte	0x57
 11284 08d3 00000000 		.4byte	0
 11285 08d7 00000000 		.4byte	0
 11286              	.LLST63:
 11287 08db 18000000 		.4byte	.LVL160
 11288 08df 26000000 		.4byte	.LVL164
 11289 08e3 0200     		.2byte	0x2
 11290 08e5 30       		.byte	0x30
 11291 08e6 9F       		.byte	0x9f
 11292 08e7 26000000 		.4byte	.LVL164
 11293 08eb B4000000 		.4byte	.LVL181
 11294 08ef 0100     		.2byte	0x1
 11295 08f1 58       		.byte	0x58
 11296 08f2 00000000 		.4byte	0
 11297 08f6 00000000 		.4byte	0
ARM GAS  C:\Users\Kayas\AppData\Local\Temp\ccpxl0Kp.s 			page 211


 11298              	.LLST64:
 11299 08fa 1E000000 		.4byte	.LVL163
 11300 08fe 26000000 		.4byte	.LVL164
 11301 0902 0100     		.2byte	0x1
 11302 0904 53       		.byte	0x53
 11303 0905 26000000 		.4byte	.LVL164
 11304 0909 8C000000 		.4byte	.LVL170
 11305 090d 0100     		.2byte	0x1
 11306 090f 56       		.byte	0x56
 11307 0910 8C000000 		.4byte	.LVL170
 11308 0914 98000000 		.4byte	.LVL171
 11309 0918 0100     		.2byte	0x1
 11310 091a 53       		.byte	0x53
 11311 091b 98000000 		.4byte	.LVL171
 11312 091f 9C000000 		.4byte	.LVL172
 11313 0923 0100     		.2byte	0x1
 11314 0925 56       		.byte	0x56
 11315 0926 9C000000 		.4byte	.LVL172
 11316 092a AA000000 		.4byte	.LVL176
 11317 092e 0100     		.2byte	0x1
 11318 0930 53       		.byte	0x53
 11319 0931 AA000000 		.4byte	.LVL176
 11320 0935 AC000000 		.4byte	.LVL177
 11321 0939 0100     		.2byte	0x1
 11322 093b 56       		.byte	0x56
 11323 093c AC000000 		.4byte	.LVL177
 11324 0940 AE000000 		.4byte	.LVL178
 11325 0944 0100     		.2byte	0x1
 11326 0946 53       		.byte	0x53
 11327 0947 AE000000 		.4byte	.LVL178
 11328 094b B4000000 		.4byte	.LVL179
 11329 094f 0100     		.2byte	0x1
 11330 0951 56       		.byte	0x56
 11331 0952 00000000 		.4byte	0
 11332 0956 00000000 		.4byte	0
 11333              	.LLST65:
 11334 095a 7A000000 		.4byte	.LVL168
 11335 095e A6000000 		.4byte	.LVL175
 11336 0962 0100     		.2byte	0x1
 11337 0964 56       		.byte	0x56
 11338 0965 AC000000 		.4byte	.LVL177
 11339 0969 AE000000 		.4byte	.LVL178
 11340 096d 0100     		.2byte	0x1
 11341 096f 56       		.byte	0x56
 11342 0970 00000000 		.4byte	0
 11343 0974 00000000 		.4byte	0
 11344              	.LLST66:
 11345 0978 00000000 		.4byte	.LVL183
 11346 097c 22000000 		.4byte	.LVL189
 11347 0980 0100     		.2byte	0x1
 11348 0982 50       		.byte	0x50
 11349 0983 22000000 		.4byte	.LVL189
 11350 0987 A0000000 		.4byte	.LFE77
 11351 098b 0200     		.2byte	0x2
 11352 098d 91       		.byte	0x91
 11353 098e 5C       		.sleb128 -36
 11354 098f 00000000 		.4byte	0
ARM GAS  C:\Users\Kayas\AppData\Local\Temp\ccpxl0Kp.s 			page 212


 11355 0993 00000000 		.4byte	0
 11356              	.LLST67:
 11357 0997 00000000 		.4byte	.LVL183
 11358 099b 22000000 		.4byte	.LVL189
 11359 099f 0100     		.2byte	0x1
 11360 09a1 51       		.byte	0x51
 11361 09a2 22000000 		.4byte	.LVL189
 11362 09a6 96000000 		.4byte	.LVL205
 11363 09aa 0100     		.2byte	0x1
 11364 09ac 5B       		.byte	0x5b
 11365 09ad 96000000 		.4byte	.LVL205
 11366 09b1 A0000000 		.4byte	.LFE77
 11367 09b5 0400     		.2byte	0x4
 11368 09b7 F3       		.byte	0xf3
 11369 09b8 01       		.uleb128 0x1
 11370 09b9 51       		.byte	0x51
 11371 09ba 9F       		.byte	0x9f
 11372 09bb 00000000 		.4byte	0
 11373 09bf 00000000 		.4byte	0
 11374              	.LLST68:
 11375 09c3 00000000 		.4byte	.LVL183
 11376 09c7 18000000 		.4byte	.LVL186
 11377 09cb 0100     		.2byte	0x1
 11378 09cd 52       		.byte	0x52
 11379 09ce 18000000 		.4byte	.LVL186
 11380 09d2 22000000 		.4byte	.LVL189
 11381 09d6 0400     		.2byte	0x4
 11382 09d8 77       		.byte	0x77
 11383 09d9 00       		.sleb128 0
 11384 09da 1F       		.byte	0x1f
 11385 09db 9F       		.byte	0x9f
 11386 09dc 22000000 		.4byte	.LVL189
 11387 09e0 A0000000 		.4byte	.LFE77
 11388 09e4 0400     		.2byte	0x4
 11389 09e6 F3       		.byte	0xf3
 11390 09e7 01       		.uleb128 0x1
 11391 09e8 52       		.byte	0x52
 11392 09e9 9F       		.byte	0x9f
 11393 09ea 00000000 		.4byte	0
 11394 09ee 00000000 		.4byte	0
 11395              	.LLST69:
 11396 09f2 00000000 		.4byte	.LVL183
 11397 09f6 16000000 		.4byte	.LVL185
 11398 09fa 0100     		.2byte	0x1
 11399 09fc 53       		.byte	0x53
 11400 09fd 16000000 		.4byte	.LVL185
 11401 0a01 A0000000 		.4byte	.LFE77
 11402 0a05 0400     		.2byte	0x4
 11403 0a07 F3       		.byte	0xf3
 11404 0a08 01       		.uleb128 0x1
 11405 0a09 53       		.byte	0x53
 11406 0a0a 9F       		.byte	0x9f
 11407 0a0b 00000000 		.4byte	0
 11408 0a0f 00000000 		.4byte	0
 11409              	.LLST70:
 11410 0a13 14000000 		.4byte	.LVL184
 11411 0a17 96000000 		.4byte	.LVL203
ARM GAS  C:\Users\Kayas\AppData\Local\Temp\ccpxl0Kp.s 			page 213


 11412 0a1b 0100     		.2byte	0x1
 11413 0a1d 57       		.byte	0x57
 11414 0a1e 00000000 		.4byte	0
 11415 0a22 00000000 		.4byte	0
 11416              	.LLST71:
 11417 0a26 14000000 		.4byte	.LVL184
 11418 0a2a 22000000 		.4byte	.LVL189
 11419 0a2e 0200     		.2byte	0x2
 11420 0a30 30       		.byte	0x30
 11421 0a31 9F       		.byte	0x9f
 11422 0a32 22000000 		.4byte	.LVL189
 11423 0a36 96000000 		.4byte	.LVL204
 11424 0a3a 0100     		.2byte	0x1
 11425 0a3c 5A       		.byte	0x5a
 11426 0a3d 00000000 		.4byte	0
 11427 0a41 00000000 		.4byte	0
 11428              	.LLST72:
 11429 0a45 1C000000 		.4byte	.LVL187
 11430 0a49 1E000000 		.4byte	.LVL188
 11431 0a4d 0100     		.2byte	0x1
 11432 0a4f 53       		.byte	0x53
 11433 0a50 1E000000 		.4byte	.LVL188
 11434 0a54 22000000 		.4byte	.LVL189
 11435 0a58 0100     		.2byte	0x1
 11436 0a5a 58       		.byte	0x58
 11437 0a5b 22000000 		.4byte	.LVL189
 11438 0a5f 6E000000 		.4byte	.LVL193
 11439 0a63 0100     		.2byte	0x1
 11440 0a65 56       		.byte	0x56
 11441 0a66 6E000000 		.4byte	.LVL193
 11442 0a6a 7A000000 		.4byte	.LVL194
 11443 0a6e 0100     		.2byte	0x1
 11444 0a70 53       		.byte	0x53
 11445 0a71 7A000000 		.4byte	.LVL194
 11446 0a75 7E000000 		.4byte	.LVL195
 11447 0a79 0100     		.2byte	0x1
 11448 0a7b 56       		.byte	0x56
 11449 0a7c 7E000000 		.4byte	.LVL195
 11450 0a80 8C000000 		.4byte	.LVL199
 11451 0a84 0100     		.2byte	0x1
 11452 0a86 53       		.byte	0x53
 11453 0a87 8C000000 		.4byte	.LVL199
 11454 0a8b 8E000000 		.4byte	.LVL200
 11455 0a8f 0100     		.2byte	0x1
 11456 0a91 56       		.byte	0x56
 11457 0a92 8E000000 		.4byte	.LVL200
 11458 0a96 90000000 		.4byte	.LVL201
 11459 0a9a 0100     		.2byte	0x1
 11460 0a9c 53       		.byte	0x53
 11461 0a9d 90000000 		.4byte	.LVL201
 11462 0aa1 96000000 		.4byte	.LVL202
 11463 0aa5 0100     		.2byte	0x1
 11464 0aa7 56       		.byte	0x56
 11465 0aa8 00000000 		.4byte	0
 11466 0aac 00000000 		.4byte	0
 11467              	.LLST73:
 11468 0ab0 5C000000 		.4byte	.LVL191
ARM GAS  C:\Users\Kayas\AppData\Local\Temp\ccpxl0Kp.s 			page 214


 11469 0ab4 88000000 		.4byte	.LVL198
 11470 0ab8 0100     		.2byte	0x1
 11471 0aba 56       		.byte	0x56
 11472 0abb 8E000000 		.4byte	.LVL200
 11473 0abf 90000000 		.4byte	.LVL201
 11474 0ac3 0100     		.2byte	0x1
 11475 0ac5 56       		.byte	0x56
 11476 0ac6 00000000 		.4byte	0
 11477 0aca 00000000 		.4byte	0
 11478              	.LLST74:
 11479 0ace 00000000 		.4byte	.LVL206
 11480 0ad2 06000000 		.4byte	.LVL207
 11481 0ad6 0100     		.2byte	0x1
 11482 0ad8 50       		.byte	0x50
 11483 0ad9 06000000 		.4byte	.LVL207
 11484 0add 60000000 		.4byte	.LFE78
 11485 0ae1 0400     		.2byte	0x4
 11486 0ae3 F3       		.byte	0xf3
 11487 0ae4 01       		.uleb128 0x1
 11488 0ae5 50       		.byte	0x50
 11489 0ae6 9F       		.byte	0x9f
 11490 0ae7 00000000 		.4byte	0
 11491 0aeb 00000000 		.4byte	0
 11492              	.LLST75:
 11493 0aef 00000000 		.4byte	.LVL213
 11494 0af3 06000000 		.4byte	.LVL214
 11495 0af7 0100     		.2byte	0x1
 11496 0af9 50       		.byte	0x50
 11497 0afa 06000000 		.4byte	.LVL214
 11498 0afe FE010000 		.4byte	.LFE63
 11499 0b02 0400     		.2byte	0x4
 11500 0b04 F3       		.byte	0xf3
 11501 0b05 01       		.uleb128 0x1
 11502 0b06 50       		.byte	0x50
 11503 0b07 9F       		.byte	0x9f
 11504 0b08 00000000 		.4byte	0
 11505 0b0c 00000000 		.4byte	0
 11506              	.LLST76:
 11507 0b10 00000000 		.4byte	.LVL299
 11508 0b14 46000000 		.4byte	.LVL304
 11509 0b18 0100     		.2byte	0x1
 11510 0b1a 50       		.byte	0x50
 11511 0b1b 46000000 		.4byte	.LVL304
 11512 0b1f C8000000 		.4byte	.LFE79
 11513 0b23 0400     		.2byte	0x4
 11514 0b25 F3       		.byte	0xf3
 11515 0b26 01       		.uleb128 0x1
 11516 0b27 50       		.byte	0x50
 11517 0b28 9F       		.byte	0x9f
 11518 0b29 00000000 		.4byte	0
 11519 0b2d 00000000 		.4byte	0
 11520              	.LLST77:
 11521 0b31 00000000 		.4byte	.LVL299
 11522 0b35 46000000 		.4byte	.LVL304
 11523 0b39 0100     		.2byte	0x1
 11524 0b3b 51       		.byte	0x51
 11525 0b3c 46000000 		.4byte	.LVL304
ARM GAS  C:\Users\Kayas\AppData\Local\Temp\ccpxl0Kp.s 			page 215


 11526 0b40 C8000000 		.4byte	.LFE79
 11527 0b44 0400     		.2byte	0x4
 11528 0b46 F3       		.byte	0xf3
 11529 0b47 01       		.uleb128 0x1
 11530 0b48 51       		.byte	0x51
 11531 0b49 9F       		.byte	0x9f
 11532 0b4a 00000000 		.4byte	0
 11533 0b4e 00000000 		.4byte	0
 11534              	.LLST78:
 11535 0b52 00000000 		.4byte	.LVL299
 11536 0b56 2E000000 		.4byte	.LVL303
 11537 0b5a 0100     		.2byte	0x1
 11538 0b5c 52       		.byte	0x52
 11539 0b5d 2E000000 		.4byte	.LVL303
 11540 0b61 C8000000 		.4byte	.LFE79
 11541 0b65 0400     		.2byte	0x4
 11542 0b67 F3       		.byte	0xf3
 11543 0b68 01       		.uleb128 0x1
 11544 0b69 52       		.byte	0x52
 11545 0b6a 9F       		.byte	0x9f
 11546 0b6b 00000000 		.4byte	0
 11547 0b6f 00000000 		.4byte	0
 11548              	.LLST79:
 11549 0b73 00000000 		.4byte	.LVL299
 11550 0b77 16000000 		.4byte	.LVL300
 11551 0b7b 0100     		.2byte	0x1
 11552 0b7d 53       		.byte	0x53
 11553 0b7e 16000000 		.4byte	.LVL300
 11554 0b82 C8000000 		.4byte	.LFE79
 11555 0b86 0400     		.2byte	0x4
 11556 0b88 F3       		.byte	0xf3
 11557 0b89 01       		.uleb128 0x1
 11558 0b8a 53       		.byte	0x53
 11559 0b8b 9F       		.byte	0x9f
 11560 0b8c 00000000 		.4byte	0
 11561 0b90 00000000 		.4byte	0
 11562              	.LLST80:
 11563 0b94 00000000 		.4byte	.LVL299
 11564 0b98 16000000 		.4byte	.LVL300
 11565 0b9c 0200     		.2byte	0x2
 11566 0b9e 91       		.byte	0x91
 11567 0b9f 00       		.sleb128 0
 11568 0ba0 16000000 		.4byte	.LVL300
 11569 0ba4 18000000 		.4byte	.LVL301
 11570 0ba8 0200     		.2byte	0x2
 11571 0baa 73       		.byte	0x73
 11572 0bab 00       		.sleb128 0
 11573 0bac 18000000 		.4byte	.LVL301
 11574 0bb0 C8000000 		.4byte	.LFE79
 11575 0bb4 0200     		.2byte	0x2
 11576 0bb6 91       		.byte	0x91
 11577 0bb7 00       		.sleb128 0
 11578 0bb8 00000000 		.4byte	0
 11579 0bbc 00000000 		.4byte	0
 11580              	.LLST81:
 11581 0bc0 46000000 		.4byte	.LVL304
 11582 0bc4 A8000000 		.4byte	.LVL313
ARM GAS  C:\Users\Kayas\AppData\Local\Temp\ccpxl0Kp.s 			page 216


 11583 0bc8 0100     		.2byte	0x1
 11584 0bca 56       		.byte	0x56
 11585 0bcb AA000000 		.4byte	.LVL314
 11586 0bcf AE000000 		.4byte	.LVL315
 11587 0bd3 0100     		.2byte	0x1
 11588 0bd5 56       		.byte	0x56
 11589 0bd6 00000000 		.4byte	0
 11590 0bda 00000000 		.4byte	0
 11591              	.LLST82:
 11592 0bde 56000000 		.4byte	.LVL305
 11593 0be2 58000000 		.4byte	.LVL306
 11594 0be6 0100     		.2byte	0x1
 11595 0be8 55       		.byte	0x55
 11596 0be9 5E000000 		.4byte	.LVL307
 11597 0bed AA000000 		.4byte	.LVL314
 11598 0bf1 0100     		.2byte	0x1
 11599 0bf3 55       		.byte	0x55
 11600 0bf4 00000000 		.4byte	0
 11601 0bf8 00000000 		.4byte	0
 11602              	.LLST83:
 11603 0bfc 5E000000 		.4byte	.LVL307
 11604 0c00 A0000000 		.4byte	.LVL311
 11605 0c04 0100     		.2byte	0x1
 11606 0c06 54       		.byte	0x54
 11607 0c07 A2000000 		.4byte	.LVL312
 11608 0c0b AA000000 		.4byte	.LVL314
 11609 0c0f 0100     		.2byte	0x1
 11610 0c11 54       		.byte	0x54
 11611 0c12 00000000 		.4byte	0
 11612 0c16 00000000 		.4byte	0
 11613              	.LLST84:
 11614 0c1a 00000000 		.4byte	.LVL316
 11615 0c1e 18000000 		.4byte	.LVL319
 11616 0c22 0100     		.2byte	0x1
 11617 0c24 50       		.byte	0x50
 11618 0c25 18000000 		.4byte	.LVL319
 11619 0c29 68000000 		.4byte	.LVL330
 11620 0c2d 0100     		.2byte	0x1
 11621 0c2f 54       		.byte	0x54
 11622 0c30 00000000 		.4byte	0
 11623 0c34 00000000 		.4byte	0
 11624              	.LLST85:
 11625 0c38 00000000 		.4byte	.LVL316
 11626 0c3c 18000000 		.4byte	.LVL319
 11627 0c40 0100     		.2byte	0x1
 11628 0c42 51       		.byte	0x51
 11629 0c43 18000000 		.4byte	.LVL319
 11630 0c47 22000000 		.4byte	.LVL321
 11631 0c4b 0100     		.2byte	0x1
 11632 0c4d 57       		.byte	0x57
 11633 0c4e 22000000 		.4byte	.LVL321
 11634 0c52 26000000 		.4byte	.LVL322
 11635 0c56 0200     		.2byte	0x2
 11636 0c58 30       		.byte	0x30
 11637 0c59 9F       		.byte	0x9f
 11638 0c5a 26000000 		.4byte	.LVL322
 11639 0c5e 5A000000 		.4byte	.LVL326
ARM GAS  C:\Users\Kayas\AppData\Local\Temp\ccpxl0Kp.s 			page 217


 11640 0c62 0100     		.2byte	0x1
 11641 0c64 57       		.byte	0x57
 11642 0c65 5C000000 		.4byte	.LVL327
 11643 0c69 68000000 		.4byte	.LVL332
 11644 0c6d 0100     		.2byte	0x1
 11645 0c6f 57       		.byte	0x57
 11646 0c70 00000000 		.4byte	0
 11647 0c74 00000000 		.4byte	0
 11648              	.LLST86:
 11649 0c78 00000000 		.4byte	.LVL316
 11650 0c7c 18000000 		.4byte	.LVL319
 11651 0c80 0100     		.2byte	0x1
 11652 0c82 52       		.byte	0x52
 11653 0c83 18000000 		.4byte	.LVL319
 11654 0c87 20000000 		.4byte	.LVL320
 11655 0c8b 0100     		.2byte	0x1
 11656 0c8d 56       		.byte	0x56
 11657 0c8e 22000000 		.4byte	.LVL321
 11658 0c92 44000000 		.4byte	.LVL324
 11659 0c96 0100     		.2byte	0x1
 11660 0c98 56       		.byte	0x56
 11661 0c99 46000000 		.4byte	.LVL325
 11662 0c9d 5C000000 		.4byte	.LVL327
 11663 0ca1 0100     		.2byte	0x1
 11664 0ca3 56       		.byte	0x56
 11665 0ca4 5C000000 		.4byte	.LVL327
 11666 0ca8 5E000000 		.4byte	.LVL328
 11667 0cac 0200     		.2byte	0x2
 11668 0cae 30       		.byte	0x30
 11669 0caf 9F       		.byte	0x9f
 11670 0cb0 5E000000 		.4byte	.LVL328
 11671 0cb4 68000000 		.4byte	.LVL331
 11672 0cb8 0100     		.2byte	0x1
 11673 0cba 56       		.byte	0x56
 11674 0cbb 00000000 		.4byte	0
 11675 0cbf 00000000 		.4byte	0
 11676              	.LLST87:
 11677 0cc3 00000000 		.4byte	.LVL316
 11678 0cc7 12000000 		.4byte	.LVL317
 11679 0ccb 0100     		.2byte	0x1
 11680 0ccd 53       		.byte	0x53
 11681 0cce 12000000 		.4byte	.LVL317
 11682 0cd2 74000000 		.4byte	.LFE80
 11683 0cd6 0400     		.2byte	0x4
 11684 0cd8 F3       		.byte	0xf3
 11685 0cd9 01       		.uleb128 0x1
 11686 0cda 53       		.byte	0x53
 11687 0cdb 9F       		.byte	0x9f
 11688 0cdc 00000000 		.4byte	0
 11689 0ce0 00000000 		.4byte	0
 11690              	.LLST88:
 11691 0ce4 00000000 		.4byte	.LVL316
 11692 0ce8 12000000 		.4byte	.LVL317
 11693 0cec 0200     		.2byte	0x2
 11694 0cee 91       		.byte	0x91
 11695 0cef 00       		.sleb128 0
 11696 0cf0 12000000 		.4byte	.LVL317
ARM GAS  C:\Users\Kayas\AppData\Local\Temp\ccpxl0Kp.s 			page 218


 11697 0cf4 14000000 		.4byte	.LVL318
 11698 0cf8 0200     		.2byte	0x2
 11699 0cfa 73       		.byte	0x73
 11700 0cfb 00       		.sleb128 0
 11701 0cfc 14000000 		.4byte	.LVL318
 11702 0d00 74000000 		.4byte	.LFE80
 11703 0d04 0200     		.2byte	0x2
 11704 0d06 91       		.byte	0x91
 11705 0d07 00       		.sleb128 0
 11706 0d08 00000000 		.4byte	0
 11707 0d0c 00000000 		.4byte	0
 11708              	.LLST89:
 11709 0d10 00000000 		.4byte	.LVL333
 11710 0d14 24000000 		.4byte	.LVL337
 11711 0d18 0100     		.2byte	0x1
 11712 0d1a 50       		.byte	0x50
 11713 0d1b 24000000 		.4byte	.LVL337
 11714 0d1f D8000000 		.4byte	.LVL353
 11715 0d23 0100     		.2byte	0x1
 11716 0d25 5B       		.byte	0x5b
 11717 0d26 00000000 		.4byte	0
 11718 0d2a 00000000 		.4byte	0
 11719              	.LLST90:
 11720 0d2e 00000000 		.4byte	.LVL333
 11721 0d32 2C000000 		.4byte	.LVL338
 11722 0d36 0100     		.2byte	0x1
 11723 0d38 51       		.byte	0x51
 11724 0d39 2C000000 		.4byte	.LVL338
 11725 0d3d E8000000 		.4byte	.LFE81
 11726 0d41 0400     		.2byte	0x4
 11727 0d43 F3       		.byte	0xf3
 11728 0d44 01       		.uleb128 0x1
 11729 0d45 51       		.byte	0x51
 11730 0d46 9F       		.byte	0x9f
 11731 0d47 00000000 		.4byte	0
 11732 0d4b 00000000 		.4byte	0
 11733              	.LLST91:
 11734 0d4f 00000000 		.4byte	.LVL333
 11735 0d53 2C000000 		.4byte	.LVL338
 11736 0d57 0100     		.2byte	0x1
 11737 0d59 52       		.byte	0x52
 11738 0d5a 2C000000 		.4byte	.LVL338
 11739 0d5e E8000000 		.4byte	.LFE81
 11740 0d62 0400     		.2byte	0x4
 11741 0d64 F3       		.byte	0xf3
 11742 0d65 01       		.uleb128 0x1
 11743 0d66 52       		.byte	0x52
 11744 0d67 9F       		.byte	0x9f
 11745 0d68 00000000 		.4byte	0
 11746 0d6c 00000000 		.4byte	0
 11747              	.LLST92:
 11748 0d70 00000000 		.4byte	.LVL333
 11749 0d74 18000000 		.4byte	.LVL334
 11750 0d78 0100     		.2byte	0x1
 11751 0d7a 53       		.byte	0x53
 11752 0d7b 18000000 		.4byte	.LVL334
 11753 0d7f E8000000 		.4byte	.LFE81
ARM GAS  C:\Users\Kayas\AppData\Local\Temp\ccpxl0Kp.s 			page 219


 11754 0d83 0400     		.2byte	0x4
 11755 0d85 F3       		.byte	0xf3
 11756 0d86 01       		.uleb128 0x1
 11757 0d87 53       		.byte	0x53
 11758 0d88 9F       		.byte	0x9f
 11759 0d89 00000000 		.4byte	0
 11760 0d8d 00000000 		.4byte	0
 11761              	.LLST93:
 11762 0d91 00000000 		.4byte	.LVL333
 11763 0d95 18000000 		.4byte	.LVL334
 11764 0d99 0200     		.2byte	0x2
 11765 0d9b 91       		.byte	0x91
 11766 0d9c 00       		.sleb128 0
 11767 0d9d 18000000 		.4byte	.LVL334
 11768 0da1 1A000000 		.4byte	.LVL335
 11769 0da5 0200     		.2byte	0x2
 11770 0da7 73       		.byte	0x73
 11771 0da8 00       		.sleb128 0
 11772 0da9 1A000000 		.4byte	.LVL335
 11773 0dad E8000000 		.4byte	.LFE81
 11774 0db1 0200     		.2byte	0x2
 11775 0db3 91       		.byte	0x91
 11776 0db4 00       		.sleb128 0
 11777 0db5 00000000 		.4byte	0
 11778 0db9 00000000 		.4byte	0
 11779              	.LLST94:
 11780 0dbd 1C000000 		.4byte	.LVL336
 11781 0dc1 2C000000 		.4byte	.LVL338
 11782 0dc5 0200     		.2byte	0x2
 11783 0dc7 30       		.byte	0x30
 11784 0dc8 9F       		.byte	0x9f
 11785 0dc9 2C000000 		.4byte	.LVL338
 11786 0dcd D8000000 		.4byte	.LVL351
 11787 0dd1 0100     		.2byte	0x1
 11788 0dd3 57       		.byte	0x57
 11789 0dd4 00000000 		.4byte	0
 11790 0dd8 00000000 		.4byte	0
 11791              	.LLST95:
 11792 0ddc 1C000000 		.4byte	.LVL336
 11793 0de0 2C000000 		.4byte	.LVL338
 11794 0de4 0200     		.2byte	0x2
 11795 0de6 30       		.byte	0x30
 11796 0de7 9F       		.byte	0x9f
 11797 0de8 6C000000 		.4byte	.LVL341
 11798 0dec 76000000 		.4byte	.LVL344
 11799 0df0 0200     		.2byte	0x2
 11800 0df2 30       		.byte	0x30
 11801 0df3 9F       		.byte	0x9f
 11802 0df4 76000000 		.4byte	.LVL344
 11803 0df8 C8000000 		.4byte	.LVL347
 11804 0dfc 0100     		.2byte	0x1
 11805 0dfe 54       		.byte	0x54
 11806 0dff CA000000 		.4byte	.LVL348
 11807 0e03 D2000000 		.4byte	.LVL350
 11808 0e07 0100     		.2byte	0x1
 11809 0e09 54       		.byte	0x54
 11810 0e0a 00000000 		.4byte	0
ARM GAS  C:\Users\Kayas\AppData\Local\Temp\ccpxl0Kp.s 			page 220


 11811 0e0e 00000000 		.4byte	0
 11812              	.LLST96:
 11813 0e12 1C000000 		.4byte	.LVL336
 11814 0e16 2C000000 		.4byte	.LVL338
 11815 0e1a 0200     		.2byte	0x2
 11816 0e1c 30       		.byte	0x30
 11817 0e1d 9F       		.byte	0x9f
 11818 0e1e 2C000000 		.4byte	.LVL338
 11819 0e22 74000000 		.4byte	.LVL343
 11820 0e26 0100     		.2byte	0x1
 11821 0e28 58       		.byte	0x58
 11822 0e29 D2000000 		.4byte	.LVL350
 11823 0e2d D8000000 		.4byte	.LVL352
 11824 0e31 0100     		.2byte	0x1
 11825 0e33 58       		.byte	0x58
 11826 0e34 00000000 		.4byte	0
 11827 0e38 00000000 		.4byte	0
 11828              	.LLST97:
 11829 0e3c 6C000000 		.4byte	.LVL341
 11830 0e40 72000000 		.4byte	.LVL342
 11831 0e44 0100     		.2byte	0x1
 11832 0e46 55       		.byte	0x55
 11833 0e47 72000000 		.4byte	.LVL342
 11834 0e4b 76000000 		.4byte	.LVL344
 11835 0e4f 0100     		.2byte	0x1
 11836 0e51 53       		.byte	0x53
 11837 0e52 76000000 		.4byte	.LVL344
 11838 0e56 D0000000 		.4byte	.LVL349
 11839 0e5a 0100     		.2byte	0x1
 11840 0e5c 58       		.byte	0x58
 11841 0e5d D0000000 		.4byte	.LVL349
 11842 0e61 D2000000 		.4byte	.LVL350
 11843 0e65 0C00     		.2byte	0xc
 11844 0e67 77       		.byte	0x77
 11845 0e68 00       		.sleb128 0
 11846 0e69 4F       		.byte	0x4f
 11847 0e6a 26       		.byte	0x26
 11848 0e6b 37       		.byte	0x37
 11849 0e6c 1A       		.byte	0x1a
 11850 0e6d 77       		.byte	0x77
 11851 0e6e 00       		.sleb128 0
 11852 0e6f 22       		.byte	0x22
 11853 0e70 33       		.byte	0x33
 11854 0e71 26       		.byte	0x26
 11855 0e72 9F       		.byte	0x9f
 11856 0e73 00000000 		.4byte	0
 11857 0e77 00000000 		.4byte	0
 11858              	.LLST98:
 11859 0e7b 00000000 		.4byte	.LVL354
 11860 0e7f 18000000 		.4byte	.LVL357
 11861 0e83 0100     		.2byte	0x1
 11862 0e85 50       		.byte	0x50
 11863 0e86 18000000 		.4byte	.LVL357
 11864 0e8a 5E000000 		.4byte	.LVL369
 11865 0e8e 0100     		.2byte	0x1
 11866 0e90 56       		.byte	0x56
 11867 0e91 00000000 		.4byte	0
ARM GAS  C:\Users\Kayas\AppData\Local\Temp\ccpxl0Kp.s 			page 221


 11868 0e95 00000000 		.4byte	0
 11869              	.LLST99:
 11870 0e99 00000000 		.4byte	.LVL354
 11871 0e9d 18000000 		.4byte	.LVL357
 11872 0ea1 0100     		.2byte	0x1
 11873 0ea3 51       		.byte	0x51
 11874 0ea4 18000000 		.4byte	.LVL357
 11875 0ea8 24000000 		.4byte	.LVL358
 11876 0eac 0100     		.2byte	0x1
 11877 0eae 54       		.byte	0x54
 11878 0eaf 24000000 		.4byte	.LVL358
 11879 0eb3 2E000000 		.4byte	.LVL361
 11880 0eb7 0200     		.2byte	0x2
 11881 0eb9 31       		.byte	0x31
 11882 0eba 9F       		.byte	0x9f
 11883 0ebb 2E000000 		.4byte	.LVL361
 11884 0ebf 4C000000 		.4byte	.LVL363
 11885 0ec3 0100     		.2byte	0x1
 11886 0ec5 54       		.byte	0x54
 11887 0ec6 4E000000 		.4byte	.LVL364
 11888 0eca 52000000 		.4byte	.LVL365
 11889 0ece 0100     		.2byte	0x1
 11890 0ed0 54       		.byte	0x54
 11891 0ed1 54000000 		.4byte	.LVL366
 11892 0ed5 5E000000 		.4byte	.LVL368
 11893 0ed9 0100     		.2byte	0x1
 11894 0edb 54       		.byte	0x54
 11895 0edc 00000000 		.4byte	0
 11896 0ee0 00000000 		.4byte	0
 11897              	.LLST100:
 11898 0ee4 00000000 		.4byte	.LVL354
 11899 0ee8 18000000 		.4byte	.LVL357
 11900 0eec 0100     		.2byte	0x1
 11901 0eee 52       		.byte	0x52
 11902 0eef 18000000 		.4byte	.LVL357
 11903 0ef3 2A000000 		.4byte	.LVL359
 11904 0ef7 0100     		.2byte	0x1
 11905 0ef9 57       		.byte	0x57
 11906 0efa 2C000000 		.4byte	.LVL360
 11907 0efe 5E000000 		.4byte	.LVL370
 11908 0f02 0100     		.2byte	0x1
 11909 0f04 57       		.byte	0x57
 11910 0f05 00000000 		.4byte	0
 11911 0f09 00000000 		.4byte	0
 11912              	.LLST101:
 11913 0f0d 00000000 		.4byte	.LVL354
 11914 0f11 12000000 		.4byte	.LVL355
 11915 0f15 0100     		.2byte	0x1
 11916 0f17 53       		.byte	0x53
 11917 0f18 12000000 		.4byte	.LVL355
 11918 0f1c 68000000 		.4byte	.LFE82
 11919 0f20 0400     		.2byte	0x4
 11920 0f22 F3       		.byte	0xf3
 11921 0f23 01       		.uleb128 0x1
 11922 0f24 53       		.byte	0x53
 11923 0f25 9F       		.byte	0x9f
 11924 0f26 00000000 		.4byte	0
ARM GAS  C:\Users\Kayas\AppData\Local\Temp\ccpxl0Kp.s 			page 222


 11925 0f2a 00000000 		.4byte	0
 11926              	.LLST102:
 11927 0f2e 00000000 		.4byte	.LVL354
 11928 0f32 12000000 		.4byte	.LVL355
 11929 0f36 0200     		.2byte	0x2
 11930 0f38 91       		.byte	0x91
 11931 0f39 00       		.sleb128 0
 11932 0f3a 12000000 		.4byte	.LVL355
 11933 0f3e 14000000 		.4byte	.LVL356
 11934 0f42 0200     		.2byte	0x2
 11935 0f44 73       		.byte	0x73
 11936 0f45 00       		.sleb128 0
 11937 0f46 14000000 		.4byte	.LVL356
 11938 0f4a 68000000 		.4byte	.LFE82
 11939 0f4e 0200     		.2byte	0x2
 11940 0f50 91       		.byte	0x91
 11941 0f51 00       		.sleb128 0
 11942 0f52 00000000 		.4byte	0
 11943 0f56 00000000 		.4byte	0
 11944              	.LLST103:
 11945 0f5a 00000000 		.4byte	.LVL371
 11946 0f5e 15000000 		.4byte	.LVL375-1
 11947 0f62 0100     		.2byte	0x1
 11948 0f64 50       		.byte	0x50
 11949 0f65 15000000 		.4byte	.LVL375-1
 11950 0f69 48000000 		.4byte	.LFE83
 11951 0f6d 0400     		.2byte	0x4
 11952 0f6f F3       		.byte	0xf3
 11953 0f70 01       		.uleb128 0x1
 11954 0f71 50       		.byte	0x50
 11955 0f72 9F       		.byte	0x9f
 11956 0f73 00000000 		.4byte	0
 11957 0f77 00000000 		.4byte	0
 11958              	.LLST104:
 11959 0f7b 00000000 		.4byte	.LVL371
 11960 0f7f 15000000 		.4byte	.LVL375-1
 11961 0f83 0100     		.2byte	0x1
 11962 0f85 51       		.byte	0x51
 11963 0f86 15000000 		.4byte	.LVL375-1
 11964 0f8a 48000000 		.4byte	.LFE83
 11965 0f8e 0400     		.2byte	0x4
 11966 0f90 F3       		.byte	0xf3
 11967 0f91 01       		.uleb128 0x1
 11968 0f92 51       		.byte	0x51
 11969 0f93 9F       		.byte	0x9f
 11970 0f94 00000000 		.4byte	0
 11971 0f98 00000000 		.4byte	0
 11972              	.LLST105:
 11973 0f9c 00000000 		.4byte	.LVL371
 11974 0fa0 15000000 		.4byte	.LVL375-1
 11975 0fa4 0100     		.2byte	0x1
 11976 0fa6 52       		.byte	0x52
 11977 0fa7 15000000 		.4byte	.LVL375-1
 11978 0fab 48000000 		.4byte	.LFE83
 11979 0faf 0400     		.2byte	0x4
 11980 0fb1 F3       		.byte	0xf3
 11981 0fb2 01       		.uleb128 0x1
ARM GAS  C:\Users\Kayas\AppData\Local\Temp\ccpxl0Kp.s 			page 223


 11982 0fb3 52       		.byte	0x52
 11983 0fb4 9F       		.byte	0x9f
 11984 0fb5 00000000 		.4byte	0
 11985 0fb9 00000000 		.4byte	0
 11986              	.LLST106:
 11987 0fbd 00000000 		.4byte	.LVL371
 11988 0fc1 0C000000 		.4byte	.LVL373
 11989 0fc5 0100     		.2byte	0x1
 11990 0fc7 53       		.byte	0x53
 11991 0fc8 0C000000 		.4byte	.LVL373
 11992 0fcc 48000000 		.4byte	.LFE83
 11993 0fd0 0400     		.2byte	0x4
 11994 0fd2 F3       		.byte	0xf3
 11995 0fd3 01       		.uleb128 0x1
 11996 0fd4 53       		.byte	0x53
 11997 0fd5 9F       		.byte	0x9f
 11998 0fd6 00000000 		.4byte	0
 11999 0fda 00000000 		.4byte	0
 12000              	.LLST107:
 12001 0fde 08000000 		.4byte	.LVL372
 12002 0fe2 0C000000 		.4byte	.LVL373
 12003 0fe6 0200     		.2byte	0x2
 12004 0fe8 30       		.byte	0x30
 12005 0fe9 9F       		.byte	0x9f
 12006 0fea 0C000000 		.4byte	.LVL373
 12007 0fee 12000000 		.4byte	.LVL374
 12008 0ff2 0100     		.2byte	0x1
 12009 0ff4 53       		.byte	0x53
 12010 0ff5 12000000 		.4byte	.LVL374
 12011 0ff9 46000000 		.4byte	.LVL385
 12012 0ffd 0100     		.2byte	0x1
 12013 0fff 56       		.byte	0x56
 12014 1000 00000000 		.4byte	0
 12015 1004 00000000 		.4byte	0
 12016              	.LLST108:
 12017 1008 08000000 		.4byte	.LVL372
 12018 100c 28000000 		.4byte	.LVL378
 12019 1010 0200     		.2byte	0x2
 12020 1012 30       		.byte	0x30
 12021 1013 9F       		.byte	0x9f
 12022 1014 28000000 		.4byte	.LVL378
 12023 1018 46000000 		.4byte	.LVL384
 12024 101c 0100     		.2byte	0x1
 12025 101e 55       		.byte	0x55
 12026 101f 00000000 		.4byte	0
 12027 1023 00000000 		.4byte	0
 12028              	.LLST109:
 12029 1027 32000000 		.4byte	.LVL379
 12030 102b 39000000 		.4byte	.LVL381-1
 12031 102f 0100     		.2byte	0x1
 12032 1031 50       		.byte	0x50
 12033 1032 00000000 		.4byte	0
 12034 1036 00000000 		.4byte	0
 12035              	.LLST110:
 12036 103a 36000000 		.4byte	.LVL380
 12037 103e 42000000 		.4byte	.LVL383
 12038 1042 0100     		.2byte	0x1
ARM GAS  C:\Users\Kayas\AppData\Local\Temp\ccpxl0Kp.s 			page 224


 12039 1044 54       		.byte	0x54
 12040 1045 00000000 		.4byte	0
 12041 1049 00000000 		.4byte	0
 12042              	.LLST111:
 12043 104d 00000000 		.4byte	.LVL386
 12044 1051 17000000 		.4byte	.LVL392-1
 12045 1055 0100     		.2byte	0x1
 12046 1057 50       		.byte	0x50
 12047 1058 17000000 		.4byte	.LVL392-1
 12048 105c 60000000 		.4byte	.LFE84
 12049 1060 0400     		.2byte	0x4
 12050 1062 F3       		.byte	0xf3
 12051 1063 01       		.uleb128 0x1
 12052 1064 50       		.byte	0x50
 12053 1065 9F       		.byte	0x9f
 12054 1066 00000000 		.4byte	0
 12055 106a 00000000 		.4byte	0
 12056              	.LLST112:
 12057 106e 00000000 		.4byte	.LVL386
 12058 1072 14000000 		.4byte	.LVL391
 12059 1076 0100     		.2byte	0x1
 12060 1078 51       		.byte	0x51
 12061 1079 14000000 		.4byte	.LVL391
 12062 107d 60000000 		.4byte	.LFE84
 12063 1081 0400     		.2byte	0x4
 12064 1083 F3       		.byte	0xf3
 12065 1084 01       		.uleb128 0x1
 12066 1085 51       		.byte	0x51
 12067 1086 9F       		.byte	0x9f
 12068 1087 00000000 		.4byte	0
 12069 108b 00000000 		.4byte	0
 12070              	.LLST113:
 12071 108f 00000000 		.4byte	.LVL386
 12072 1093 17000000 		.4byte	.LVL392-1
 12073 1097 0100     		.2byte	0x1
 12074 1099 52       		.byte	0x52
 12075 109a 17000000 		.4byte	.LVL392-1
 12076 109e 60000000 		.4byte	.LFE84
 12077 10a2 0400     		.2byte	0x4
 12078 10a4 F3       		.byte	0xf3
 12079 10a5 01       		.uleb128 0x1
 12080 10a6 52       		.byte	0x52
 12081 10a7 9F       		.byte	0x9f
 12082 10a8 00000000 		.4byte	0
 12083 10ac 00000000 		.4byte	0
 12084              	.LLST114:
 12085 10b0 00000000 		.4byte	.LVL386
 12086 10b4 0A000000 		.4byte	.LVL387
 12087 10b8 0100     		.2byte	0x1
 12088 10ba 53       		.byte	0x53
 12089 10bb 0A000000 		.4byte	.LVL387
 12090 10bf 60000000 		.4byte	.LFE84
 12091 10c3 0400     		.2byte	0x4
 12092 10c5 F3       		.byte	0xf3
 12093 10c6 01       		.uleb128 0x1
 12094 10c7 53       		.byte	0x53
 12095 10c8 9F       		.byte	0x9f
ARM GAS  C:\Users\Kayas\AppData\Local\Temp\ccpxl0Kp.s 			page 225


 12096 10c9 00000000 		.4byte	0
 12097 10cd 00000000 		.4byte	0
 12098              	.LLST115:
 12099 10d1 00000000 		.4byte	.LVL386
 12100 10d5 0A000000 		.4byte	.LVL387
 12101 10d9 0200     		.2byte	0x2
 12102 10db 91       		.byte	0x91
 12103 10dc 00       		.sleb128 0
 12104 10dd 0A000000 		.4byte	.LVL387
 12105 10e1 10000000 		.4byte	.LVL389
 12106 10e5 0200     		.2byte	0x2
 12107 10e7 73       		.byte	0x73
 12108 10e8 00       		.sleb128 0
 12109 10e9 10000000 		.4byte	.LVL389
 12110 10ed 60000000 		.4byte	.LFE84
 12111 10f1 0200     		.2byte	0x2
 12112 10f3 91       		.byte	0x91
 12113 10f4 00       		.sleb128 0
 12114 10f5 00000000 		.4byte	0
 12115 10f9 00000000 		.4byte	0
 12116              	.LLST116:
 12117 10fd 0C000000 		.4byte	.LVL388
 12118 1101 12000000 		.4byte	.LVL390
 12119 1105 0200     		.2byte	0x2
 12120 1107 30       		.byte	0x30
 12121 1108 9F       		.byte	0x9f
 12122 1109 12000000 		.4byte	.LVL390
 12123 110d 5E000000 		.4byte	.LVL401
 12124 1111 0100     		.2byte	0x1
 12125 1113 57       		.byte	0x57
 12126 1114 00000000 		.4byte	0
 12127 1118 00000000 		.4byte	0
 12128              	.LLST117:
 12129 111c 0C000000 		.4byte	.LVL388
 12130 1120 2A000000 		.4byte	.LVL395
 12131 1124 0200     		.2byte	0x2
 12132 1126 30       		.byte	0x30
 12133 1127 9F       		.byte	0x9f
 12134 1128 2A000000 		.4byte	.LVL395
 12135 112c 5E000000 		.4byte	.LVL400
 12136 1130 0100     		.2byte	0x1
 12137 1132 56       		.byte	0x56
 12138 1133 00000000 		.4byte	0
 12139 1137 00000000 		.4byte	0
 12140              	.LLST118:
 12141 113b 4C000000 		.4byte	.LVL396
 12142 113f 4F000000 		.4byte	.LVL397-1
 12143 1143 0100     		.2byte	0x1
 12144 1145 50       		.byte	0x50
 12145 1146 4F000000 		.4byte	.LVL397-1
 12146 114a 58000000 		.4byte	.LVL399
 12147 114e 3900     		.2byte	0x39
 12148 1150 74       		.byte	0x74
 12149 1151 00       		.sleb128 0
 12150 1152 40       		.byte	0x40
 12151 1153 4B       		.byte	0x4b
 12152 1154 24       		.byte	0x24
ARM GAS  C:\Users\Kayas\AppData\Local\Temp\ccpxl0Kp.s 			page 226


 12153 1155 22       		.byte	0x22
 12154 1156 76       		.byte	0x76
 12155 1157 00       		.sleb128 0
 12156 1158 40       		.byte	0x40
 12157 1159 4B       		.byte	0x4b
 12158 115a 24       		.byte	0x24
 12159 115b 22       		.byte	0x22
 12160 115c 2D       		.byte	0x2d
 12161 115d 76       		.byte	0x76
 12162 115e 00       		.sleb128 0
 12163 115f 40       		.byte	0x40
 12164 1160 4B       		.byte	0x4b
 12165 1161 24       		.byte	0x24
 12166 1162 22       		.byte	0x22
 12167 1163 75       		.byte	0x75
 12168 1164 00       		.sleb128 0
 12169 1165 40       		.byte	0x40
 12170 1166 4B       		.byte	0x4b
 12171 1167 24       		.byte	0x24
 12172 1168 22       		.byte	0x22
 12173 1169 2D       		.byte	0x2d
 12174 116a 21       		.byte	0x21
 12175 116b 75       		.byte	0x75
 12176 116c 00       		.sleb128 0
 12177 116d 40       		.byte	0x40
 12178 116e 4B       		.byte	0x4b
 12179 116f 24       		.byte	0x24
 12180 1170 22       		.byte	0x22
 12181 1171 76       		.byte	0x76
 12182 1172 00       		.sleb128 0
 12183 1173 40       		.byte	0x40
 12184 1174 4B       		.byte	0x4b
 12185 1175 24       		.byte	0x24
 12186 1176 22       		.byte	0x22
 12187 1177 2D       		.byte	0x2d
 12188 1178 76       		.byte	0x76
 12189 1179 00       		.sleb128 0
 12190 117a 40       		.byte	0x40
 12191 117b 4B       		.byte	0x4b
 12192 117c 24       		.byte	0x24
 12193 117d 22       		.byte	0x22
 12194 117e 74       		.byte	0x74
 12195 117f 00       		.sleb128 0
 12196 1180 40       		.byte	0x40
 12197 1181 4B       		.byte	0x4b
 12198 1182 24       		.byte	0x24
 12199 1183 22       		.byte	0x22
 12200 1184 2D       		.byte	0x2d
 12201 1185 21       		.byte	0x21
 12202 1186 1A       		.byte	0x1a
 12203 1187 1F       		.byte	0x1f
 12204 1188 9F       		.byte	0x9f
 12205 1189 00000000 		.4byte	0
 12206 118d 00000000 		.4byte	0
 12207              	.LLST119:
 12208 1191 4C000000 		.4byte	.LVL396
 12209 1195 58000000 		.4byte	.LVL399
ARM GAS  C:\Users\Kayas\AppData\Local\Temp\ccpxl0Kp.s 			page 227


 12210 1199 0300     		.2byte	0x3
 12211 119b 09       		.byte	0x9
 12212 119c 80       		.byte	0x80
 12213 119d 9F       		.byte	0x9f
 12214 119e 00000000 		.4byte	0
 12215 11a2 00000000 		.4byte	0
 12216              		.section	.debug_aranges,"",%progbits
 12217 0000 E4000000 		.4byte	0xe4
 12218 0004 0200     		.2byte	0x2
 12219 0006 00000000 		.4byte	.Ldebug_info0
 12220 000a 04       		.byte	0x4
 12221 000b 00       		.byte	0
 12222 000c 0000     		.2byte	0
 12223 000e 0000     		.2byte	0
 12224 0010 00000000 		.4byte	.LFB59
 12225 0014 10000000 		.4byte	.LFE59-.LFB59
 12226 0018 00000000 		.4byte	.LFB60
 12227 001c 18000000 		.4byte	.LFE60-.LFB60
 12228 0020 00000000 		.4byte	.LFB61
 12229 0024 18000000 		.4byte	.LFE61-.LFB61
 12230 0028 00000000 		.4byte	.LFB62
 12231 002c 14000000 		.4byte	.LFE62-.LFB62
 12232 0030 00000000 		.4byte	.LFB64
 12233 0034 1A000000 		.4byte	.LFE64-.LFB64
 12234 0038 00000000 		.4byte	.LFB65
 12235 003c 1A000000 		.4byte	.LFE65-.LFB65
 12236 0040 00000000 		.4byte	.LFB66
 12237 0044 4C000000 		.4byte	.LFE66-.LFB66
 12238 0048 00000000 		.4byte	.LFB67
 12239 004c B4000000 		.4byte	.LFE67-.LFB67
 12240 0050 00000000 		.4byte	.LFB68
 12241 0054 32000000 		.4byte	.LFE68-.LFB68
 12242 0058 00000000 		.4byte	.LFB69
 12243 005c 1A000000 		.4byte	.LFE69-.LFB69
 12244 0060 00000000 		.4byte	.LFB70
 12245 0064 12000000 		.4byte	.LFE70-.LFB70
 12246 0068 00000000 		.4byte	.LFB71
 12247 006c 1E000000 		.4byte	.LFE71-.LFB71
 12248 0070 00000000 		.4byte	.LFB72
 12249 0074 32000000 		.4byte	.LFE72-.LFB72
 12250 0078 00000000 		.4byte	.LFB73
 12251 007c A4000000 		.4byte	.LFE73-.LFB73
 12252 0080 00000000 		.4byte	.LFB74
 12253 0084 32000000 		.4byte	.LFE74-.LFB74
 12254 0088 00000000 		.4byte	.LFB75
 12255 008c 44000000 		.4byte	.LFE75-.LFB75
 12256 0090 00000000 		.4byte	.LFB76
 12257 0094 C0000000 		.4byte	.LFE76-.LFB76
 12258 0098 00000000 		.4byte	.LFB77
 12259 009c A0000000 		.4byte	.LFE77-.LFB77
 12260 00a0 00000000 		.4byte	.LFB78
 12261 00a4 60000000 		.4byte	.LFE78-.LFB78
 12262 00a8 00000000 		.4byte	.LFB63
 12263 00ac FE010000 		.4byte	.LFE63-.LFB63
 12264 00b0 00000000 		.4byte	.LFB79
 12265 00b4 C8000000 		.4byte	.LFE79-.LFB79
 12266 00b8 00000000 		.4byte	.LFB80
ARM GAS  C:\Users\Kayas\AppData\Local\Temp\ccpxl0Kp.s 			page 228


 12267 00bc 74000000 		.4byte	.LFE80-.LFB80
 12268 00c0 00000000 		.4byte	.LFB81
 12269 00c4 E8000000 		.4byte	.LFE81-.LFB81
 12270 00c8 00000000 		.4byte	.LFB82
 12271 00cc 68000000 		.4byte	.LFE82-.LFB82
 12272 00d0 00000000 		.4byte	.LFB83
 12273 00d4 48000000 		.4byte	.LFE83-.LFB83
 12274 00d8 00000000 		.4byte	.LFB84
 12275 00dc 60000000 		.4byte	.LFE84-.LFB84
 12276 00e0 00000000 		.4byte	0
 12277 00e4 00000000 		.4byte	0
 12278              		.section	.debug_ranges,"",%progbits
 12279              	.Ldebug_ranges0:
 12280 0000 00000000 		.4byte	.LFB59
 12281 0004 10000000 		.4byte	.LFE59
 12282 0008 00000000 		.4byte	.LFB60
 12283 000c 18000000 		.4byte	.LFE60
 12284 0010 00000000 		.4byte	.LFB61
 12285 0014 18000000 		.4byte	.LFE61
 12286 0018 00000000 		.4byte	.LFB62
 12287 001c 14000000 		.4byte	.LFE62
 12288 0020 00000000 		.4byte	.LFB64
 12289 0024 1A000000 		.4byte	.LFE64
 12290 0028 00000000 		.4byte	.LFB65
 12291 002c 1A000000 		.4byte	.LFE65
 12292 0030 00000000 		.4byte	.LFB66
 12293 0034 4C000000 		.4byte	.LFE66
 12294 0038 00000000 		.4byte	.LFB67
 12295 003c B4000000 		.4byte	.LFE67
 12296 0040 00000000 		.4byte	.LFB68
 12297 0044 32000000 		.4byte	.LFE68
 12298 0048 00000000 		.4byte	.LFB69
 12299 004c 1A000000 		.4byte	.LFE69
 12300 0050 00000000 		.4byte	.LFB70
 12301 0054 12000000 		.4byte	.LFE70
 12302 0058 00000000 		.4byte	.LFB71
 12303 005c 1E000000 		.4byte	.LFE71
 12304 0060 00000000 		.4byte	.LFB72
 12305 0064 32000000 		.4byte	.LFE72
 12306 0068 00000000 		.4byte	.LFB73
 12307 006c A4000000 		.4byte	.LFE73
 12308 0070 00000000 		.4byte	.LFB74
 12309 0074 32000000 		.4byte	.LFE74
 12310 0078 00000000 		.4byte	.LFB75
 12311 007c 44000000 		.4byte	.LFE75
 12312 0080 00000000 		.4byte	.LFB76
 12313 0084 C0000000 		.4byte	.LFE76
 12314 0088 00000000 		.4byte	.LFB77
 12315 008c A0000000 		.4byte	.LFE77
 12316 0090 00000000 		.4byte	.LFB78
 12317 0094 60000000 		.4byte	.LFE78
 12318 0098 00000000 		.4byte	.LFB63
 12319 009c FE010000 		.4byte	.LFE63
 12320 00a0 00000000 		.4byte	.LFB79
 12321 00a4 C8000000 		.4byte	.LFE79
 12322 00a8 00000000 		.4byte	.LFB80
 12323 00ac 74000000 		.4byte	.LFE80
ARM GAS  C:\Users\Kayas\AppData\Local\Temp\ccpxl0Kp.s 			page 229


 12324 00b0 00000000 		.4byte	.LFB81
 12325 00b4 E8000000 		.4byte	.LFE81
 12326 00b8 00000000 		.4byte	.LFB82
 12327 00bc 68000000 		.4byte	.LFE82
 12328 00c0 00000000 		.4byte	.LFB83
 12329 00c4 48000000 		.4byte	.LFE83
 12330 00c8 00000000 		.4byte	.LFB84
 12331 00cc 60000000 		.4byte	.LFE84
 12332 00d0 00000000 		.4byte	0
 12333 00d4 00000000 		.4byte	0
 12334              		.section	.debug_line,"",%progbits
 12335              	.Ldebug_line0:
 12336 0000 86050000 		.section	.debug_str,"MS",%progbits,1
 12336      0200A101 
 12336      00000201 
 12336      FB0E0D00 
 12336      01010101 
 12337              	.LASF61:
 12338 0000 5446545F 		.ascii	"TFT_DrawChar\000"
 12338      44726177 
 12338      43686172 
 12338      00
 12339              	.LASF38:
 12340 000d 48636F6C 		.ascii	"Hcolor\000"
 12340      6F7200
 12341              	.LASF16:
 12342 0014 696E7438 		.ascii	"int8_t\000"
 12342      5F7400
 12343              	.LASF70:
 12344 001b 666F6E74 		.ascii	"font\000"
 12344      00
 12345              	.LASF63:
 12346 0020 74656D70 		.ascii	"temp\000"
 12346      00
 12347              	.LASF46:
 12348 0025 5446545F 		.ascii	"TFT_DrawHorizontalLine\000"
 12348      44726177 
 12348      486F7269 
 12348      7A6F6E74 
 12348      616C4C69 
 12349              	.LASF37:
 12350 003c 636F6C6F 		.ascii	"color\000"
 12350      7200
 12351              	.LASF48:
 12352 0042 5446545F 		.ascii	"TFT_DrawVerticalLine\000"
 12352      44726177 
 12352      56657274 
 12352      6963616C 
 12352      4C696E65 
 12353              	.LASF82:
 12354 0057 433A5C55 		.ascii	"C:\\Users\\Kayas\\Documents\\PSoC Creator\\TFT\\Des"
 12354      73657273 
 12354      5C4B6179 
 12354      61735C44 
 12354      6F63756D 
 12355 0084 69676E30 		.ascii	"ign01.cydsn\000"
 12355      312E6379 
ARM GAS  C:\Users\Kayas\AppData\Local\Temp\ccpxl0Kp.s 			page 230


 12355      64736E00 
 12356              	.LASF81:
 12357 0090 443A5C50 		.ascii	"D:\\Psoc\\TFT240_320_4200\\TFT240x320.cydsn\\TFT.c\000"
 12357      736F635C 
 12357      54465432 
 12357      34305F33 
 12357      32305F34 
 12358              	.LASF71:
 12359 00bf 5254435F 		.ascii	"RTC_daysBeforeMonthTbl\000"
 12359      64617973 
 12359      4265666F 
 12359      72654D6F 
 12359      6E746854 
 12360              	.LASF2:
 12361 00d6 6C6F6E67 		.ascii	"long double\000"
 12361      20646F75 
 12361      626C6500 
 12362              	.LASF24:
 12363 00e2 5446545F 		.ascii	"TFT_WriteData\000"
 12363      57726974 
 12363      65446174 
 12363      6100
 12364              	.LASF9:
 12365 00f0 5F5F7569 		.ascii	"__uint16_t\000"
 12365      6E743136 
 12365      5F7400
 12366              	.LASF8:
 12367 00fb 73686F72 		.ascii	"short int\000"
 12367      7420696E 
 12367      7400
 12368              	.LASF23:
 12369 0105 5446545F 		.ascii	"TFT_SendCMD\000"
 12369      53656E64 
 12369      434D4400 
 12370              	.LASF80:
 12371 0111 474E5520 		.ascii	"GNU C11 5.4.1 20160609 (release) [ARM/embedded-5-br"
 12371      43313120 
 12371      352E342E 
 12371      31203230 
 12371      31363036 
 12372 0144 616E6368 		.ascii	"anch revision 237715] -mcpu=cortex-m0 -mthumb -g -O"
 12372      20726576 
 12372      6973696F 
 12372      6E203233 
 12372      37373135 
 12373 0177 67202D66 		.ascii	"g -ffunction-sections -ffat-lto-objects\000"
 12373      66756E63 
 12373      74696F6E 
 12373      2D736563 
 12373      74696F6E 
 12374              	.LASF50:
 12375 019f 5446545F 		.ascii	"TFT_DrawCircle\000"
 12375      44726177 
 12375      43697263 
 12375      6C6500
 12376              	.LASF17:
 12377 01ae 75696E74 		.ascii	"uint8_t\000"
ARM GAS  C:\Users\Kayas\AppData\Local\Temp\ccpxl0Kp.s 			page 231


 12377      385F7400 
 12378              	.LASF76:
 12379 01b6 5350494D 		.ascii	"SPIM_WriteTxData\000"
 12379      5F577269 
 12379      74655478 
 12379      44617461 
 12379      00
 12380              	.LASF36:
 12381 01c7 5446545F 		.ascii	"TFT_FillScreen\000"
 12381      46696C6C 
 12381      53637265 
 12381      656E00
 12382              	.LASF57:
 12383 01d6 6C696E65 		.ascii	"line\000"
 12383      00
 12384              	.LASF78:
 12385 01db 7273745F 		.ascii	"rst_Write\000"
 12385      57726974 
 12385      6500
 12386              	.LASF68:
 12387 01e5 59646174 		.ascii	"Ydata\000"
 12387      6100
 12388              	.LASF45:
 12389 01eb 77696474 		.ascii	"width\000"
 12389      6800
 12390              	.LASF44:
 12391 01f1 6C656E67 		.ascii	"length\000"
 12391      746800
 12392              	.LASF21:
 12393 01f8 666C6F61 		.ascii	"float\000"
 12393      7400
 12394              	.LASF41:
 12395 01fe 5446545F 		.ascii	"TFT_SetXY\000"
 12395      53657458 
 12395      5900
 12396              	.LASF64:
 12397 0208 5446545F 		.ascii	"TFT_DrawString\000"
 12397      44726177 
 12397      53747269 
 12397      6E6700
 12398              	.LASF1:
 12399 0217 6C6F6E67 		.ascii	"long long int\000"
 12399      206C6F6E 
 12399      6720696E 
 12399      7400
 12400              	.LASF43:
 12401 0225 5446545F 		.ascii	"TFT_FillRectangle\000"
 12401      46696C6C 
 12401      52656374 
 12401      616E676C 
 12401      6500
 12402              	.LASF42:
 12403 0237 5446545F 		.ascii	"TFT_SetPixel\000"
 12403      53657450 
 12403      6978656C 
 12403      00
 12404              	.LASF11:
ARM GAS  C:\Users\Kayas\AppData\Local\Temp\ccpxl0Kp.s 			page 232


 12405 0244 6C6F6E67 		.ascii	"long int\000"
 12405      20696E74 
 12405      00
 12406              	.LASF39:
 12407 024d 4C636F6C 		.ascii	"Lcolor\000"
 12407      6F7200
 12408              	.LASF59:
 12409 0254 73747269 		.ascii	"string\000"
 12409      6E6700
 12410              	.LASF14:
 12411 025b 73697A65 		.ascii	"sizetype\000"
 12411      74797065 
 12411      00
 12412              	.LASF53:
 12413 0264 6F726965 		.ascii	"orient\000"
 12413      6E7400
 12414              	.LASF5:
 12415 026b 5F5F7569 		.ascii	"__uint8_t\000"
 12415      6E74385F 
 12415      7400
 12416              	.LASF73:
 12417 0275 4D41585F 		.ascii	"MAX_X\000"
 12417      5800
 12418              	.LASF26:
 12419 027b 5446545F 		.ascii	"TFT_SendData\000"
 12419      53656E64 
 12419      44617461 
 12419      00
 12420              	.LASF66:
 12421 0288 4269746D 		.ascii	"Bitmap\000"
 12421      617000
 12422              	.LASF77:
 12423 028f 43794465 		.ascii	"CyDelayUs\000"
 12423      6C617955 
 12423      7300
 12424              	.LASF6:
 12425 0299 756E7369 		.ascii	"unsigned char\000"
 12425      676E6564 
 12425      20636861 
 12425      7200
 12426              	.LASF65:
 12427 02a7 5446545F 		.ascii	"TFT_FillBitmap\000"
 12427      46696C6C 
 12427      4269746D 
 12427      617000
 12428              	.LASF3:
 12429 02b6 7369676E 		.ascii	"signed char\000"
 12429      65642063 
 12429      68617200 
 12430              	.LASF60:
 12431 02c2 6667636F 		.ascii	"fgcolor\000"
 12431      6C6F7200 
 12432              	.LASF13:
 12433 02ca 6C6F6E67 		.ascii	"long long unsigned int\000"
 12433      206C6F6E 
 12433      6720756E 
 12433      7369676E 
ARM GAS  C:\Users\Kayas\AppData\Local\Temp\ccpxl0Kp.s 			page 233


 12433      65642069 
 12434              	.LASF0:
 12435 02e1 756E7369 		.ascii	"unsigned int\000"
 12435      676E6564 
 12435      20696E74 
 12435      00
 12436              	.LASF19:
 12437 02ee 75696E74 		.ascii	"uint16_t\000"
 12437      31365F74 
 12437      00
 12438              	.LASF69:
 12439 02f7 6C617374 		.ascii	"last\000"
 12439      00
 12440              	.LASF49:
 12441 02fc 5446545F 		.ascii	"TFT_DrawRectangle\000"
 12441      44726177 
 12441      52656374 
 12441      616E676C 
 12441      6500
 12442              	.LASF25:
 12443 030e 44617461 		.ascii	"Data\000"
 12443      00
 12444              	.LASF4:
 12445 0313 5F5F696E 		.ascii	"__int8_t\000"
 12445      74385F74 
 12445      00
 12446              	.LASF15:
 12447 031c 63686172 		.ascii	"char\000"
 12447      00
 12448              	.LASF31:
 12449 0321 456E6443 		.ascii	"EndCol\000"
 12449      6F6C00
 12450              	.LASF47:
 12451 0328 5446545F 		.ascii	"TFT_DrawLine\000"
 12451      44726177 
 12451      4C696E65 
 12451      00
 12452              	.LASF34:
 12453 0335 456E6450 		.ascii	"EndPage\000"
 12453      61676500 
 12454              	.LASF75:
 12455 033d 445F435F 		.ascii	"D_C_Write\000"
 12455      57726974 
 12455      6500
 12456              	.LASF29:
 12457 0347 5446545F 		.ascii	"TFT_SetCol\000"
 12457      53657443 
 12457      6F6C00
 12458              	.LASF56:
 12459 0352 73697A65 		.ascii	"size\000"
 12459      00
 12460              	.LASF20:
 12461 0357 75696E74 		.ascii	"uint16\000"
 12461      313600
 12462              	.LASF10:
 12463 035e 73686F72 		.ascii	"short unsigned int\000"
 12463      7420756E 
ARM GAS  C:\Users\Kayas\AppData\Local\Temp\ccpxl0Kp.s 			page 234


 12463      7369676E 
 12463      65642069 
 12463      6E7400
 12464              	.LASF32:
 12465 0371 5446545F 		.ascii	"TFT_SetPage\000"
 12465      53657450 
 12465      61676500 
 12466              	.LASF12:
 12467 037d 6C6F6E67 		.ascii	"long unsigned int\000"
 12467      20756E73 
 12467      69676E65 
 12467      6420696E 
 12467      7400
 12468              	.LASF22:
 12469 038f 646F7562 		.ascii	"double\000"
 12469      6C6500
 12470              	.LASF72:
 12471 0396 466F6E74 		.ascii	"Font16x16\000"
 12471      31367831 
 12471      3600
 12472              	.LASF67:
 12473 03a0 5446545F 		.ascii	"TFT_Graf\000"
 12473      47726166 
 12473      00
 12474              	.LASF35:
 12475 03a9 5446545F 		.ascii	"TFT_ClearScreen\000"
 12475      436C6561 
 12475      72536372 
 12475      65656E00 
 12476              	.LASF52:
 12477 03b9 5446545F 		.ascii	"TFT_SetOrientation\000"
 12477      5365744F 
 12477      7269656E 
 12477      74617469 
 12477      6F6E00
 12478              	.LASF30:
 12479 03cc 53746172 		.ascii	"StartCol\000"
 12479      74436F6C 
 12479      00
 12480              	.LASF83:
 12481 03d5 636F6E73 		.ascii	"constrain\000"
 12481      74726169 
 12481      6E00
 12482              	.LASF40:
 12483 03df 5446545F 		.ascii	"TFT_ReSetXY\000"
 12483      52655365 
 12483      74585900 
 12484              	.LASF7:
 12485 03eb 5F5F696E 		.ascii	"__int16_t\000"
 12485      7431365F 
 12485      7400
 12486              	.LASF62:
 12487 03f5 61736369 		.ascii	"ascii\000"
 12487      6900
 12488              	.LASF58:
 12489 03fb 44726177 		.ascii	"DrawString\000"
 12489      53747269 
ARM GAS  C:\Users\Kayas\AppData\Local\Temp\ccpxl0Kp.s 			page 235


 12489      6E6700
 12490              	.LASF18:
 12491 0406 696E7431 		.ascii	"int16_t\000"
 12491      365F7400 
 12492              	.LASF33:
 12493 040e 53746172 		.ascii	"StartPage\000"
 12493      74506167 
 12493      6500
 12494              	.LASF55:
 12495 0418 64726177 		.ascii	"drawChar\000"
 12495      43686172 
 12495      00
 12496              	.LASF27:
 12497 0421 64617461 		.ascii	"data1\000"
 12497      3100
 12498              	.LASF28:
 12499 0427 64617461 		.ascii	"data2\000"
 12499      3200
 12500              	.LASF74:
 12501 042d 4D41585F 		.ascii	"MAX_Y\000"
 12501      5900
 12502              	.LASF79:
 12503 0433 43794465 		.ascii	"CyDelay\000"
 12503      6C617900 
 12504              	.LASF54:
 12505 043b 5446545F 		.ascii	"TFT_Init\000"
 12505      496E6974 
 12505      00
 12506              	.LASF51:
 12507 0444 5446545F 		.ascii	"TFT_FillCircle\000"
 12507      46696C6C 
 12507      43697263 
 12507      6C6500
 12508              		.ident	"GCC: (GNU Tools for ARM Embedded Processors) 5.4.1 20160609 (release) [ARM/embedded-5-bran
